; Listing generated by Microsoft (R) Optimizing Compiler Version 16.00.40219.01 

	TITLE	E:\GitHub\codesandnotes\xy-vsfilter\src\subtitles\Rasterizer.cpp
	.686P
	.XMM
	include listing.inc
	.model	flat

INCLUDELIB LIBCMTD
INCLUDELIB OLDNAMES

PUBLIC	??_C@_1BA@JIHHIEDE@?$AAT?$AAy?$AAp?$AAe?$AAL?$AAi?$AAb?$AA?$AA@ ; `string'
PUBLIC	??_C@_1BC@EAHCMADO@?$AAS?$AAo?$AAf?$AAt?$AAw?$AAa?$AAr?$AAe?$AA?$AA@ ; `string'
PUBLIC	??_C@_1O@GBFINDKL@?$AAS?$AAY?$AAS?$AAT?$AAE?$AAM?$AA?$AA@ ; `string'
PUBLIC	??_C@_1BC@IBECJAAI@?$AAS?$AAE?$AAC?$AAU?$AAR?$AAI?$AAT?$AAY?$AA?$AA@ ; `string'
PUBLIC	??_C@_17OMAOINJK@?$AAS?$AAA?$AAM?$AA?$AA@	; `string'
PUBLIC	??_C@_19HLLLM@?$AAM?$AAi?$AAm?$AAe?$AA?$AA@	; `string'
PUBLIC	??_C@_1BC@MAICEHGI@?$AAH?$AAa?$AAr?$AAd?$AAw?$AAa?$AAr?$AAe?$AA?$AA@ ; `string'
PUBLIC	??_C@_1BE@EKPAFMCP@?$AAI?$AAn?$AAt?$AAe?$AAr?$AAf?$AAa?$AAc?$AAe?$AA?$AA@ ; `string'
PUBLIC	??_C@_1BC@NKMMNMGL@?$AAF?$AAi?$AAl?$AAe?$AAT?$AAy?$AAp?$AAe?$AA?$AA@ ; `string'
PUBLIC	??_C@_1CK@OEKPKBNA@?$AAC?$AAo?$AAm?$AAp?$AAo?$AAn?$AAe?$AAn?$AAt?$AA?5?$AAC?$AAa?$AAt?$AAe?$AAg?$AAo?$AAr?$AAi?$AAe?$AAs?$AA?$AA@ ; `string'
PUBLIC	??_C@_1M@KANJNLFF@?$AAC?$AAL?$AAS?$AAI?$AAD?$AA?$AA@ ; `string'
PUBLIC	??_C@_1M@EJNEECMJ@?$AAA?$AAp?$AAp?$AAI?$AAD?$AA?$AA@ ; `string'
PUBLIC	??_C@_1O@JDLOHAN@?$AAD?$AAe?$AAl?$AAe?$AAt?$AAe?$AA?$AA@ ; `string'
PUBLIC	??_C@_1BC@GCKHIPE@?$AAN?$AAo?$AAR?$AAe?$AAm?$AAo?$AAv?$AAe?$AA?$AA@ ; `string'
PUBLIC	??_C@_1BI@JFAIJMHL@?$AAF?$AAo?$AAr?$AAc?$AAe?$AAR?$AAe?$AAm?$AAo?$AAv?$AAe?$AA?$AA@ ; `string'
PUBLIC	??_C@_17LLMMEOJD@?$AAV?$AAa?$AAl?$AA?$AA@	; `string'
PUBLIC	??_C@_13OPKGLAFF@?$AAB?$AA?$AA@			; `string'
PUBLIC	??_C@_13MKMNOPIJ@?$AAD?$AA?$AA@			; `string'
PUBLIC	??_C@_13LHMFKAAD@?$AAM?$AA?$AA@			; `string'
PUBLIC	??_C@_13HADIAKP@?$AAS?$AA?$AA@			; `string'
PUBLIC	?_AfxInitManaged@@YAHXZ				; _AfxInitManaged
PUBLIC	??_C@_1CK@NMKILLLB@?$AAI?$AAn?$AAv?$AAa?$AAl?$AAi?$AAd?$AA?5?$AAD?$AAa?$AAt?$AAe?$AAT?$AAi?$AAm?$AAe?$AAS?$AAp?$AAa?$AAn?$AA?$AA@ ; `string'
PUBLIC	??_C@_1CC@FFBCNGIJ@?$AAI?$AAn?$AAv?$AAa?$AAl?$AAi?$AAd?$AA?5?$AAD?$AAa?$AAt?$AAe?$AAT?$AAi?$AAm?$AAe?$AA?$AA@ ; `string'
PUBLIC	?_pAtlAutoThreadModule@ATL@@3PAUIAtlAutoThreadModule@1@A ; ATL::_pAtlAutoThreadModule
PUBLIC	?_Min@?$AtlLimits@H@ATL@@2HB			; ATL::AtlLimits<int>::_Min
PUBLIC	?_Max@?$AtlLimits@H@ATL@@2HB			; ATL::AtlLimits<int>::_Max
PUBLIC	?_Min@?$AtlLimits@I@ATL@@2IB			; ATL::AtlLimits<unsigned int>::_Min
PUBLIC	?_Max@?$AtlLimits@I@ATL@@2IB			; ATL::AtlLimits<unsigned int>::_Max
PUBLIC	?_Min@?$AtlLimits@J@ATL@@2JB			; ATL::AtlLimits<long>::_Min
PUBLIC	?_Max@?$AtlLimits@J@ATL@@2JB			; ATL::AtlLimits<long>::_Max
PUBLIC	?_Min@?$AtlLimits@K@ATL@@2KB			; ATL::AtlLimits<unsigned long>::_Min
PUBLIC	?_Max@?$AtlLimits@K@ATL@@2KB			; ATL::AtlLimits<unsigned long>::_Max
PUBLIC	?_Min@?$AtlLimits@_J@ATL@@2_JB			; ATL::AtlLimits<__int64>::_Min
PUBLIC	?_Max@?$AtlLimits@_J@ATL@@2_JB			; ATL::AtlLimits<__int64>::_Max
PUBLIC	?_Min@?$AtlLimits@_K@ATL@@2_KB			; ATL::AtlLimits<unsigned __int64>::_Min
PUBLIC	?_Max@?$AtlLimits@_K@ATL@@2_KB			; ATL::AtlLimits<unsigned __int64>::_Max
PUBLIC	?s_pfnPrevHook@CNoUIAssertHook@ATL@@0P6AHHPADPAH@ZA ; ATL::CNoUIAssertHook::s_pfnPrevHook
PUBLIC	?m_bInitFailed@CAtlBaseModule@ATL@@2_NA		; ATL::CAtlBaseModule::m_bInitFailed
PUBLIC	?VT@?$CVarTypeInfo@D@ATL@@2GB			; ATL::CVarTypeInfo<char>::VT
PUBLIC	?pmField@?$CVarTypeInfo@D@ATL@@2QQtagVARIANT@@DQ3@ ; ATL::CVarTypeInfo<char>::pmField
PUBLIC	?VT@?$CVarTypeInfo@E@ATL@@2GB			; ATL::CVarTypeInfo<unsigned char>::VT
PUBLIC	?pmField@?$CVarTypeInfo@E@ATL@@2QQtagVARIANT@@EQ3@ ; ATL::CVarTypeInfo<unsigned char>::pmField
PUBLIC	?VT@?$CVarTypeInfo@PAD@ATL@@2GB			; ATL::CVarTypeInfo<char *>::VT
PUBLIC	?pmField@?$CVarTypeInfo@PAD@ATL@@2QQtagVARIANT@@PADQ3@ ; ATL::CVarTypeInfo<char *>::pmField
PUBLIC	?VT@?$CVarTypeInfo@PAE@ATL@@2GB			; ATL::CVarTypeInfo<unsigned char *>::VT
PUBLIC	?pmField@?$CVarTypeInfo@PAE@ATL@@2QQtagVARIANT@@PAEQ3@ ; ATL::CVarTypeInfo<unsigned char *>::pmField
PUBLIC	?VT@?$CVarTypeInfo@F@ATL@@2GB			; ATL::CVarTypeInfo<short>::VT
PUBLIC	?pmField@?$CVarTypeInfo@F@ATL@@2QQtagVARIANT@@FQ3@ ; ATL::CVarTypeInfo<short>::pmField
PUBLIC	?VT@?$CVarTypeInfo@PAF@ATL@@2GB			; ATL::CVarTypeInfo<short *>::VT
PUBLIC	?pmField@?$CVarTypeInfo@PAF@ATL@@2QQtagVARIANT@@PAFQ3@ ; ATL::CVarTypeInfo<short *>::pmField
PUBLIC	?VT@?$CVarTypeInfo@G@ATL@@2GB			; ATL::CVarTypeInfo<unsigned short>::VT
PUBLIC	?pmField@?$CVarTypeInfo@G@ATL@@2QQtagVARIANT@@GQ3@ ; ATL::CVarTypeInfo<unsigned short>::pmField
PUBLIC	?VT@?$CVarTypeInfo@PAG@ATL@@2GB			; ATL::CVarTypeInfo<unsigned short *>::VT
PUBLIC	?pmField@?$CVarTypeInfo@PAG@ATL@@2QQtagVARIANT@@PAGQ3@ ; ATL::CVarTypeInfo<unsigned short *>::pmField
PUBLIC	?VT@?$CVarTypeInfo@H@ATL@@2GB			; ATL::CVarTypeInfo<int>::VT
PUBLIC	?pmField@?$CVarTypeInfo@H@ATL@@2QQtagVARIANT@@HQ3@ ; ATL::CVarTypeInfo<int>::pmField
PUBLIC	?VT@?$CVarTypeInfo@PAH@ATL@@2GB			; ATL::CVarTypeInfo<int *>::VT
PUBLIC	?pmField@?$CVarTypeInfo@PAH@ATL@@2QQtagVARIANT@@PAHQ3@ ; ATL::CVarTypeInfo<int *>::pmField
PUBLIC	?VT@?$CVarTypeInfo@I@ATL@@2GB			; ATL::CVarTypeInfo<unsigned int>::VT
PUBLIC	?pmField@?$CVarTypeInfo@I@ATL@@2QQtagVARIANT@@IQ3@ ; ATL::CVarTypeInfo<unsigned int>::pmField
PUBLIC	?VT@?$CVarTypeInfo@PAI@ATL@@2GB			; ATL::CVarTypeInfo<unsigned int *>::VT
PUBLIC	?pmField@?$CVarTypeInfo@PAI@ATL@@2QQtagVARIANT@@PAIQ3@ ; ATL::CVarTypeInfo<unsigned int *>::pmField
PUBLIC	?VT@?$CVarTypeInfo@J@ATL@@2GB			; ATL::CVarTypeInfo<long>::VT
PUBLIC	?pmField@?$CVarTypeInfo@J@ATL@@2QQtagVARIANT@@JQ3@ ; ATL::CVarTypeInfo<long>::pmField
PUBLIC	?VT@?$CVarTypeInfo@PAJ@ATL@@2GB			; ATL::CVarTypeInfo<long *>::VT
PUBLIC	?pmField@?$CVarTypeInfo@PAJ@ATL@@2QQtagVARIANT@@PAJQ3@ ; ATL::CVarTypeInfo<long *>::pmField
PUBLIC	?VT@?$CVarTypeInfo@K@ATL@@2GB			; ATL::CVarTypeInfo<unsigned long>::VT
PUBLIC	?pmField@?$CVarTypeInfo@K@ATL@@2QQtagVARIANT@@KQ3@ ; ATL::CVarTypeInfo<unsigned long>::pmField
PUBLIC	?VT@?$CVarTypeInfo@PAK@ATL@@2GB			; ATL::CVarTypeInfo<unsigned long *>::VT
PUBLIC	?pmField@?$CVarTypeInfo@PAK@ATL@@2QQtagVARIANT@@PAKQ3@ ; ATL::CVarTypeInfo<unsigned long *>::pmField
PUBLIC	?VT@?$CVarTypeInfo@_J@ATL@@2GB			; ATL::CVarTypeInfo<__int64>::VT
PUBLIC	?pmField@?$CVarTypeInfo@_J@ATL@@2QQtagVARIANT@@_JQ3@ ; ATL::CVarTypeInfo<__int64>::pmField
PUBLIC	?VT@?$CVarTypeInfo@PA_J@ATL@@2GB		; ATL::CVarTypeInfo<__int64 *>::VT
PUBLIC	?pmField@?$CVarTypeInfo@PA_J@ATL@@2QQtagVARIANT@@PA_JQ3@ ; ATL::CVarTypeInfo<__int64 *>::pmField
PUBLIC	?VT@?$CVarTypeInfo@_K@ATL@@2GB			; ATL::CVarTypeInfo<unsigned __int64>::VT
PUBLIC	?pmField@?$CVarTypeInfo@_K@ATL@@2QQtagVARIANT@@_KQ3@ ; ATL::CVarTypeInfo<unsigned __int64>::pmField
PUBLIC	?VT@?$CVarTypeInfo@PA_K@ATL@@2GB		; ATL::CVarTypeInfo<unsigned __int64 *>::VT
PUBLIC	?pmField@?$CVarTypeInfo@PA_K@ATL@@2QQtagVARIANT@@PA_KQ3@ ; ATL::CVarTypeInfo<unsigned __int64 *>::pmField
PUBLIC	?VT@?$CVarTypeInfo@M@ATL@@2GB			; ATL::CVarTypeInfo<float>::VT
PUBLIC	?pmField@?$CVarTypeInfo@M@ATL@@2QQtagVARIANT@@MQ3@ ; ATL::CVarTypeInfo<float>::pmField
PUBLIC	?VT@?$CVarTypeInfo@PAM@ATL@@2GB			; ATL::CVarTypeInfo<float *>::VT
PUBLIC	?pmField@?$CVarTypeInfo@PAM@ATL@@2QQtagVARIANT@@PAMQ3@ ; ATL::CVarTypeInfo<float *>::pmField
PUBLIC	?VT@?$CVarTypeInfo@N@ATL@@2GB			; ATL::CVarTypeInfo<double>::VT
PUBLIC	?pmField@?$CVarTypeInfo@N@ATL@@2QQtagVARIANT@@NQ3@ ; ATL::CVarTypeInfo<double>::pmField
PUBLIC	?VT@?$CVarTypeInfo@PAN@ATL@@2GB			; ATL::CVarTypeInfo<double *>::VT
PUBLIC	?pmField@?$CVarTypeInfo@PAN@ATL@@2QQtagVARIANT@@PANQ3@ ; ATL::CVarTypeInfo<double *>::pmField
PUBLIC	?VT@?$CVarTypeInfo@PAUtagVARIANT@@@ATL@@2GB	; ATL::CVarTypeInfo<tagVARIANT *>::VT
PUBLIC	?VT@?$CVarTypeInfo@PA_W@ATL@@2GB		; ATL::CVarTypeInfo<wchar_t *>::VT
PUBLIC	?pmField@?$CVarTypeInfo@PA_W@ATL@@2QQtagVARIANT@@PA_WQ3@ ; ATL::CVarTypeInfo<wchar_t *>::pmField
PUBLIC	?VT@?$CVarTypeInfo@PAPA_W@ATL@@2GB		; ATL::CVarTypeInfo<wchar_t * *>::VT
PUBLIC	?pmField@?$CVarTypeInfo@PAPA_W@ATL@@2QQtagVARIANT@@PAPA_WQ3@ ; ATL::CVarTypeInfo<wchar_t * *>::pmField
PUBLIC	?VT@?$CVarTypeInfo@PAUIUnknown@@@ATL@@2GB	; ATL::CVarTypeInfo<IUnknown *>::VT
PUBLIC	?pmField@?$CVarTypeInfo@PAUIUnknown@@@ATL@@2QQtagVARIANT@@PAUIUnknown@@Q3@ ; ATL::CVarTypeInfo<IUnknown *>::pmField
PUBLIC	?VT@?$CVarTypeInfo@PAPAUIUnknown@@@ATL@@2GB	; ATL::CVarTypeInfo<IUnknown * *>::VT
PUBLIC	?pmField@?$CVarTypeInfo@PAPAUIUnknown@@@ATL@@2QQtagVARIANT@@PAPAUIUnknown@@Q3@ ; ATL::CVarTypeInfo<IUnknown * *>::pmField
PUBLIC	?VT@?$CVarTypeInfo@PAUIDispatch@@@ATL@@2GB	; ATL::CVarTypeInfo<IDispatch *>::VT
PUBLIC	?pmField@?$CVarTypeInfo@PAUIDispatch@@@ATL@@2QQtagVARIANT@@PAUIDispatch@@Q3@ ; ATL::CVarTypeInfo<IDispatch *>::pmField
PUBLIC	?VT@?$CVarTypeInfo@PAPAUIDispatch@@@ATL@@2GB	; ATL::CVarTypeInfo<IDispatch * *>::VT
PUBLIC	?pmField@?$CVarTypeInfo@PAPAUIDispatch@@@ATL@@2QQtagVARIANT@@PAPAUIDispatch@@Q3@ ; ATL::CVarTypeInfo<IDispatch * *>::pmField
PUBLIC	?VT@?$CVarTypeInfo@TtagCY@@@ATL@@2GB		; ATL::CVarTypeInfo<tagCY>::VT
PUBLIC	?pmField@?$CVarTypeInfo@TtagCY@@@ATL@@2QQtagVARIANT@@TtagCY@@Q3@ ; ATL::CVarTypeInfo<tagCY>::pmField
PUBLIC	?VT@?$CVarTypeInfo@PATtagCY@@@ATL@@2GB		; ATL::CVarTypeInfo<tagCY *>::VT
PUBLIC	?pmField@?$CVarTypeInfo@PATtagCY@@@ATL@@2QQtagVARIANT@@PATtagCY@@Q3@ ; ATL::CVarTypeInfo<tagCY *>::pmField
PUBLIC	?s_pLog@CFixedStringMgr@ATL@@2PAVIFixedStringLog@2@A ; ATL::CFixedStringMgr::s_pLog
PUBLIC	?generic@CArchiveException@@2HB			; CArchiveException::generic
PUBLIC	?c_bIsMFCDLLTraits@?$_MFCDLLTraitsCheck@_WV?$StrTraitMFC@_WV?$ChTraitsCRT@_W@ATL@@@@@_CSTRING_IMPL_@ATL@@2_NB ; ATL::_CSTRING_IMPL_::_MFCDLLTraitsCheck<wchar_t,StrTraitMFC<wchar_t,ATL::ChTraitsCRT<wchar_t> > >::c_bIsMFCDLLTraits
PUBLIC	?generic@CFileException@@2HB			; CFileException::generic
PUBLIC	?Millisecond@CFileTime@ATL@@2_KB		; ATL::CFileTime::Millisecond
PUBLIC	?Second@CFileTime@ATL@@2_KB			; ATL::CFileTime::Second
PUBLIC	?Minute@CFileTime@ATL@@2_KB			; ATL::CFileTime::Minute
PUBLIC	?Hour@CFileTime@ATL@@2_KB			; ATL::CFileTime::Hour
PUBLIC	?Day@CFileTime@ATL@@2_KB			; ATL::CFileTime::Day
PUBLIC	?Week@CFileTime@ATL@@2_KB			; ATL::CFileTime::Week
PUBLIC	?szInvalidDateTime@ATL@@3QB_WB			; ATL::szInvalidDateTime
PUBLIC	?szInvalidDateTimeSpan@ATL@@3QB_WB		; ATL::szInvalidDateTimeSpan
PUBLIC	__pIncludeInitManaged
PUBLIC	_LIBID_ATLLib
PUBLIC	_CLSID_Registrar
PUBLIC	_IID_IRegistrar
PUBLIC	_IID_IAxWinHostWindow
PUBLIC	_IID_IAxWinAmbientDispatch
PUBLIC	_IID_IInternalConnection
PUBLIC	_IID_IDocHostUIHandlerDispatch
PUBLIC	_IID_IAxWinHostWindowLic
PUBLIC	_IID_IAxWinAmbientDispatchEx
PUBLIC	___pobjMapEntryFirst
PUBLIC	___pobjMapEntryLast
PUBLIC	?_pPerfRegFunc@ATL@@3P6AJPAUHINSTANCE__@@@ZA	; ATL::_pPerfRegFunc
PUBLIC	?_pPerfUnRegFunc@ATL@@3P6AJXZA			; ATL::_pPerfUnRegFunc
PUBLIC	?_AtlRegisterPerUser@ATL@@3_NA			; ATL::_AtlRegisterPerUser
PUBLIC	?_pAtlModule@ATL@@3PAVCAtlModule@1@A		; ATL::_pAtlModule
PUBLIC	?m_libid@CAtlModule@ATL@@2U_GUID@@A		; ATL::CAtlModule::m_libid
PUBLIC	?_pModule@ATL@@3PAVCComModule@1@A		; ATL::_pModule
PUBLIC	?ATL_CREATE_OBJECT@CComApartment@ATL@@2IA	; ATL::CComApartment::ATL_CREATE_OBJECT
PUBLIC	?MAX_VALUE@CRegParser@ATL@@1HB			; ATL::CRegParser::MAX_VALUE
PUBLIC	?MAX_TYPE@CRegParser@ATL@@1HB			; ATL::CRegParser::MAX_TYPE
PUBLIC	?rgszNeverDelete@CRegParser@ATL@@1QBQB_WB	; ATL::CRegParser::rgszNeverDelete
PUBLIC	?cbNeverDelete@CRegParser@ATL@@1HB		; ATL::CRegParser::cbNeverDelete
PUBLIC	?c_bIsMFCDLLTraits@?$_MFCDLLTraitsCheck@DV?$StrTraitATL@DV?$ChTraitsCRT@D@ATL@@@ATL@@@_CSTRING_IMPL_@ATL@@2_NB ; ATL::_CSTRING_IMPL_::_MFCDLLTraitsCheck<char,ATL::StrTraitATL<char,ATL::ChTraitsCRT<char> > >::c_bIsMFCDLLTraits
PUBLIC	?c_bIsMFCDLLTraits@?$_MFCDLLTraitsCheck@_WV?$StrTraitATL@_WV?$ChTraitsCRT@_W@ATL@@@ATL@@@_CSTRING_IMPL_@ATL@@2_NB ; ATL::_CSTRING_IMPL_::_MFCDLLTraitsCheck<wchar_t,ATL::StrTraitATL<wchar_t,ATL::ChTraitsCRT<wchar_t> > >::c_bIsMFCDLLTraits
PUBLIC	?sc_redShift@ColorF@D2D1@@0IB			; D2D1::ColorF::sc_redShift
PUBLIC	?sc_greenShift@ColorF@D2D1@@0IB			; D2D1::ColorF::sc_greenShift
PUBLIC	?sc_blueShift@ColorF@D2D1@@0IB			; D2D1::ColorF::sc_blueShift
PUBLIC	?sc_redMask@ColorF@D2D1@@0IB			; D2D1::ColorF::sc_redMask
PUBLIC	?sc_greenMask@ColorF@D2D1@@0IB			; D2D1::ColorF::sc_greenMask
PUBLIC	?sc_blueMask@ColorF@D2D1@@0IB			; D2D1::ColorF::sc_blueMask
PUBLIC	_IID_IAMFilterGraphCallback
PUBLIC	?has_denorm@_Num_base@std@@2W4float_denorm_style@2@B ; std::_Num_base::has_denorm
PUBLIC	?has_denorm_loss@_Num_base@std@@2_NB		; std::_Num_base::has_denorm_loss
PUBLIC	?has_infinity@_Num_base@std@@2_NB		; std::_Num_base::has_infinity
PUBLIC	?has_quiet_NaN@_Num_base@std@@2_NB		; std::_Num_base::has_quiet_NaN
PUBLIC	?has_signaling_NaN@_Num_base@std@@2_NB		; std::_Num_base::has_signaling_NaN
PUBLIC	?is_bounded@_Num_base@std@@2_NB			; std::_Num_base::is_bounded
PUBLIC	?is_exact@_Num_base@std@@2_NB			; std::_Num_base::is_exact
PUBLIC	?is_iec559@_Num_base@std@@2_NB			; std::_Num_base::is_iec559
PUBLIC	?is_integer@_Num_base@std@@2_NB			; std::_Num_base::is_integer
PUBLIC	?is_modulo@_Num_base@std@@2_NB			; std::_Num_base::is_modulo
PUBLIC	?is_signed@_Num_base@std@@2_NB			; std::_Num_base::is_signed
PUBLIC	?is_specialized@_Num_base@std@@2_NB		; std::_Num_base::is_specialized
PUBLIC	?tinyness_before@_Num_base@std@@2_NB		; std::_Num_base::tinyness_before
PUBLIC	?traps@_Num_base@std@@2_NB			; std::_Num_base::traps
PUBLIC	?round_style@_Num_base@std@@2W4float_round_style@2@B ; std::_Num_base::round_style
PUBLIC	?digits@_Num_base@std@@2HB			; std::_Num_base::digits
PUBLIC	?digits10@_Num_base@std@@2HB			; std::_Num_base::digits10
PUBLIC	?max_digits10@_Num_base@std@@2HB		; std::_Num_base::max_digits10
PUBLIC	?max_exponent@_Num_base@std@@2HB		; std::_Num_base::max_exponent
PUBLIC	?max_exponent10@_Num_base@std@@2HB		; std::_Num_base::max_exponent10
PUBLIC	?min_exponent@_Num_base@std@@2HB		; std::_Num_base::min_exponent
PUBLIC	?min_exponent10@_Num_base@std@@2HB		; std::_Num_base::min_exponent10
PUBLIC	?radix@_Num_base@std@@2HB			; std::_Num_base::radix
PUBLIC	?is_bounded@_Num_int_base@std@@2_NB		; std::_Num_int_base::is_bounded
PUBLIC	?is_exact@_Num_int_base@std@@2_NB		; std::_Num_int_base::is_exact
PUBLIC	?is_integer@_Num_int_base@std@@2_NB		; std::_Num_int_base::is_integer
PUBLIC	?is_modulo@_Num_int_base@std@@2_NB		; std::_Num_int_base::is_modulo
PUBLIC	?is_specialized@_Num_int_base@std@@2_NB		; std::_Num_int_base::is_specialized
PUBLIC	?radix@_Num_int_base@std@@2HB			; std::_Num_int_base::radix
PUBLIC	?has_denorm@_Num_float_base@std@@2W4float_denorm_style@2@B ; std::_Num_float_base::has_denorm
PUBLIC	?has_denorm_loss@_Num_float_base@std@@2_NB	; std::_Num_float_base::has_denorm_loss
PUBLIC	?has_infinity@_Num_float_base@std@@2_NB		; std::_Num_float_base::has_infinity
PUBLIC	?has_quiet_NaN@_Num_float_base@std@@2_NB	; std::_Num_float_base::has_quiet_NaN
PUBLIC	?has_signaling_NaN@_Num_float_base@std@@2_NB	; std::_Num_float_base::has_signaling_NaN
PUBLIC	?is_bounded@_Num_float_base@std@@2_NB		; std::_Num_float_base::is_bounded
PUBLIC	?is_exact@_Num_float_base@std@@2_NB		; std::_Num_float_base::is_exact
PUBLIC	?is_iec559@_Num_float_base@std@@2_NB		; std::_Num_float_base::is_iec559
PUBLIC	?is_integer@_Num_float_base@std@@2_NB		; std::_Num_float_base::is_integer
PUBLIC	?is_modulo@_Num_float_base@std@@2_NB		; std::_Num_float_base::is_modulo
PUBLIC	?is_signed@_Num_float_base@std@@2_NB		; std::_Num_float_base::is_signed
PUBLIC	?is_specialized@_Num_float_base@std@@2_NB	; std::_Num_float_base::is_specialized
PUBLIC	?tinyness_before@_Num_float_base@std@@2_NB	; std::_Num_float_base::tinyness_before
PUBLIC	?traps@_Num_float_base@std@@2_NB		; std::_Num_float_base::traps
PUBLIC	?round_style@_Num_float_base@std@@2W4float_round_style@2@B ; std::_Num_float_base::round_style
PUBLIC	?radix@_Num_float_base@std@@2HB			; std::_Num_float_base::radix
PUBLIC	?is_signed@?$numeric_limits@D@std@@2_NB		; std::numeric_limits<char>::is_signed
PUBLIC	?digits@?$numeric_limits@D@std@@2HB		; std::numeric_limits<char>::digits
PUBLIC	?digits10@?$numeric_limits@D@std@@2HB		; std::numeric_limits<char>::digits10
PUBLIC	?max_digits10@?$numeric_limits@D@std@@2HB	; std::numeric_limits<char>::max_digits10
PUBLIC	?is_signed@?$numeric_limits@_W@std@@2_NB	; std::numeric_limits<wchar_t>::is_signed
PUBLIC	?digits@?$numeric_limits@_W@std@@2HB		; std::numeric_limits<wchar_t>::digits
PUBLIC	?digits10@?$numeric_limits@_W@std@@2HB		; std::numeric_limits<wchar_t>::digits10
PUBLIC	?max_digits10@?$numeric_limits@_W@std@@2HB	; std::numeric_limits<wchar_t>::max_digits10
PUBLIC	?is_modulo@?$numeric_limits@_N@std@@2_NB	; std::numeric_limits<bool>::is_modulo
PUBLIC	?is_signed@?$numeric_limits@_N@std@@2_NB	; std::numeric_limits<bool>::is_signed
PUBLIC	?digits@?$numeric_limits@_N@std@@2HB		; std::numeric_limits<bool>::digits
PUBLIC	?digits10@?$numeric_limits@_N@std@@2HB		; std::numeric_limits<bool>::digits10
PUBLIC	?max_digits10@?$numeric_limits@_N@std@@2HB	; std::numeric_limits<bool>::max_digits10
PUBLIC	?is_signed@?$numeric_limits@C@std@@2_NB		; std::numeric_limits<signed char>::is_signed
PUBLIC	?digits@?$numeric_limits@C@std@@2HB		; std::numeric_limits<signed char>::digits
PUBLIC	?digits10@?$numeric_limits@C@std@@2HB		; std::numeric_limits<signed char>::digits10
PUBLIC	?max_digits10@?$numeric_limits@C@std@@2HB	; std::numeric_limits<signed char>::max_digits10
PUBLIC	?is_signed@?$numeric_limits@E@std@@2_NB		; std::numeric_limits<unsigned char>::is_signed
PUBLIC	?digits@?$numeric_limits@E@std@@2HB		; std::numeric_limits<unsigned char>::digits
PUBLIC	?digits10@?$numeric_limits@E@std@@2HB		; std::numeric_limits<unsigned char>::digits10
PUBLIC	?max_digits10@?$numeric_limits@E@std@@2HB	; std::numeric_limits<unsigned char>::max_digits10
PUBLIC	?is_signed@?$numeric_limits@F@std@@2_NB		; std::numeric_limits<short>::is_signed
PUBLIC	?digits@?$numeric_limits@F@std@@2HB		; std::numeric_limits<short>::digits
PUBLIC	?digits10@?$numeric_limits@F@std@@2HB		; std::numeric_limits<short>::digits10
PUBLIC	?max_digits10@?$numeric_limits@F@std@@2HB	; std::numeric_limits<short>::max_digits10
PUBLIC	?is_signed@?$numeric_limits@G@std@@2_NB		; std::numeric_limits<unsigned short>::is_signed
PUBLIC	?digits@?$numeric_limits@G@std@@2HB		; std::numeric_limits<unsigned short>::digits
PUBLIC	?digits10@?$numeric_limits@G@std@@2HB		; std::numeric_limits<unsigned short>::digits10
PUBLIC	?max_digits10@?$numeric_limits@G@std@@2HB	; std::numeric_limits<unsigned short>::max_digits10
PUBLIC	?is_signed@?$numeric_limits@H@std@@2_NB		; std::numeric_limits<int>::is_signed
PUBLIC	?digits@?$numeric_limits@H@std@@2HB		; std::numeric_limits<int>::digits
PUBLIC	?digits10@?$numeric_limits@H@std@@2HB		; std::numeric_limits<int>::digits10
PUBLIC	?max_digits10@?$numeric_limits@H@std@@2HB	; std::numeric_limits<int>::max_digits10
PUBLIC	?is_signed@?$numeric_limits@I@std@@2_NB		; std::numeric_limits<unsigned int>::is_signed
PUBLIC	?digits@?$numeric_limits@I@std@@2HB		; std::numeric_limits<unsigned int>::digits
PUBLIC	?digits10@?$numeric_limits@I@std@@2HB		; std::numeric_limits<unsigned int>::digits10
PUBLIC	?max_digits10@?$numeric_limits@I@std@@2HB	; std::numeric_limits<unsigned int>::max_digits10
PUBLIC	?is_signed@?$numeric_limits@J@std@@2_NB		; std::numeric_limits<long>::is_signed
PUBLIC	?digits@?$numeric_limits@J@std@@2HB		; std::numeric_limits<long>::digits
PUBLIC	?digits10@?$numeric_limits@J@std@@2HB		; std::numeric_limits<long>::digits10
PUBLIC	?max_digits10@?$numeric_limits@J@std@@2HB	; std::numeric_limits<long>::max_digits10
PUBLIC	?is_signed@?$numeric_limits@K@std@@2_NB		; std::numeric_limits<unsigned long>::is_signed
PUBLIC	?digits@?$numeric_limits@K@std@@2HB		; std::numeric_limits<unsigned long>::digits
PUBLIC	?digits10@?$numeric_limits@K@std@@2HB		; std::numeric_limits<unsigned long>::digits10
PUBLIC	?max_digits10@?$numeric_limits@K@std@@2HB	; std::numeric_limits<unsigned long>::max_digits10
PUBLIC	?is_signed@?$numeric_limits@_J@std@@2_NB	; std::numeric_limits<__int64>::is_signed
PUBLIC	?digits@?$numeric_limits@_J@std@@2HB		; std::numeric_limits<__int64>::digits
PUBLIC	?digits10@?$numeric_limits@_J@std@@2HB		; std::numeric_limits<__int64>::digits10
PUBLIC	?max_digits10@?$numeric_limits@_J@std@@2HB	; std::numeric_limits<__int64>::max_digits10
PUBLIC	?is_signed@?$numeric_limits@_K@std@@2_NB	; std::numeric_limits<unsigned __int64>::is_signed
PUBLIC	?digits@?$numeric_limits@_K@std@@2HB		; std::numeric_limits<unsigned __int64>::digits
PUBLIC	?digits10@?$numeric_limits@_K@std@@2HB		; std::numeric_limits<unsigned __int64>::digits10
PUBLIC	?max_digits10@?$numeric_limits@_K@std@@2HB	; std::numeric_limits<unsigned __int64>::max_digits10
PUBLIC	?digits@?$numeric_limits@M@std@@2HB		; std::numeric_limits<float>::digits
PUBLIC	?digits10@?$numeric_limits@M@std@@2HB		; std::numeric_limits<float>::digits10
PUBLIC	?max_digits10@?$numeric_limits@M@std@@2HB	; std::numeric_limits<float>::max_digits10
PUBLIC	?max_exponent@?$numeric_limits@M@std@@2HB	; std::numeric_limits<float>::max_exponent
PUBLIC	?max_exponent10@?$numeric_limits@M@std@@2HB	; std::numeric_limits<float>::max_exponent10
PUBLIC	?min_exponent@?$numeric_limits@M@std@@2HB	; std::numeric_limits<float>::min_exponent
PUBLIC	?min_exponent10@?$numeric_limits@M@std@@2HB	; std::numeric_limits<float>::min_exponent10
PUBLIC	?digits@?$numeric_limits@N@std@@2HB		; std::numeric_limits<double>::digits
PUBLIC	?digits10@?$numeric_limits@N@std@@2HB		; std::numeric_limits<double>::digits10
PUBLIC	?max_digits10@?$numeric_limits@N@std@@2HB	; std::numeric_limits<double>::max_digits10
PUBLIC	?max_exponent@?$numeric_limits@N@std@@2HB	; std::numeric_limits<double>::max_exponent
PUBLIC	?max_exponent10@?$numeric_limits@N@std@@2HB	; std::numeric_limits<double>::max_exponent10
PUBLIC	?min_exponent@?$numeric_limits@N@std@@2HB	; std::numeric_limits<double>::min_exponent
PUBLIC	?min_exponent10@?$numeric_limits@N@std@@2HB	; std::numeric_limits<double>::min_exponent10
PUBLIC	?digits@?$numeric_limits@O@std@@2HB		; std::numeric_limits<long double>::digits
PUBLIC	?digits10@?$numeric_limits@O@std@@2HB		; std::numeric_limits<long double>::digits10
PUBLIC	?max_digits10@?$numeric_limits@O@std@@2HB	; std::numeric_limits<long double>::max_digits10
PUBLIC	?max_exponent@?$numeric_limits@O@std@@2HB	; std::numeric_limits<long double>::max_exponent
PUBLIC	?max_exponent10@?$numeric_limits@O@std@@2HB	; std::numeric_limits<long double>::max_exponent10
PUBLIC	?min_exponent@?$numeric_limits@O@std@@2HB	; std::numeric_limits<long double>::min_exponent
PUBLIC	?min_exponent10@?$numeric_limits@O@std@@2HB	; std::numeric_limits<long double>::min_exponent10
PUBLIC	?value@?$integral_constant@_N$0A@@tr1@std@@2_NB	; std::tr1::integral_constant<bool,0>::value
PUBLIC	?value@?$integral_constant@_N$00@tr1@std@@2_NB	; std::tr1::integral_constant<bool,1>::value
PUBLIC	?value@?$integral_constant@I$0A@@tr1@std@@2IB	; std::tr1::integral_constant<unsigned int,0>::value
PUBLIC	?_Rank@?$_Arithmetic_traits@_N@std@@2HB		; std::_Arithmetic_traits<bool>::_Rank
PUBLIC	?_Rank@?$_Arithmetic_traits@D@std@@2HB		; std::_Arithmetic_traits<char>::_Rank
PUBLIC	?_Rank@?$_Arithmetic_traits@C@std@@2HB		; std::_Arithmetic_traits<signed char>::_Rank
PUBLIC	?_Rank@?$_Arithmetic_traits@E@std@@2HB		; std::_Arithmetic_traits<unsigned char>::_Rank
PUBLIC	?_Rank@?$_Arithmetic_traits@F@std@@2HB		; std::_Arithmetic_traits<short>::_Rank
PUBLIC	?_Rank@?$_Arithmetic_traits@G@std@@2HB		; std::_Arithmetic_traits<unsigned short>::_Rank
PUBLIC	?_Rank@?$_Arithmetic_traits@H@std@@2HB		; std::_Arithmetic_traits<int>::_Rank
PUBLIC	?_Rank@?$_Arithmetic_traits@I@std@@2HB		; std::_Arithmetic_traits<unsigned int>::_Rank
PUBLIC	?_Rank@?$_Arithmetic_traits@J@std@@2HB		; std::_Arithmetic_traits<long>::_Rank
PUBLIC	?_Rank@?$_Arithmetic_traits@K@std@@2HB		; std::_Arithmetic_traits<unsigned long>::_Rank
PUBLIC	?_Rank@?$_Arithmetic_traits@_J@std@@2HB		; std::_Arithmetic_traits<__int64>::_Rank
PUBLIC	?_Rank@?$_Arithmetic_traits@_K@std@@2HB		; std::_Arithmetic_traits<unsigned __int64>::_Rank
PUBLIC	?_Rank@?$_Arithmetic_traits@M@std@@2HB		; std::_Arithmetic_traits<float>::_Rank
PUBLIC	?_Rank@?$_Arithmetic_traits@N@std@@2HB		; std::_Arithmetic_traits<double>::_Rank
PUBLIC	?_Rank@?$_Arithmetic_traits@O@std@@2HB		; std::_Arithmetic_traits<long double>::_Rank
PUBLIC	?collate@?$_Locbase@H@std@@2HB			; std::_Locbase<int>::collate
PUBLIC	?ctype@?$_Locbase@H@std@@2HB			; std::_Locbase<int>::ctype
PUBLIC	?monetary@?$_Locbase@H@std@@2HB			; std::_Locbase<int>::monetary
PUBLIC	?numeric@?$_Locbase@H@std@@2HB			; std::_Locbase<int>::numeric
PUBLIC	?time@?$_Locbase@H@std@@2HB			; std::_Locbase<int>::time
PUBLIC	?messages@?$_Locbase@H@std@@2HB			; std::_Locbase<int>::messages
PUBLIC	?all@?$_Locbase@H@std@@2HB			; std::_Locbase<int>::all
PUBLIC	?none@?$_Locbase@H@std@@2HB			; std::_Locbase<int>::none
PUBLIC	?table_size@?$ctype@D@std@@2IB			; std::ctype<char>::table_size
PUBLIC	?skipws@?$_Iosb@H@std@@2W4_Fmtflags@12@B	; std::_Iosb<int>::skipws
PUBLIC	?unitbuf@?$_Iosb@H@std@@2W4_Fmtflags@12@B	; std::_Iosb<int>::unitbuf
PUBLIC	?uppercase@?$_Iosb@H@std@@2W4_Fmtflags@12@B	; std::_Iosb<int>::uppercase
PUBLIC	?showbase@?$_Iosb@H@std@@2W4_Fmtflags@12@B	; std::_Iosb<int>::showbase
PUBLIC	?showpoint@?$_Iosb@H@std@@2W4_Fmtflags@12@B	; std::_Iosb<int>::showpoint
PUBLIC	?showpos@?$_Iosb@H@std@@2W4_Fmtflags@12@B	; std::_Iosb<int>::showpos
PUBLIC	?left@?$_Iosb@H@std@@2W4_Fmtflags@12@B		; std::_Iosb<int>::left
PUBLIC	?right@?$_Iosb@H@std@@2W4_Fmtflags@12@B		; std::_Iosb<int>::right
PUBLIC	?internal@?$_Iosb@H@std@@2W4_Fmtflags@12@B	; std::_Iosb<int>::internal
PUBLIC	?dec@?$_Iosb@H@std@@2W4_Fmtflags@12@B		; std::_Iosb<int>::dec
PUBLIC	?oct@?$_Iosb@H@std@@2W4_Fmtflags@12@B		; std::_Iosb<int>::oct
PUBLIC	?hex@?$_Iosb@H@std@@2W4_Fmtflags@12@B		; std::_Iosb<int>::hex
PUBLIC	?scientific@?$_Iosb@H@std@@2W4_Fmtflags@12@B	; std::_Iosb<int>::scientific
PUBLIC	?fixed@?$_Iosb@H@std@@2W4_Fmtflags@12@B		; std::_Iosb<int>::fixed
PUBLIC	?hexfloat@?$_Iosb@H@std@@2W4_Fmtflags@12@B	; std::_Iosb<int>::hexfloat
PUBLIC	?boolalpha@?$_Iosb@H@std@@2W4_Fmtflags@12@B	; std::_Iosb<int>::boolalpha
PUBLIC	?_Stdio@?$_Iosb@H@std@@2W4_Fmtflags@12@B	; std::_Iosb<int>::_Stdio
PUBLIC	?adjustfield@?$_Iosb@H@std@@2W4_Fmtflags@12@B	; std::_Iosb<int>::adjustfield
PUBLIC	?basefield@?$_Iosb@H@std@@2W4_Fmtflags@12@B	; std::_Iosb<int>::basefield
PUBLIC	?floatfield@?$_Iosb@H@std@@2W4_Fmtflags@12@B	; std::_Iosb<int>::floatfield
PUBLIC	?goodbit@?$_Iosb@H@std@@2W4_Iostate@12@B	; std::_Iosb<int>::goodbit
PUBLIC	?eofbit@?$_Iosb@H@std@@2W4_Iostate@12@B		; std::_Iosb<int>::eofbit
PUBLIC	?failbit@?$_Iosb@H@std@@2W4_Iostate@12@B	; std::_Iosb<int>::failbit
PUBLIC	?badbit@?$_Iosb@H@std@@2W4_Iostate@12@B		; std::_Iosb<int>::badbit
PUBLIC	?_Hardfail@?$_Iosb@H@std@@2W4_Iostate@12@B	; std::_Iosb<int>::_Hardfail
PUBLIC	?in@?$_Iosb@H@std@@2W4_Openmode@12@B		; std::_Iosb<int>::in
PUBLIC	?out@?$_Iosb@H@std@@2W4_Openmode@12@B		; std::_Iosb<int>::out
PUBLIC	?ate@?$_Iosb@H@std@@2W4_Openmode@12@B		; std::_Iosb<int>::ate
PUBLIC	?app@?$_Iosb@H@std@@2W4_Openmode@12@B		; std::_Iosb<int>::app
PUBLIC	?trunc@?$_Iosb@H@std@@2W4_Openmode@12@B		; std::_Iosb<int>::trunc
PUBLIC	?_Nocreate@?$_Iosb@H@std@@2W4_Openmode@12@B	; std::_Iosb<int>::_Nocreate
PUBLIC	?_Noreplace@?$_Iosb@H@std@@2W4_Openmode@12@B	; std::_Iosb<int>::_Noreplace
PUBLIC	?binary@?$_Iosb@H@std@@2W4_Openmode@12@B	; std::_Iosb<int>::binary
PUBLIC	?beg@?$_Iosb@H@std@@2W4_Seekdir@12@B		; std::_Iosb<int>::beg
PUBLIC	?cur@?$_Iosb@H@std@@2W4_Seekdir@12@B		; std::_Iosb<int>::cur
PUBLIC	?end@?$_Iosb@H@std@@2W4_Seekdir@12@B		; std::_Iosb<int>::end
PUBLIC	?value@integral_c_tag@mpl@boost@@2HB		; boost::mpl::integral_c_tag::value
PUBLIC	?value@?$bool_@$00@mpl@boost@@2_NB		; boost::mpl::bool_<1>::value
PUBLIC	?value@?$bool_@$0A@@mpl@boost@@2_NB		; boost::mpl::bool_<0>::value
PUBLIC	?value@?$arg@$0?0@mpl@boost@@2HB		; boost::mpl::arg<-1>::value
PUBLIC	?value@?$arg@$00@mpl@boost@@2HB			; boost::mpl::arg<1>::value
PUBLIC	?value@?$arg@$01@mpl@boost@@2HB			; boost::mpl::arg<2>::value
PUBLIC	?value@?$arg@$02@mpl@boost@@2HB			; boost::mpl::arg<3>::value
PUBLIC	?value@?$arg@$03@mpl@boost@@2HB			; boost::mpl::arg<4>::value
PUBLIC	?value@?$arg@$04@mpl@boost@@2HB			; boost::mpl::arg<5>::value
PUBLIC	?value@?$ice_or@$0A@$0A@$0A@$0A@$0A@$0A@$0A@@type_traits@boost@@2_NB ; boost::type_traits::ice_or<0,0,0,0,0,0,0>::value
PUBLIC	?value@?$ice_and@$00$00$00$00$00$00$00@type_traits@boost@@2_NB ; boost::type_traits::ice_and<1,1,1,1,1,1,1>::value
PUBLIC	?value@?$ice_not@$00@type_traits@boost@@2_NB	; boost::type_traits::ice_not<1>::value
PUBLIC	?value@?$is_member_function_pointer_impl@X@detail@boost@@2_NB ; boost::detail::is_member_function_pointer_impl<void>::value
PUBLIC	?value@?$is_member_function_pointer_impl@$$CBX@detail@boost@@2_NB ; boost::detail::is_member_function_pointer_impl<void const >::value
PUBLIC	?value@?$is_member_function_pointer_impl@$$CCX@detail@boost@@2_NB ; boost::detail::is_member_function_pointer_impl<void volatile >::value
PUBLIC	?value@?$is_member_function_pointer_impl@$$CDX@detail@boost@@2_NB ; boost::detail::is_member_function_pointer_impl<void const volatile >::value
PUBLIC	?value@?$int_@$0A@@mpl@boost@@2HB		; boost::mpl::int_<0>::value
PUBLIC	?value@?$int_@$00@mpl@boost@@2HB		; boost::mpl::int_<1>::value
PUBLIC	?value@?$int_@$01@mpl@boost@@2HB		; boost::mpl::int_<2>::value
PUBLIC	?value@?$int_@$02@mpl@boost@@2HB		; boost::mpl::int_<3>::value
PUBLIC	?value@?$int_@$03@mpl@boost@@2HB		; boost::mpl::int_<4>::value
PUBLIC	?value@?$int_@$04@mpl@boost@@2HB		; boost::mpl::int_<5>::value
PUBLIC	?value@?$int_@$05@mpl@boost@@2HB		; boost::mpl::int_<6>::value
PUBLIC	?value@?$int_@$06@mpl@boost@@2HB		; boost::mpl::int_<7>::value
PUBLIC	?value@?$int_@$07@mpl@boost@@2HB		; boost::mpl::int_<8>::value
PUBLIC	?value@?$int_@$08@mpl@boost@@2HB		; boost::mpl::int_<9>::value
PUBLIC	?value@?$int_@$09@mpl@boost@@2HB		; boost::mpl::int_<10>::value
PUBLIC	?value@?$int_@$0L@@mpl@boost@@2HB		; boost::mpl::int_<11>::value
PUBLIC	?value@?$int_@$0M@@mpl@boost@@2HB		; boost::mpl::int_<12>::value
PUBLIC	?value@?$int_@$0N@@mpl@boost@@2HB		; boost::mpl::int_<13>::value
PUBLIC	?value@?$integral_c@I$0A@@mpl@boost@@2IB	; boost::mpl::integral_c<unsigned int,0>::value
PUBLIC	?value@?$is_scalar_impl@X@detail@boost@@2_NB	; boost::detail::is_scalar_impl<void>::value
PUBLIC	?value@?$is_scalar_impl@$$CBX@detail@boost@@2_NB ; boost::detail::is_scalar_impl<void const >::value
PUBLIC	?value@?$is_scalar_impl@$$CCX@detail@boost@@2_NB ; boost::detail::is_scalar_impl<void volatile >::value
PUBLIC	?value@?$is_scalar_impl@$$CDX@detail@boost@@2_NB ; boost::detail::is_scalar_impl<void const volatile >::value
PUBLIC	?value@?$is_pod_impl@X@detail@boost@@2_NB	; boost::detail::is_pod_impl<void>::value
PUBLIC	?value@?$is_pod_impl@$$CBX@detail@boost@@2_NB	; boost::detail::is_pod_impl<void const >::value
PUBLIC	?value@?$is_pod_impl@$$CCX@detail@boost@@2_NB	; boost::detail::is_pod_impl<void volatile >::value
PUBLIC	?value@?$is_pod_impl@$$CDX@detail@boost@@2_NB	; boost::detail::is_pod_impl<void const volatile >::value
PUBLIC	?value@?$alignment_logic@$07$07@detail@boost@@2IB ; boost::detail::alignment_logic<8,8>::value
PUBLIC	?value@?$alignment_of_impl@Tmax_align@detail@boost@@@detail@boost@@2IB ; boost::detail::alignment_of_impl<boost::detail::max_align>::value
PUBLIC	?value@?$integral_c@I$07@mpl@boost@@2IB		; boost::mpl::integral_c<unsigned int,8>::value
PUBLIC	?value@?$alignment_logic@$00$00@detail@boost@@2IB ; boost::detail::alignment_logic<1,1>::value
PUBLIC	?value@?$alignment_of_impl@D@detail@boost@@2IB	; boost::detail::alignment_of_impl<char>::value
PUBLIC	?value@?$integral_c@I$00@mpl@boost@@2IB		; boost::mpl::integral_c<unsigned int,1>::value
PUBLIC	?value@?$alignment_logic@$01$01@detail@boost@@2IB ; boost::detail::alignment_logic<2,2>::value
PUBLIC	?value@?$alignment_of_impl@F@detail@boost@@2IB	; boost::detail::alignment_of_impl<short>::value
PUBLIC	?value@?$integral_c@I$01@mpl@boost@@2IB		; boost::mpl::integral_c<unsigned int,2>::value
PUBLIC	?value@?$alignment_logic@$03$03@detail@boost@@2IB ; boost::detail::alignment_logic<4,4>::value
PUBLIC	?value@?$alignment_of_impl@H@detail@boost@@2IB	; boost::detail::alignment_of_impl<int>::value
PUBLIC	?value@?$integral_c@I$03@mpl@boost@@2IB		; boost::mpl::integral_c<unsigned int,4>::value
PUBLIC	?value@?$alignment_of_impl@J@detail@boost@@2IB	; boost::detail::alignment_of_impl<long>::value
PUBLIC	?value@?$alignment_of_impl@_J@detail@boost@@2IB	; boost::detail::alignment_of_impl<__int64>::value
PUBLIC	?value@?$alignment_of_impl@T?$lower_alignment@$07@detail@boost@@@detail@boost@@2IB ; boost::detail::alignment_of_impl<boost::detail::lower_alignment<8> >::value
PUBLIC	?value@?$is_aligned@$07$07@detail@boost@@2_NB	; boost::detail::is_aligned<8,8>::value
PUBLIC	?found@?$type_with_alignment_imp@$07@detail@boost@@0IB ; boost::detail::type_with_alignment_imp<8>::found
PUBLIC	?value@?$is_pod_impl@Ua8@align@boost@@@detail@boost@@2_NB ; boost::detail::is_pod_impl<boost::align::a8>::value
PUBLIC	?value@?$is_pod_impl@Ua16@align@boost@@@detail@boost@@2_NB ; boost::detail::is_pod_impl<boost::align::a16>::value
PUBLIC	?value@?$is_pod_impl@Ua32@align@boost@@@detail@boost@@2_NB ; boost::detail::is_pod_impl<boost::align::a32>::value
PUBLIC	?value@?$is_pod_impl@Ua64@align@boost@@@detail@boost@@2_NB ; boost::detail::is_pod_impl<boost::align::a64>::value
PUBLIC	?value@?$is_pod_impl@Ua128@align@boost@@@detail@boost@@2_NB ; boost::detail::is_pod_impl<boost::align::a128>::value
PUBLIC	?value@?$length@V?$tuple@Unull_type@tuples@boost@@U123@U123@U123@U123@U123@U123@U123@U123@U123@@tuples@boost@@@tuples@boost@@2HB ; boost::tuples::length<boost::tuples::tuple<boost::tuples::null_type,boost::tuples::null_type,boost::tuples::null_type,boost::tuples::null_type,boost::tuples::null_type,boost::tuples::null_type,boost::tuples::null_type,boost::tuples::null_type,boost::tuples::null_type,boost::tuples::null_type> >::value
PUBLIC	?value@?$length@$$CBV?$tuple@Unull_type@tuples@boost@@U123@U123@U123@U123@U123@U123@U123@U123@U123@@tuples@boost@@@tuples@boost@@2HB ; boost::tuples::length<boost::tuples::tuple<boost::tuples::null_type,boost::tuples::null_type,boost::tuples::null_type,boost::tuples::null_type,boost::tuples::null_type,boost::tuples::null_type,boost::tuples::null_type,boost::tuples::null_type,boost::tuples::null_type,boost::tuples::null_type> const >::value
PUBLIC	?value@?$length@Unull_type@tuples@boost@@@tuples@boost@@2HB ; boost::tuples::length<boost::tuples::null_type>::value
PUBLIC	?value@?$length@$$CBUnull_type@tuples@boost@@@tuples@boost@@2HB ; boost::tuples::length<boost::tuples::null_type const >::value
PUBLIC	?value@?$implementation_level_impl@$$CBVcollection_size_type@serialization@boost@@@serialization@boost@@2HB ; boost::serialization::implementation_level_impl<boost::serialization::collection_size_type const >::value
PUBLIC	?cpp@check@ldexpf_detect@hash_detail@boost@@2_NB ; boost::hash_detail::ldexpf_detect::check::cpp
PUBLIC	?c99@check@ldexpf_detect@hash_detail@boost@@2_NB ; boost::hash_detail::ldexpf_detect::check::c99
PUBLIC	?cpp@check@ldexpl_detect@hash_detail@boost@@2_NB ; boost::hash_detail::ldexpl_detect::check::cpp
PUBLIC	?c99@check@ldexpl_detect@hash_detail@boost@@2_NB ; boost::hash_detail::ldexpl_detect::check::c99
PUBLIC	?cpp@check@frexpf_detect@hash_detail@boost@@2_NB ; boost::hash_detail::frexpf_detect::check::cpp
PUBLIC	?c99@check@frexpf_detect@hash_detail@boost@@2_NB ; boost::hash_detail::frexpf_detect::check::c99
PUBLIC	?cpp@check@frexpl_detect@hash_detail@boost@@2_NB ; boost::hash_detail::frexpl_detect::check::cpp
PUBLIC	?c99@check@frexpl_detect@hash_detail@boost@@2_NB ; boost::hash_detail::frexpl_detect::check::c99
PUBLIC	?value@?$choose_initial_n@$0A@@static_log2_impl@detail@boost@@2HB ; boost::detail::static_log2_impl::choose_initial_n<0>::value
PUBLIC	?value@?$choose_initial_n@$0BA@@static_log2_impl@detail@boost@@2HB ; boost::detail::static_log2_impl::choose_initial_n<16>::value
PUBLIC	?value@?$choose_initial_n@$0CA@@static_log2_impl@detail@boost@@2HB ; boost::detail::static_log2_impl::choose_initial_n<32>::value
PUBLIC	?c@?$choose_initial_n@$0CA@@static_log2_impl@detail@boost@@2_NB ; boost::detail::static_log2_impl::choose_initial_n<32>::c
PUBLIC	?c@?$choose_initial_n@$0BA@@static_log2_impl@detail@boost@@2_NB ; boost::detail::static_log2_impl::choose_initial_n<16>::c
PUBLIC	?value@?$static_log2_impl@$00$0A@@static_log2_impl@detail@boost@@2HB ; boost::detail::static_log2_impl::static_log2_impl<1,0>::value
PUBLIC	?c_bIsMFCDLLTraits@?$_MFCDLLTraitsCheck@DV?$StrTraitMFC@DV?$ChTraitsCRT@D@ATL@@@@@_CSTRING_IMPL_@ATL@@2_NB ; ATL::_CSTRING_IMPL_::_MFCDLLTraitsCheck<char,StrTraitMFC<char,ATL::ChTraitsCRT<char> > >::c_bIsMFCDLLTraits
PUBLIC	?is_const@?$cv_traits_imp@PAUvalue_marker@detail@flyweights@boost@@@detail@boost@@2_NB ; boost::detail::cv_traits_imp<boost::flyweights::detail::value_marker *>::is_const
PUBLIC	?is_volatile@?$cv_traits_imp@PAUvalue_marker@detail@flyweights@boost@@@detail@boost@@2_NB ; boost::detail::cv_traits_imp<boost::flyweights::detail::value_marker *>::is_volatile
PUBLIC	?is_const@?$cv_traits_imp@PAVCRect@@@detail@boost@@2_NB ; boost::detail::cv_traits_imp<CRect *>::is_const
PUBLIC	?is_volatile@?$cv_traits_imp@PAVCRect@@@detail@boost@@2_NB ; boost::detail::cv_traits_imp<CRect *>::is_volatile
PUBLIC	?value@?$is_base_and_derived_impl@Uvalue_marker@detail@flyweights@boost@@VCRect@@@detail@boost@@2_NB ; boost::detail::is_base_and_derived_impl<boost::flyweights::detail::value_marker,CRect>::value
PUBLIC	?value@?$is_reference_impl@Uno_locking@flyweights@boost@@@detail@boost@@2_NB ; boost::detail::is_reference_impl<boost::flyweights::no_locking>::value
PUBLIC	?p@?$assert_arg_pred_not@U?$is_na@Uno_locking@flyweights@boost@@@mpl@boost@@@mpl@boost@@2_NB ; boost::mpl::assert_arg_pred_not<boost::mpl::is_na<boost::flyweights::no_locking> >::p
PUBLIC	?mpl_assertion_in_line_1@?$apply@Uno_locking@flyweights@boost@@Uempty_arg_list@aux@parameter@3@Una@mpl@3@U783@U783@@?$arg@$00@mpl@boost@@2IB ; boost::mpl::arg<1>::apply<boost::flyweights::no_locking,boost::parameter::aux::empty_arg_list,boost::mpl::na,boost::mpl::na,boost::mpl::na>::mpl_assertion_in_line_1
PUBLIC	?is_const@?$cv_traits_imp@PAUtag_marker@detail@flyweights@boost@@@detail@boost@@2_NB ; boost::detail::cv_traits_imp<boost::flyweights::detail::tag_marker *>::is_const
PUBLIC	?is_volatile@?$cv_traits_imp@PAUtag_marker@detail@flyweights@boost@@@detail@boost@@2_NB ; boost::detail::cv_traits_imp<boost::flyweights::detail::tag_marker *>::is_volatile
PUBLIC	?is_const@?$cv_traits_imp@PAUno_locking@flyweights@boost@@@detail@boost@@2_NB ; boost::detail::cv_traits_imp<boost::flyweights::no_locking *>::is_const
PUBLIC	?is_volatile@?$cv_traits_imp@PAUno_locking@flyweights@boost@@@detail@boost@@2_NB ; boost::detail::cv_traits_imp<boost::flyweights::no_locking *>::is_volatile
PUBLIC	?value@?$is_base_and_derived_impl@Utag_marker@detail@flyweights@boost@@Uno_locking@34@@detail@boost@@2_NB ; boost::detail::is_base_and_derived_impl<boost::flyweights::detail::tag_marker,boost::flyweights::no_locking>::value
PUBLIC	?value@?$has_type_impl_@U?$is_tag@Uno_locking@flyweights@boost@@@detail@flyweights@boost@@X@aux@mpl@boost@@2_NB ; boost::mpl::aux::has_type_impl_<boost::flyweights::detail::is_tag<boost::flyweights::no_locking>,void>::value
PUBLIC	?p@?$assert_arg_pred_not@U?$not_@U?$and_@U?$integral_constant@_N$0A@@boost@@U?$has_key_@U?$set0@Una@mpl@boost@@@mpl@boost@@U?$tag@Uvoid_@parameter@boost@@@flyweights@3@@aux@parameter@2@U?$bool_@$00@mpl@2@U672@U672@@mpl@boost@@@mpl@boost@@@mpl@boost@@2_NB ; boost::mpl::assert_arg_pred_not<boost::mpl::not_<boost::mpl::and_<boost::integral_constant<bool,0>,boost::parameter::aux::has_key_<boost::mpl::set0<boost::mpl::na>,boost::flyweights::tag<boost::parameter::void_> >,boost::mpl::bool_<1>,boost::mpl::bool_<1>,boost::mpl::bool_<1> > > >::p
PUBLIC	?mpl_assertion_in_line_10@?$deduce_tag0@Uno_locking@flyweights@boost@@Uempty_arg_list@aux@parameter@3@U?$deduced_item@U?$optional@U?$deduced@U?$tag@Uvoid_@parameter@boost@@@flyweights@boost@@@parameter@boost@@U?$is_tag@U?$arg@$0?0@mpl@boost@@@detail@flyweights@3@@parameter@boost@@U?$deduced_item@U?$optional@U?$deduced@U?$tracking@Uvoid_@parameter@boost@@@flyweights@boost@@@parameter@boost@@U?$is_tracking@U?$arg@$0?0@mpl@boost@@@flyweights@3@@parameter@boost@@U?$deduced_item@U?$optional@U?$deduced@U?$factory@Uvoid_@parameter@boost@@@flyweights@boost@@@parameter@boost@@U?$is_factory@U?$arg@$0?0@mpl@boost@@@flyweights@3@@parameter@boost@@U?$deduced_item@U?$optional@U?$deduced@U?$locking@Uvoid_@parameter@boost@@@flyweights@boost@@@parameter@boost@@U?$is_locking@U?$arg@$0?0@mpl@boost@@@flyweights@3@@parameter@boost@@U?$deduced_item@U?$optional@U?$deduced@U?$holder@Uvoid_@parameter@boost@@@flyweights@boost@@@parameter@boost@@U?$is_holder@U?$arg@$0?0@mpl@boost@@@flyweights@3@@parameter@boost@@Uvoid_@23@@aux@23@@aux@23@@aux@23@@aux@23@@563@U?$set0@Una@mpl@boost@@@mpl@3@Utag_template_keyword_arg@563@@aux@parameter@boost@@2IB ; boost::parameter::aux::deduce_tag0<boost::flyweights::no_locking,boost::parameter::aux::empty_arg_list,boost::parameter::aux::deduced_item<boost::parameter::optional<boost::parameter::deduced<boost::flyweights::tag<boost::parameter::void_> >,boost::flyweights::detail::is_tag<boost::mpl::arg<-1> > >,boost::parameter::aux::deduced_item<boost::parameter::optional<boost::parameter::deduced<boost::flyweights::tracking<boost::parameter::void_> >,boost::flyweights::is_tracking<boost::mpl::arg<-1> > >,boost::parameter::aux::deduced_item<boost::parameter::optional<boost::parameter::deduced<boost::flyweights::factory<boost::parameter::void_> >,boost::flyweights::is_factory<boost::mpl::arg<-1> > >,boost::parameter::aux::deduced_item<boost::parameter::optional<boost::parameter::deduced<boost::flyweights::locking<boost::parameter::void_> >,boost::flyweights::is_locking<boost::mpl::arg<-1> > >,boost::parameter::aux::deduced_item<boost::parameter::optional<boost::parameter::deduced<boost::flyweights::holder<boost::parameter::void_> >,boost::flyweights::is_holder<boost::mpl::arg<-1> > >,boost::parameter::void_> > > > >,boost::mpl::set0<boost::mpl::na>,boost::parameter::aux::tag_template_keyword_arg>::mpl_assertion_in_line_10
PUBLIC	?is_const@?$cv_traits_imp@PAUtracking_marker@flyweights@boost@@@detail@boost@@2_NB ; boost::detail::cv_traits_imp<boost::flyweights::tracking_marker *>::is_const
PUBLIC	?is_volatile@?$cv_traits_imp@PAUtracking_marker@flyweights@boost@@@detail@boost@@2_NB ; boost::detail::cv_traits_imp<boost::flyweights::tracking_marker *>::is_volatile
PUBLIC	?value@?$is_base_and_derived_impl@Utracking_marker@flyweights@boost@@Uno_locking@23@@detail@boost@@2_NB ; boost::detail::is_base_and_derived_impl<boost::flyweights::tracking_marker,boost::flyweights::no_locking>::value
PUBLIC	?value@?$has_type_impl_@U?$is_tracking@Uno_locking@flyweights@boost@@@flyweights@boost@@X@aux@mpl@boost@@2_NB ; boost::mpl::aux::has_type_impl_<boost::flyweights::is_tracking<boost::flyweights::no_locking>,void>::value
PUBLIC	?p@?$assert_arg_pred_not@U?$not_@U?$and_@U?$integral_constant@_N$0A@@boost@@U?$has_key_@U?$set0@Una@mpl@boost@@@mpl@boost@@U?$tracking@Uvoid_@parameter@boost@@@flyweights@3@@aux@parameter@2@U?$bool_@$00@mpl@2@U672@U672@@mpl@boost@@@mpl@boost@@@mpl@boost@@2_NB ; boost::mpl::assert_arg_pred_not<boost::mpl::not_<boost::mpl::and_<boost::integral_constant<bool,0>,boost::parameter::aux::has_key_<boost::mpl::set0<boost::mpl::na>,boost::flyweights::tracking<boost::parameter::void_> >,boost::mpl::bool_<1>,boost::mpl::bool_<1>,boost::mpl::bool_<1> > > >::p
PUBLIC	?mpl_assertion_in_line_10@?$deduce_tag0@Uno_locking@flyweights@boost@@Uempty_arg_list@aux@parameter@3@U?$deduced_item@U?$optional@U?$deduced@U?$tracking@Uvoid_@parameter@boost@@@flyweights@boost@@@parameter@boost@@U?$is_tracking@U?$arg@$0?0@mpl@boost@@@flyweights@3@@parameter@boost@@U?$deduced_item@U?$optional@U?$deduced@U?$factory@Uvoid_@parameter@boost@@@flyweights@boost@@@parameter@boost@@U?$is_factory@U?$arg@$0?0@mpl@boost@@@flyweights@3@@parameter@boost@@U?$deduced_item@U?$optional@U?$deduced@U?$locking@Uvoid_@parameter@boost@@@flyweights@boost@@@parameter@boost@@U?$is_locking@U?$arg@$0?0@mpl@boost@@@flyweights@3@@parameter@boost@@U?$deduced_item@U?$optional@U?$deduced@U?$holder@Uvoid_@parameter@boost@@@flyweights@boost@@@parameter@boost@@U?$is_holder@U?$arg@$0?0@mpl@boost@@@flyweights@3@@parameter@boost@@Uvoid_@23@@aux@23@@aux@23@@aux@23@@563@U?$set0@Una@mpl@boost@@@mpl@3@Utag_template_keyword_arg@563@@aux@parameter@boost@@2IB ; boost::parameter::aux::deduce_tag0<boost::flyweights::no_locking,boost::parameter::aux::empty_arg_list,boost::parameter::aux::deduced_item<boost::parameter::optional<boost::parameter::deduced<boost::flyweights::tracking<boost::parameter::void_> >,boost::flyweights::is_tracking<boost::mpl::arg<-1> > >,boost::parameter::aux::deduced_item<boost::parameter::optional<boost::parameter::deduced<boost::flyweights::factory<boost::parameter::void_> >,boost::flyweights::is_factory<boost::mpl::arg<-1> > >,boost::parameter::aux::deduced_item<boost::parameter::optional<boost::parameter::deduced<boost::flyweights::locking<boost::parameter::void_> >,boost::flyweights::is_locking<boost::mpl::arg<-1> > >,boost::parameter::aux::deduced_item<boost::parameter::optional<boost::parameter::deduced<boost::flyweights::holder<boost::parameter::void_> >,boost::flyweights::is_holder<boost::mpl::arg<-1> > >,boost::parameter::void_> > > >,boost::mpl::set0<boost::mpl::na>,boost::parameter::aux::tag_template_keyword_arg>::mpl_assertion_in_line_10
PUBLIC	?is_const@?$cv_traits_imp@PAUfactory_marker@flyweights@boost@@@detail@boost@@2_NB ; boost::detail::cv_traits_imp<boost::flyweights::factory_marker *>::is_const
PUBLIC	?is_volatile@?$cv_traits_imp@PAUfactory_marker@flyweights@boost@@@detail@boost@@2_NB ; boost::detail::cv_traits_imp<boost::flyweights::factory_marker *>::is_volatile
PUBLIC	?value@?$is_base_and_derived_impl@Ufactory_marker@flyweights@boost@@Uno_locking@23@@detail@boost@@2_NB ; boost::detail::is_base_and_derived_impl<boost::flyweights::factory_marker,boost::flyweights::no_locking>::value
PUBLIC	?value@?$has_type_impl_@U?$is_factory@Uno_locking@flyweights@boost@@@flyweights@boost@@X@aux@mpl@boost@@2_NB ; boost::mpl::aux::has_type_impl_<boost::flyweights::is_factory<boost::flyweights::no_locking>,void>::value
PUBLIC	?p@?$assert_arg_pred_not@U?$not_@U?$and_@U?$integral_constant@_N$0A@@boost@@U?$has_key_@U?$set0@Una@mpl@boost@@@mpl@boost@@U?$factory@Uvoid_@parameter@boost@@@flyweights@3@@aux@parameter@2@U?$bool_@$00@mpl@2@U672@U672@@mpl@boost@@@mpl@boost@@@mpl@boost@@2_NB ; boost::mpl::assert_arg_pred_not<boost::mpl::not_<boost::mpl::and_<boost::integral_constant<bool,0>,boost::parameter::aux::has_key_<boost::mpl::set0<boost::mpl::na>,boost::flyweights::factory<boost::parameter::void_> >,boost::mpl::bool_<1>,boost::mpl::bool_<1>,boost::mpl::bool_<1> > > >::p
PUBLIC	?mpl_assertion_in_line_10@?$deduce_tag0@Uno_locking@flyweights@boost@@Uempty_arg_list@aux@parameter@3@U?$deduced_item@U?$optional@U?$deduced@U?$factory@Uvoid_@parameter@boost@@@flyweights@boost@@@parameter@boost@@U?$is_factory@U?$arg@$0?0@mpl@boost@@@flyweights@3@@parameter@boost@@U?$deduced_item@U?$optional@U?$deduced@U?$locking@Uvoid_@parameter@boost@@@flyweights@boost@@@parameter@boost@@U?$is_locking@U?$arg@$0?0@mpl@boost@@@flyweights@3@@parameter@boost@@U?$deduced_item@U?$optional@U?$deduced@U?$holder@Uvoid_@parameter@boost@@@flyweights@boost@@@parameter@boost@@U?$is_holder@U?$arg@$0?0@mpl@boost@@@flyweights@3@@parameter@boost@@Uvoid_@23@@aux@23@@aux@23@@563@U?$set0@Una@mpl@boost@@@mpl@3@Utag_template_keyword_arg@563@@aux@parameter@boost@@2IB ; boost::parameter::aux::deduce_tag0<boost::flyweights::no_locking,boost::parameter::aux::empty_arg_list,boost::parameter::aux::deduced_item<boost::parameter::optional<boost::parameter::deduced<boost::flyweights::factory<boost::parameter::void_> >,boost::flyweights::is_factory<boost::mpl::arg<-1> > >,boost::parameter::aux::deduced_item<boost::parameter::optional<boost::parameter::deduced<boost::flyweights::locking<boost::parameter::void_> >,boost::flyweights::is_locking<boost::mpl::arg<-1> > >,boost::parameter::aux::deduced_item<boost::parameter::optional<boost::parameter::deduced<boost::flyweights::holder<boost::parameter::void_> >,boost::flyweights::is_holder<boost::mpl::arg<-1> > >,boost::parameter::void_> > >,boost::mpl::set0<boost::mpl::na>,boost::parameter::aux::tag_template_keyword_arg>::mpl_assertion_in_line_10
PUBLIC	?is_const@?$cv_traits_imp@PAUlocking_marker@flyweights@boost@@@detail@boost@@2_NB ; boost::detail::cv_traits_imp<boost::flyweights::locking_marker *>::is_const
PUBLIC	?is_volatile@?$cv_traits_imp@PAUlocking_marker@flyweights@boost@@@detail@boost@@2_NB ; boost::detail::cv_traits_imp<boost::flyweights::locking_marker *>::is_volatile
PUBLIC	?value@?$is_base_and_derived_impl@Ulocking_marker@flyweights@boost@@Uno_locking@23@@detail@boost@@2_NB ; boost::detail::is_base_and_derived_impl<boost::flyweights::locking_marker,boost::flyweights::no_locking>::value
PUBLIC	?value@?$has_type_impl_@U?$is_locking@Uno_locking@flyweights@boost@@@flyweights@boost@@X@aux@mpl@boost@@2_NB ; boost::mpl::aux::has_type_impl_<boost::flyweights::is_locking<boost::flyweights::no_locking>,void>::value
PUBLIC	?value@?$has_tag_impl_@U?$set0@Una@mpl@boost@@@mpl@boost@@X@aux@mpl@boost@@2_NB ; boost::mpl::aux::has_tag_impl_<boost::mpl::set0<boost::mpl::na>,void>::value
PUBLIC	?value@?$has_begin_impl_@U?$set0@Una@mpl@boost@@@mpl@boost@@X@aux@mpl@boost@@2_NB ; boost::mpl::aux::has_begin_impl_<boost::mpl::set0<boost::mpl::na>,void>::value
PUBLIC	?value@?$apply@U?$set0@Una@mpl@boost@@@mpl@boost@@U?$locking@Uvoid_@parameter@boost@@@flyweights@3@@?$has_key_impl@Uset_tag@aux@mpl@boost@@@mpl@boost@@2_NB ; boost::mpl::has_key_impl<boost::mpl::aux::set_tag>::apply<boost::mpl::set0<boost::mpl::na>,boost::flyweights::locking<boost::parameter::void_> >::value
PUBLIC	?p@?$assert_arg_pred_not@U?$not_@U?$and_@U?$integral_constant@_N$00@boost@@U?$has_key_@U?$set0@Una@mpl@boost@@@mpl@boost@@U?$locking@Uvoid_@parameter@boost@@@flyweights@3@@aux@parameter@2@U?$bool_@$00@mpl@2@U672@U672@@mpl@boost@@@mpl@boost@@@mpl@boost@@2_NB ; boost::mpl::assert_arg_pred_not<boost::mpl::not_<boost::mpl::and_<boost::integral_constant<bool,1>,boost::parameter::aux::has_key_<boost::mpl::set0<boost::mpl::na>,boost::flyweights::locking<boost::parameter::void_> >,boost::mpl::bool_<1>,boost::mpl::bool_<1>,boost::mpl::bool_<1> > > >::p
PUBLIC	?mpl_assertion_in_line_10@?$deduce_tag0@Uno_locking@flyweights@boost@@Uempty_arg_list@aux@parameter@3@U?$deduced_item@U?$optional@U?$deduced@U?$locking@Uvoid_@parameter@boost@@@flyweights@boost@@@parameter@boost@@U?$is_locking@U?$arg@$0?0@mpl@boost@@@flyweights@3@@parameter@boost@@U?$deduced_item@U?$optional@U?$deduced@U?$holder@Uvoid_@parameter@boost@@@flyweights@boost@@@parameter@boost@@U?$is_holder@U?$arg@$0?0@mpl@boost@@@flyweights@3@@parameter@boost@@Uvoid_@23@@aux@23@@563@U?$set0@Una@mpl@boost@@@mpl@3@Utag_template_keyword_arg@563@@aux@parameter@boost@@2IB ; boost::parameter::aux::deduce_tag0<boost::flyweights::no_locking,boost::parameter::aux::empty_arg_list,boost::parameter::aux::deduced_item<boost::parameter::optional<boost::parameter::deduced<boost::flyweights::locking<boost::parameter::void_> >,boost::flyweights::is_locking<boost::mpl::arg<-1> > >,boost::parameter::aux::deduced_item<boost::parameter::optional<boost::parameter::deduced<boost::flyweights::holder<boost::parameter::void_> >,boost::flyweights::is_holder<boost::mpl::arg<-1> > >,boost::parameter::void_> >,boost::mpl::set0<boost::mpl::na>,boost::parameter::aux::tag_template_keyword_arg>::mpl_assertion_in_line_10
PUBLIC	?is_const@?$cv_traits_imp@PAUmaybe_base@aux@parameter@boost@@@detail@boost@@2_NB ; boost::detail::cv_traits_imp<boost::parameter::aux::maybe_base *>::is_const
PUBLIC	?is_volatile@?$cv_traits_imp@PAUmaybe_base@aux@parameter@boost@@@detail@boost@@2_NB ; boost::detail::cv_traits_imp<boost::parameter::aux::maybe_base *>::is_volatile
PUBLIC	?value@?$is_base_and_derived_impl@Umaybe_base@aux@parameter@boost@@Uno_locking@flyweights@4@@detail@boost@@2_NB ; boost::detail::is_base_and_derived_impl<boost::parameter::aux::maybe_base,boost::flyweights::no_locking>::value
PUBLIC	?mpl_assertion_in_line_6@?$arg_list@U?$template_keyword@U?$locking@Uvoid_@parameter@boost@@@flyweights@boost@@Uno_locking@23@@parameter@boost@@Uempty_arg_list@aux@23@@aux@parameter@boost@@2IB ; boost::parameter::aux::arg_list<boost::parameter::template_keyword<boost::flyweights::locking<boost::parameter::void_>,boost::flyweights::no_locking>,boost::parameter::aux::empty_arg_list>::mpl_assertion_in_line_6
PUBLIC	?p@?$assert_arg_pred_not@U?$and_@U?$is_same@Una@mpl@boost@@Uvoid_@parameter@3@@boost@@U12@U?$bool_@$00@mpl@2@U342@U342@@mpl@boost@@@mpl@boost@@2_NB ; boost::mpl::assert_arg_pred_not<boost::mpl::and_<boost::is_same<boost::mpl::na,boost::parameter::void_>,boost::is_same<boost::mpl::na,boost::parameter::void_>,boost::mpl::bool_<1>,boost::mpl::bool_<1>,boost::mpl::bool_<1> > >::p
PUBLIC	?mpl_assertion_in_line_11@?$binding@U?$arg_list@U?$template_keyword@U?$locking@Uvoid_@parameter@boost@@@flyweights@boost@@Uno_locking@23@@parameter@boost@@Uempty_arg_list@aux@23@@aux@parameter@boost@@U?$tag@Uvoid_@parameter@boost@@@flyweights@4@Una@mpl@4@@parameter@boost@@2IB ; boost::parameter::binding<boost::parameter::aux::arg_list<boost::parameter::template_keyword<boost::flyweights::locking<boost::parameter::void_>,boost::flyweights::no_locking>,boost::parameter::aux::empty_arg_list>,boost::flyweights::tag<boost::parameter::void_>,boost::mpl::na>::mpl_assertion_in_line_11
PUBLIC	?p@?$assert_arg_pred_not@U?$and_@U?$is_same@Urefcounted@flyweights@boost@@Uvoid_@parameter@3@@boost@@U12@U?$bool_@$00@mpl@2@U342@U342@@mpl@boost@@@mpl@boost@@2_NB ; boost::mpl::assert_arg_pred_not<boost::mpl::and_<boost::is_same<boost::flyweights::refcounted,boost::parameter::void_>,boost::is_same<boost::flyweights::refcounted,boost::parameter::void_>,boost::mpl::bool_<1>,boost::mpl::bool_<1>,boost::mpl::bool_<1> > >::p
PUBLIC	?mpl_assertion_in_line_11@?$binding@U?$arg_list@U?$template_keyword@U?$locking@Uvoid_@parameter@boost@@@flyweights@boost@@Uno_locking@23@@parameter@boost@@Uempty_arg_list@aux@23@@aux@parameter@boost@@U?$tracking@Uvoid_@parameter@boost@@@flyweights@4@Urefcounted@64@@parameter@boost@@2IB ; boost::parameter::binding<boost::parameter::aux::arg_list<boost::parameter::template_keyword<boost::flyweights::locking<boost::parameter::void_>,boost::flyweights::no_locking>,boost::parameter::aux::empty_arg_list>,boost::flyweights::tracking<boost::parameter::void_>,boost::flyweights::refcounted>::mpl_assertion_in_line_11
PUBLIC	?p@?$assert_arg_pred_not@U?$and_@U?$is_same@U?$hashed_factory@Una@mpl@boost@@U123@U123@$0A@@flyweights@boost@@Uvoid_@parameter@3@@boost@@U12@U?$bool_@$00@mpl@2@U342@U342@@mpl@boost@@@mpl@boost@@2_NB ; boost::mpl::assert_arg_pred_not<boost::mpl::and_<boost::is_same<boost::flyweights::hashed_factory<boost::mpl::na,boost::mpl::na,boost::mpl::na,0>,boost::parameter::void_>,boost::is_same<boost::flyweights::hashed_factory<boost::mpl::na,boost::mpl::na,boost::mpl::na,0>,boost::parameter::void_>,boost::mpl::bool_<1>,boost::mpl::bool_<1>,boost::mpl::bool_<1> > >::p
PUBLIC	?mpl_assertion_in_line_11@?$binding@U?$arg_list@U?$template_keyword@U?$locking@Uvoid_@parameter@boost@@@flyweights@boost@@Uno_locking@23@@parameter@boost@@Uempty_arg_list@aux@23@@aux@parameter@boost@@U?$factory@Uvoid_@parameter@boost@@@flyweights@4@U?$hashed_factory@Una@mpl@boost@@U123@U123@$0A@@64@@parameter@boost@@2IB ; boost::parameter::binding<boost::parameter::aux::arg_list<boost::parameter::template_keyword<boost::flyweights::locking<boost::parameter::void_>,boost::flyweights::no_locking>,boost::parameter::aux::empty_arg_list>,boost::flyweights::factory<boost::parameter::void_>,boost::flyweights::hashed_factory<boost::mpl::na,boost::mpl::na,boost::mpl::na,0> >::mpl_assertion_in_line_11
PUBLIC	?p@?$assert_arg_pred_not@U?$and_@U?$is_same@Usimple_locking@flyweights@boost@@Uvoid_@parameter@3@@boost@@U?$is_same@Uno_locking@flyweights@boost@@Uvoid_@parameter@3@@2@U?$bool_@$00@mpl@2@U452@U452@@mpl@boost@@@mpl@boost@@2_NB ; boost::mpl::assert_arg_pred_not<boost::mpl::and_<boost::is_same<boost::flyweights::simple_locking,boost::parameter::void_>,boost::is_same<boost::flyweights::no_locking,boost::parameter::void_>,boost::mpl::bool_<1>,boost::mpl::bool_<1>,boost::mpl::bool_<1> > >::p
PUBLIC	?mpl_assertion_in_line_11@?$binding@U?$arg_list@U?$template_keyword@U?$locking@Uvoid_@parameter@boost@@@flyweights@boost@@Uno_locking@23@@parameter@boost@@Uempty_arg_list@aux@23@@aux@parameter@boost@@U?$locking@Uvoid_@parameter@boost@@@flyweights@4@Usimple_locking@64@@parameter@boost@@2IB ; boost::parameter::binding<boost::parameter::aux::arg_list<boost::parameter::template_keyword<boost::flyweights::locking<boost::parameter::void_>,boost::flyweights::no_locking>,boost::parameter::aux::empty_arg_list>,boost::flyweights::locking<boost::parameter::void_>,boost::flyweights::simple_locking>::mpl_assertion_in_line_11
PUBLIC	?p@?$assert_arg_pred_not@U?$and_@U?$is_same@Ustatic_holder@flyweights@boost@@Uvoid_@parameter@3@@boost@@U12@U?$bool_@$00@mpl@2@U342@U342@@mpl@boost@@@mpl@boost@@2_NB ; boost::mpl::assert_arg_pred_not<boost::mpl::and_<boost::is_same<boost::flyweights::static_holder,boost::parameter::void_>,boost::is_same<boost::flyweights::static_holder,boost::parameter::void_>,boost::mpl::bool_<1>,boost::mpl::bool_<1>,boost::mpl::bool_<1> > >::p
PUBLIC	?mpl_assertion_in_line_11@?$binding@U?$arg_list@U?$template_keyword@U?$locking@Uvoid_@parameter@boost@@@flyweights@boost@@Uno_locking@23@@parameter@boost@@Uempty_arg_list@aux@23@@aux@parameter@boost@@U?$holder@Uvoid_@parameter@boost@@@flyweights@4@Ustatic_holder@64@@parameter@boost@@2IB ; boost::parameter::binding<boost::parameter::aux::arg_list<boost::parameter::template_keyword<boost::flyweights::locking<boost::parameter::void_>,boost::flyweights::no_locking>,boost::parameter::aux::empty_arg_list>,boost::flyweights::holder<boost::parameter::void_>,boost::flyweights::static_holder>::mpl_assertion_in_line_11
PUBLIC	?is_const@?$cv_traits_imp@PAUholder_marker@flyweights@boost@@@detail@boost@@2_NB ; boost::detail::cv_traits_imp<boost::flyweights::holder_marker *>::is_const
PUBLIC	?is_volatile@?$cv_traits_imp@PAUholder_marker@flyweights@boost@@@detail@boost@@2_NB ; boost::detail::cv_traits_imp<boost::flyweights::holder_marker *>::is_volatile
PUBLIC	?value@?$is_base_and_derived_impl@Uholder_marker@flyweights@boost@@Uno_locking@23@@detail@boost@@2_NB ; boost::detail::is_base_and_derived_impl<boost::flyweights::holder_marker,boost::flyweights::no_locking>::value
PUBLIC	?value@?$has_type_impl_@U?$is_holder@Uno_locking@flyweights@boost@@@flyweights@boost@@X@aux@mpl@boost@@2_NB ; boost::mpl::aux::has_type_impl_<boost::flyweights::is_holder<boost::flyweights::no_locking>,void>::value
PUBLIC	?value@?$has_type_impl_@U?$or_@U?$integral_constant@_N$0A@@boost@@U12@U12@U?$integral_constant@_N$00@2@U12@@mpl@boost@@X@aux@mpl@boost@@2_NB ; boost::mpl::aux::has_type_impl_<boost::mpl::or_<boost::integral_constant<bool,0>,boost::integral_constant<bool,0>,boost::integral_constant<bool,0>,boost::integral_constant<bool,1>,boost::integral_constant<bool,0> >,void>::value
PUBLIC	?value@?$has_type_impl_@U?$not_@U?$bool_@$00@mpl@boost@@@mpl@boost@@X@aux@mpl@boost@@2_NB ; boost::mpl::aux::has_type_impl_<boost::mpl::not_<boost::mpl::bool_<1> >,void>::value
PUBLIC	?p@?$assert_arg_pred_not@U?$not_@U?$and_@U?$bool_@$0A@@mpl@boost@@U?$has_key_@U?$set0@Una@mpl@boost@@@mpl@boost@@Uunmatched_arg@detail@flyweights@3@@aux@parameter@3@U?$bool_@$00@23@U723@U723@@mpl@boost@@@mpl@boost@@@mpl@boost@@2_NB ; boost::mpl::assert_arg_pred_not<boost::mpl::not_<boost::mpl::and_<boost::mpl::bool_<0>,boost::parameter::aux::has_key_<boost::mpl::set0<boost::mpl::na>,boost::flyweights::detail::unmatched_arg>,boost::mpl::bool_<1>,boost::mpl::bool_<1>,boost::mpl::bool_<1> > > >::p
PUBLIC	?mpl_assertion_in_line_10@?$deduce_tag0@Uno_locking@flyweights@boost@@Uempty_arg_list@aux@parameter@3@U?$deduced_item@U?$optional@U?$deduced@Uunmatched_arg@detail@flyweights@boost@@@parameter@boost@@U?$not_@U?$or_@U?$is_tag@U?$arg@$0?0@mpl@boost@@@detail@flyweights@boost@@U?$is_tracking@U?$arg@$0?0@mpl@boost@@@34@U?$is_factory@U?$arg@$0?0@mpl@boost@@@34@U?$is_locking@U?$arg@$0?0@mpl@boost@@@34@U?$is_holder@U?$arg@$0?0@mpl@boost@@@34@@mpl@boost@@@mpl@3@@parameter@boost@@Uvoid_@23@@563@U?$set0@Una@mpl@boost@@@mpl@3@Utag_template_keyword_arg@563@@aux@parameter@boost@@2IB ; boost::parameter::aux::deduce_tag0<boost::flyweights::no_locking,boost::parameter::aux::empty_arg_list,boost::parameter::aux::deduced_item<boost::parameter::optional<boost::parameter::deduced<boost::flyweights::detail::unmatched_arg>,boost::mpl::not_<boost::mpl::or_<boost::flyweights::detail::is_tag<boost::mpl::arg<-1> >,boost::flyweights::is_tracking<boost::mpl::arg<-1> >,boost::flyweights::is_factory<boost::mpl::arg<-1> >,boost::flyweights::is_locking<boost::mpl::arg<-1> >,boost::flyweights::is_holder<boost::mpl::arg<-1> > > > >,boost::parameter::void_>,boost::mpl::set0<boost::mpl::na>,boost::parameter::aux::tag_template_keyword_arg>::mpl_assertion_in_line_10
PUBLIC	?p@?$assert_arg_pred_not@U?$and_@U?$is_same@Uunmatched_arg@detail@flyweights@boost@@Uvoid_@parameter@4@@boost@@U12@U?$bool_@$00@mpl@2@U342@U342@@mpl@boost@@@mpl@boost@@2_NB ; boost::mpl::assert_arg_pred_not<boost::mpl::and_<boost::is_same<boost::flyweights::detail::unmatched_arg,boost::parameter::void_>,boost::is_same<boost::flyweights::detail::unmatched_arg,boost::parameter::void_>,boost::mpl::bool_<1>,boost::mpl::bool_<1>,boost::mpl::bool_<1> > >::p
PUBLIC	?mpl_assertion_in_line_11@?$binding@Uempty_arg_list@aux@parameter@boost@@Uunmatched_arg@detail@flyweights@4@U5674@@parameter@boost@@2IB ; boost::parameter::binding<boost::parameter::aux::empty_arg_list,boost::flyweights::detail::unmatched_arg,boost::flyweights::detail::unmatched_arg>::mpl_assertion_in_line_11
PUBLIC	?mpl_assertion_in_line_12@?$flyweight@VCRect@@Uno_locking@flyweights@boost@@Uvoid_@parameter@4@U564@U564@U564@@flyweights@boost@@0IB ; boost::flyweights::flyweight<CRect,boost::flyweights::no_locking,boost::parameter::void_,boost::parameter::void_,boost::parameter::void_,boost::parameter::void_>::mpl_assertion_in_line_12
PUBLIC	?p@?$assert_arg_pred_not@U?$is_na@V?$refcounted_value@Urep_type@?$default_value_policy@VCRect@@@detail@flyweights@boost@@VCRect@@@detail@flyweights@boost@@@mpl@boost@@@mpl@boost@@2_NB ; boost::mpl::assert_arg_pred_not<boost::mpl::is_na<boost::flyweights::detail::refcounted_value<boost::flyweights::detail::default_value_policy<CRect>::rep_type,CRect> > >::p
PUBLIC	?mpl_assertion_in_line_1@?$apply@V?$refcounted_value@Urep_type@?$default_value_policy@VCRect@@@detail@flyweights@boost@@VCRect@@@detail@flyweights@boost@@VCRect@@Una@mpl@4@U674@U674@@?$arg@$00@mpl@boost@@2IB ; boost::mpl::arg<1>::apply<boost::flyweights::detail::refcounted_value<boost::flyweights::detail::default_value_policy<CRect>::rep_type,CRect>,CRect,boost::mpl::na,boost::mpl::na,boost::mpl::na>::mpl_assertion_in_line_1
PUBLIC	?p@?$assert_arg_pred_not@U?$is_na@VCRect@@@mpl@boost@@@mpl@boost@@2_NB ; boost::mpl::assert_arg_pred_not<boost::mpl::is_na<CRect> >::p
PUBLIC	?mpl_assertion_in_line_2@?$apply@V?$refcounted_value@Urep_type@?$default_value_policy@VCRect@@@detail@flyweights@boost@@VCRect@@@detail@flyweights@boost@@VCRect@@Una@mpl@4@U674@U674@@?$arg@$01@mpl@boost@@2IB ; boost::mpl::arg<2>::apply<boost::flyweights::detail::refcounted_value<boost::flyweights::detail::default_value_policy<CRect>::rep_type,CRect>,CRect,boost::mpl::na,boost::mpl::na,boost::mpl::na>::mpl_assertion_in_line_2
PUBLIC	?value@?$has_tag_impl_@Uindex_list@?$hashed_factory_class@V?$refcounted_value@Urep_type@?$default_value_policy@VCRect@@@detail@flyweights@boost@@VCRect@@@detail@flyweights@boost@@VCRect@@Una@mpl@4@U674@U674@@flyweights@boost@@X@aux@mpl@boost@@2_NB ; boost::mpl::aux::has_tag_impl_<boost::flyweights::hashed_factory_class<boost::flyweights::detail::refcounted_value<boost::flyweights::detail::default_value_policy<CRect>::rep_type,CRect>,CRect,boost::mpl::na,boost::mpl::na,boost::mpl::na>::index_list,void>::value
PUBLIC	?value@?$has_begin_impl_@Uindex_list@?$hashed_factory_class@V?$refcounted_value@Urep_type@?$default_value_policy@VCRect@@@detail@flyweights@boost@@VCRect@@@detail@flyweights@boost@@VCRect@@Una@mpl@4@U674@U674@@flyweights@boost@@X@aux@mpl@boost@@2_NB ; boost::mpl::aux::has_begin_impl_<boost::flyweights::hashed_factory_class<boost::flyweights::detail::refcounted_value<boost::flyweights::detail::default_value_policy<CRect>::rep_type,CRect>,CRect,boost::mpl::na,boost::mpl::na,boost::mpl::na>::index_list,void>::value
PUBLIC	?mpl_sequence@?$is_index_list@Uindex_list@?$hashed_factory_class@V?$refcounted_value@Urep_type@?$default_value_policy@VCRect@@@detail@flyweights@boost@@VCRect@@@detail@flyweights@boost@@VCRect@@Una@mpl@4@U674@U674@@flyweights@boost@@@detail@multi_index@boost@@2_NB ; boost::multi_index::detail::is_index_list<boost::flyweights::hashed_factory_class<boost::flyweights::detail::refcounted_value<boost::flyweights::detail::default_value_policy<CRect>::rep_type,CRect>,CRect,boost::mpl::na,boost::mpl::na,boost::mpl::na>::index_list>::mpl_sequence
PUBLIC	?non_empty@?$is_index_list@Uindex_list@?$hashed_factory_class@V?$refcounted_value@Urep_type@?$default_value_policy@VCRect@@@detail@flyweights@boost@@VCRect@@@detail@flyweights@boost@@VCRect@@Una@mpl@4@U674@U674@@flyweights@boost@@@detail@multi_index@boost@@2_NB ; boost::multi_index::detail::is_index_list<boost::flyweights::hashed_factory_class<boost::flyweights::detail::refcounted_value<boost::flyweights::detail::default_value_policy<CRect>::rep_type,CRect>,CRect,boost::mpl::na,boost::mpl::na,boost::mpl::na>::index_list>::non_empty
PUBLIC	?value@?$is_index_list@Uindex_list@?$hashed_factory_class@V?$refcounted_value@Urep_type@?$default_value_policy@VCRect@@@detail@flyweights@boost@@VCRect@@@detail@flyweights@boost@@VCRect@@Una@mpl@4@U674@U674@@flyweights@boost@@@detail@multi_index@boost@@2_NB ; boost::multi_index::detail::is_index_list<boost::flyweights::hashed_factory_class<boost::flyweights::detail::refcounted_value<boost::flyweights::detail::default_value_policy<CRect>::rep_type,CRect>,CRect,boost::mpl::na,boost::mpl::na,boost::mpl::na>::index_list>::value
PUBLIC	?value@?$long_@$00@mpl@boost@@2JB		; boost::mpl::long_<1>::value
PUBLIC	?p@?$assert_arg_pred_not@U?$is_na@U?$index_node_base@V?$refcounted_value@Urep_type@?$default_value_policy@VCRect@@@detail@flyweights@boost@@VCRect@@@detail@flyweights@boost@@V?$allocator@V?$refcounted_value@Urep_type@?$default_value_policy@VCRect@@@detail@flyweights@boost@@VCRect@@@detail@flyweights@boost@@@std@@@detail@multi_index@boost@@@mpl@boost@@@mpl@boost@@2_NB ; boost::mpl::assert_arg_pred_not<boost::mpl::is_na<boost::multi_index::detail::index_node_base<boost::flyweights::detail::refcounted_value<boost::flyweights::detail::default_value_policy<CRect>::rep_type,CRect>,std::allocator<boost::flyweights::detail::refcounted_value<boost::flyweights::detail::default_value_policy<CRect>::rep_type,CRect> > > > >::p
PUBLIC	?mpl_assertion_in_line_1@?$apply@U?$index_node_base@V?$refcounted_value@Urep_type@?$default_value_policy@VCRect@@@detail@flyweights@boost@@VCRect@@@detail@flyweights@boost@@V?$allocator@V?$refcounted_value@Urep_type@?$default_value_policy@VCRect@@@detail@flyweights@boost@@VCRect@@@detail@flyweights@boost@@@std@@@detail@multi_index@boost@@U?$v_iter@U?$vector1@U?$hashed_unique@U?$identity@V?$refcounted_value@Urep_type@?$default_value_policy@VCRect@@@detail@flyweights@boost@@VCRect@@@detail@flyweights@boost@@@multi_index@boost@@U?$hash@VCRect@@@3@U?$equal_to@VCRect@@@std@@Una@mpl@3@@multi_index@boost@@@mpl@boost@@$0A@@mpl@4@Una@64@U764@U764@@?$arg@$00@mpl@boost@@2IB ; boost::mpl::arg<1>::apply<boost::multi_index::detail::index_node_base<boost::flyweights::detail::refcounted_value<boost::flyweights::detail::default_value_policy<CRect>::rep_type,CRect>,std::allocator<boost::flyweights::detail::refcounted_value<boost::flyweights::detail::default_value_policy<CRect>::rep_type,CRect> > >,boost::mpl::v_iter<boost::mpl::vector1<boost::multi_index::hashed_unique<boost::multi_index::identity<boost::flyweights::detail::refcounted_value<boost::flyweights::detail::default_value_policy<CRect>::rep_type,CRect> >,boost::hash<CRect>,std::equal_to<CRect>,boost::mpl::na> >,0>,boost::mpl::na,boost::mpl::na,boost::mpl::na>::mpl_assertion_in_line_1
PUBLIC	?p@?$assert_arg_pred_not@U?$is_na@U?$v_iter@U?$vector1@U?$hashed_unique@U?$identity@V?$refcounted_value@Urep_type@?$default_value_policy@VCRect@@@detail@flyweights@boost@@VCRect@@@detail@flyweights@boost@@@multi_index@boost@@U?$hash@VCRect@@@3@U?$equal_to@VCRect@@@std@@Una@mpl@3@@multi_index@boost@@@mpl@boost@@$0A@@mpl@boost@@@mpl@boost@@@mpl@boost@@2_NB ; boost::mpl::assert_arg_pred_not<boost::mpl::is_na<boost::mpl::v_iter<boost::mpl::vector1<boost::multi_index::hashed_unique<boost::multi_index::identity<boost::flyweights::detail::refcounted_value<boost::flyweights::detail::default_value_policy<CRect>::rep_type,CRect> >,boost::hash<CRect>,std::equal_to<CRect>,boost::mpl::na> >,0> > >::p
PUBLIC	?mpl_assertion_in_line_2@?$apply@U?$index_node_base@V?$refcounted_value@Urep_type@?$default_value_policy@VCRect@@@detail@flyweights@boost@@VCRect@@@detail@flyweights@boost@@V?$allocator@V?$refcounted_value@Urep_type@?$default_value_policy@VCRect@@@detail@flyweights@boost@@VCRect@@@detail@flyweights@boost@@@std@@@detail@multi_index@boost@@U?$v_iter@U?$vector1@U?$hashed_unique@U?$identity@V?$refcounted_value@Urep_type@?$default_value_policy@VCRect@@@detail@flyweights@boost@@VCRect@@@detail@flyweights@boost@@@multi_index@boost@@U?$hash@VCRect@@@3@U?$equal_to@VCRect@@@std@@Una@mpl@3@@multi_index@boost@@@mpl@boost@@$0A@@mpl@4@Una@64@U764@U764@@?$arg@$01@mpl@boost@@2IB ; boost::mpl::arg<2>::apply<boost::multi_index::detail::index_node_base<boost::flyweights::detail::refcounted_value<boost::flyweights::detail::default_value_policy<CRect>::rep_type,CRect>,std::allocator<boost::flyweights::detail::refcounted_value<boost::flyweights::detail::default_value_policy<CRect>::rep_type,CRect> > >,boost::mpl::v_iter<boost::mpl::vector1<boost::multi_index::hashed_unique<boost::multi_index::identity<boost::flyweights::detail::refcounted_value<boost::flyweights::detail::default_value_policy<CRect>::rep_type,CRect> >,boost::hash<CRect>,std::equal_to<CRect>,boost::mpl::na> >,0>,boost::mpl::na,boost::mpl::na,boost::mpl::na>::mpl_assertion_in_line_2
PUBLIC	?is_const@?$cv_traits_imp@PAUtag_marker@detail@multi_index@boost@@@detail@boost@@2_NB ; boost::detail::cv_traits_imp<boost::multi_index::detail::tag_marker *>::is_const
PUBLIC	?is_volatile@?$cv_traits_imp@PAUtag_marker@detail@multi_index@boost@@@detail@boost@@2_NB ; boost::detail::cv_traits_imp<boost::multi_index::detail::tag_marker *>::is_volatile
PUBLIC	?is_const@?$cv_traits_imp@PAU?$identity@V?$refcounted_value@Urep_type@?$default_value_policy@VCRect@@@detail@flyweights@boost@@VCRect@@@detail@flyweights@boost@@@multi_index@boost@@@detail@boost@@2_NB ; boost::detail::cv_traits_imp<boost::multi_index::identity<boost::flyweights::detail::refcounted_value<boost::flyweights::detail::default_value_policy<CRect>::rep_type,CRect> > *>::is_const
PUBLIC	?is_volatile@?$cv_traits_imp@PAU?$identity@V?$refcounted_value@Urep_type@?$default_value_policy@VCRect@@@detail@flyweights@boost@@VCRect@@@detail@flyweights@boost@@@multi_index@boost@@@detail@boost@@2_NB ; boost::detail::cv_traits_imp<boost::multi_index::identity<boost::flyweights::detail::refcounted_value<boost::flyweights::detail::default_value_policy<CRect>::rep_type,CRect> > *>::is_volatile
PUBLIC	?is_const@?$cv_traits_imp@PAV?$refcounted_value@Urep_type@?$default_value_policy@VCRect@@@detail@flyweights@boost@@VCRect@@@detail@flyweights@boost@@@detail@boost@@2_NB ; boost::detail::cv_traits_imp<boost::flyweights::detail::refcounted_value<boost::flyweights::detail::default_value_policy<CRect>::rep_type,CRect> *>::is_const
PUBLIC	?is_volatile@?$cv_traits_imp@PAV?$refcounted_value@Urep_type@?$default_value_policy@VCRect@@@detail@flyweights@boost@@VCRect@@@detail@flyweights@boost@@@detail@boost@@2_NB ; boost::detail::cv_traits_imp<boost::flyweights::detail::refcounted_value<boost::flyweights::detail::default_value_policy<CRect>::rep_type,CRect> *>::is_volatile
PUBLIC	?value@?$is_const_rvalue_filter@V?$refcounted_value@Urep_type@?$default_value_policy@VCRect@@@detail@flyweights@boost@@VCRect@@@detail@flyweights@boost@@@detail@boost@@2_NB ; boost::detail::is_const_rvalue_filter<boost::flyweights::detail::refcounted_value<boost::flyweights::detail::default_value_policy<CRect>::rep_type,CRect> >::value
PUBLIC	?value@?$is_base_and_derived_impl@Utag_marker@detail@multi_index@boost@@U?$identity@V?$refcounted_value@Urep_type@?$default_value_policy@VCRect@@@detail@flyweights@boost@@VCRect@@@detail@flyweights@boost@@@34@@detail@boost@@2_NB ; boost::detail::is_base_and_derived_impl<boost::multi_index::detail::tag_marker,boost::multi_index::identity<boost::flyweights::detail::refcounted_value<boost::flyweights::detail::default_value_policy<CRect>::rep_type,CRect> > >::value
PUBLIC	?value@?$is_tag@U?$identity@V?$refcounted_value@Urep_type@?$default_value_policy@VCRect@@@detail@flyweights@boost@@VCRect@@@detail@flyweights@boost@@@multi_index@boost@@@detail@multi_index@boost@@2_NB ; boost::multi_index::detail::is_tag<boost::multi_index::identity<boost::flyweights::detail::refcounted_value<boost::flyweights::detail::default_value_policy<CRect>::rep_type,CRect> > >::value
PUBLIC	?is_const@?$cv_traits_imp@PAU?$tag@Una@mpl@boost@@U123@U123@U123@U123@U123@U123@U123@U123@U123@U123@U123@U123@U123@U123@U123@U123@U123@U123@U123@@multi_index@boost@@@detail@boost@@2_NB ; boost::detail::cv_traits_imp<boost::multi_index::tag<boost::mpl::na,boost::mpl::na,boost::mpl::na,boost::mpl::na,boost::mpl::na,boost::mpl::na,boost::mpl::na,boost::mpl::na,boost::mpl::na,boost::mpl::na,boost::mpl::na,boost::mpl::na,boost::mpl::na,boost::mpl::na,boost::mpl::na,boost::mpl::na,boost::mpl::na,boost::mpl::na,boost::mpl::na,boost::mpl::na> *>::is_const
PUBLIC	?is_volatile@?$cv_traits_imp@PAU?$tag@Una@mpl@boost@@U123@U123@U123@U123@U123@U123@U123@U123@U123@U123@U123@U123@U123@U123@U123@U123@U123@U123@U123@@multi_index@boost@@@detail@boost@@2_NB ; boost::detail::cv_traits_imp<boost::multi_index::tag<boost::mpl::na,boost::mpl::na,boost::mpl::na,boost::mpl::na,boost::mpl::na,boost::mpl::na,boost::mpl::na,boost::mpl::na,boost::mpl::na,boost::mpl::na,boost::mpl::na,boost::mpl::na,boost::mpl::na,boost::mpl::na,boost::mpl::na,boost::mpl::na,boost::mpl::na,boost::mpl::na,boost::mpl::na,boost::mpl::na> *>::is_volatile
PUBLIC	?value@?$has_tag_impl_@U?$vector@Una@mpl@boost@@U123@U123@U123@U123@U123@U123@U123@U123@U123@U123@U123@U123@U123@U123@U123@U123@U123@U123@U123@@mpl@boost@@X@aux@mpl@boost@@2_NB ; boost::mpl::aux::has_tag_impl_<boost::mpl::vector<boost::mpl::na,boost::mpl::na,boost::mpl::na,boost::mpl::na,boost::mpl::na,boost::mpl::na,boost::mpl::na,boost::mpl::na,boost::mpl::na,boost::mpl::na,boost::mpl::na,boost::mpl::na,boost::mpl::na,boost::mpl::na,boost::mpl::na,boost::mpl::na,boost::mpl::na,boost::mpl::na,boost::mpl::na,boost::mpl::na>,void>::value
PUBLIC	?value@?$has_begin_impl_@U?$vector@Una@mpl@boost@@U123@U123@U123@U123@U123@U123@U123@U123@U123@U123@U123@U123@U123@U123@U123@U123@U123@U123@U123@@mpl@boost@@X@aux@mpl@boost@@2_NB ; boost::mpl::aux::has_begin_impl_<boost::mpl::vector<boost::mpl::na,boost::mpl::na,boost::mpl::na,boost::mpl::na,boost::mpl::na,boost::mpl::na,boost::mpl::na,boost::mpl::na,boost::mpl::na,boost::mpl::na,boost::mpl::na,boost::mpl::na,boost::mpl::na,boost::mpl::na,boost::mpl::na,boost::mpl::na,boost::mpl::na,boost::mpl::na,boost::mpl::na,boost::mpl::na>,void>::value
PUBLIC	?value@?$has_tag_impl_@U?$vector0@Una@mpl@boost@@@mpl@boost@@X@aux@mpl@boost@@2_NB ; boost::mpl::aux::has_tag_impl_<boost::mpl::vector0<boost::mpl::na>,void>::value
PUBLIC	?value@?$has_begin_impl_@U?$vector0@Una@mpl@boost@@@mpl@boost@@X@aux@mpl@boost@@2_NB ; boost::mpl::aux::has_begin_impl_<boost::mpl::vector0<boost::mpl::na>,void>::value
PUBLIC	?value@?$has_type_impl_@U?$push_back@U?$vector0@Una@mpl@boost@@@mpl@boost@@Uhas_push_back_arg@23@@mpl@boost@@X@aux@mpl@boost@@2_NB ; boost::mpl::aux::has_type_impl_<boost::mpl::push_back<boost::mpl::vector0<boost::mpl::na>,boost::mpl::has_push_back_arg>,void>::value
PUBLIC	?value@?$long_@$0A@@mpl@boost@@2JB		; boost::mpl::long_<0>::value
PUBLIC	?value@?$apply@U?$set0@Una@mpl@boost@@@mpl@boost@@Uduplicate_tag_mark@detail@multi_index@3@@?$has_key_impl@Uset_tag@aux@mpl@boost@@@mpl@boost@@2_NB ; boost::mpl::has_key_impl<boost::mpl::aux::set_tag>::apply<boost::mpl::set0<boost::mpl::na>,boost::multi_index::detail::duplicate_tag_mark>::value
PUBLIC	?value@?$no_duplicate_tags@U?$vector0@Una@mpl@boost@@@mpl@boost@@@detail@multi_index@boost@@2_NB ; boost::multi_index::detail::no_duplicate_tags<boost::mpl::vector0<boost::mpl::na> >::value
PUBLIC	?value@?$is_base_and_derived_impl@Utag_marker@detail@multi_index@boost@@U?$tag@Una@mpl@boost@@U123@U123@U123@U123@U123@U123@U123@U123@U123@U123@U123@U123@U123@U123@U123@U123@U123@U123@U123@@34@@detail@boost@@2_NB ; boost::detail::is_base_and_derived_impl<boost::multi_index::detail::tag_marker,boost::multi_index::tag<boost::mpl::na,boost::mpl::na,boost::mpl::na,boost::mpl::na,boost::mpl::na,boost::mpl::na,boost::mpl::na,boost::mpl::na,boost::mpl::na,boost::mpl::na,boost::mpl::na,boost::mpl::na,boost::mpl::na,boost::mpl::na,boost::mpl::na,boost::mpl::na,boost::mpl::na,boost::mpl::na,boost::mpl::na,boost::mpl::na> >::value
PUBLIC	?value@?$is_tag@U?$tag@Una@mpl@boost@@U123@U123@U123@U123@U123@U123@U123@U123@U123@U123@U123@U123@U123@U123@U123@U123@U123@U123@U123@@multi_index@boost@@@detail@multi_index@boost@@2_NB ; boost::multi_index::detail::is_tag<boost::multi_index::tag<boost::mpl::na,boost::mpl::na,boost::mpl::na,boost::mpl::na,boost::mpl::na,boost::mpl::na,boost::mpl::na,boost::mpl::na,boost::mpl::na,boost::mpl::na,boost::mpl::na,boost::mpl::na,boost::mpl::na,boost::mpl::na,boost::mpl::na,boost::mpl::na,boost::mpl::na,boost::mpl::na,boost::mpl::na,boost::mpl::na> >::value
PUBLIC	?value@?$is_partial_std_allocator@V?$allocator@V?$refcounted_value@Urep_type@?$default_value_policy@VCRect@@@detail@flyweights@boost@@VCRect@@@detail@flyweights@boost@@@std@@@allocator@detail@boost@@2_NB ; boost::detail::allocator::is_partial_std_allocator<std::allocator<boost::flyweights::detail::refcounted_value<boost::flyweights::detail::default_value_policy<CRect>::rep_type,CRect> > >::value
PUBLIC	?length@?$nth_layer@$0A@V?$refcounted_value@Urep_type@?$default_value_policy@VCRect@@@detail@flyweights@boost@@VCRect@@@detail@flyweights@boost@@Uindex_list@?$hashed_factory_class@V?$refcounted_value@Urep_type@?$default_value_policy@VCRect@@@detail@flyweights@boost@@VCRect@@@detail@flyweights@boost@@VCRect@@Una@mpl@4@U674@U674@@34@V?$allocator@V?$refcounted_value@Urep_type@?$default_value_policy@VCRect@@@detail@flyweights@boost@@VCRect@@@detail@flyweights@boost@@@std@@@detail@multi_index@boost@@2HB ; boost::multi_index::detail::nth_layer<0,boost::flyweights::detail::refcounted_value<boost::flyweights::detail::default_value_policy<CRect>::rep_type,CRect>,boost::flyweights::hashed_factory_class<boost::flyweights::detail::refcounted_value<boost::flyweights::detail::default_value_policy<CRect>::rep_type,CRect>,CRect,boost::mpl::na,boost::mpl::na,boost::mpl::na>::index_list,std::allocator<boost::flyweights::detail::refcounted_value<boost::flyweights::detail::default_value_policy<CRect>::rep_type,CRect> > >::length
PUBLIC	?length@?$nth_layer@$00V?$refcounted_value@Urep_type@?$default_value_policy@VCRect@@@detail@flyweights@boost@@VCRect@@@detail@flyweights@boost@@Uindex_list@?$hashed_factory_class@V?$refcounted_value@Urep_type@?$default_value_policy@VCRect@@@detail@flyweights@boost@@VCRect@@@detail@flyweights@boost@@VCRect@@Una@mpl@4@U674@U674@@34@V?$allocator@V?$refcounted_value@Urep_type@?$default_value_policy@VCRect@@@detail@flyweights@boost@@VCRect@@@detail@flyweights@boost@@@std@@@detail@multi_index@boost@@2HB ; boost::multi_index::detail::nth_layer<1,boost::flyweights::detail::refcounted_value<boost::flyweights::detail::default_value_policy<CRect>::rep_type,CRect>,boost::flyweights::hashed_factory_class<boost::flyweights::detail::refcounted_value<boost::flyweights::detail::default_value_policy<CRect>::rep_type,CRect>,CRect,boost::mpl::na,boost::mpl::na,boost::mpl::na>::index_list,std::allocator<boost::flyweights::detail::refcounted_value<boost::flyweights::detail::default_value_policy<CRect>::rep_type,CRect> > >::length
PUBLIC	?value@?$is_pointer_helper@V?$refcounted_value@Urep_type@?$default_value_policy@VCRect@@@detail@flyweights@boost@@VCRect@@@detail@flyweights@boost@@@detail@boost@@2_NB ; boost::detail::is_pointer_helper<boost::flyweights::detail::refcounted_value<boost::flyweights::detail::default_value_policy<CRect>::rep_type,CRect> >::value
PUBLIC	?value@?$is_reference_impl@V?$refcounted_value@Urep_type@?$default_value_policy@VCRect@@@detail@flyweights@boost@@VCRect@@@detail@flyweights@boost@@@detail@boost@@2_NB ; boost::detail::is_reference_impl<boost::flyweights::detail::refcounted_value<boost::flyweights::detail::default_value_policy<CRect>::rep_type,CRect> >::value
PUBLIC	?value@?$result_@V?$refcounted_value@Urep_type@?$default_value_policy@VCRect@@@detail@flyweights@boost@@VCRect@@@detail@flyweights@boost@@@?$is_mem_fun_pointer_select@$0A@@detail@boost@@2_NB ; boost::detail::is_mem_fun_pointer_select<0>::result_<boost::flyweights::detail::refcounted_value<boost::flyweights::detail::default_value_policy<CRect>::rep_type,CRect> >::value
PUBLIC	?value@?$ice_not@$0A@@type_traits@boost@@2_NB	; boost::type_traits::ice_not<0>::value
PUBLIC	?value@?$ice_and@$0A@$00$00$00$00$00$00@type_traits@boost@@2_NB ; boost::type_traits::ice_and<0,1,1,1,1,1,1>::value
PUBLIC	?value@?$is_pointer_impl@V?$refcounted_value@Urep_type@?$default_value_policy@VCRect@@@detail@flyweights@boost@@VCRect@@@detail@flyweights@boost@@@detail@boost@@2_NB ; boost::detail::is_pointer_impl<boost::flyweights::detail::refcounted_value<boost::flyweights::detail::default_value_policy<CRect>::rep_type,CRect> >::value
PUBLIC	?value@?$is_arithmetic_impl@V?$refcounted_value@Urep_type@?$default_value_policy@VCRect@@@detail@flyweights@boost@@VCRect@@@detail@flyweights@boost@@@detail@boost@@2_NB ; boost::detail::is_arithmetic_impl<boost::flyweights::detail::refcounted_value<boost::flyweights::detail::default_value_policy<CRect>::rep_type,CRect> >::value
PUBLIC	?value@?$alignment_of_impl@V?$refcounted_value@Urep_type@?$default_value_policy@VCRect@@@detail@flyweights@boost@@VCRect@@@detail@flyweights@boost@@@detail@boost@@2IB ; boost::detail::alignment_of_impl<boost::flyweights::detail::refcounted_value<boost::flyweights::detail::default_value_policy<CRect>::rep_type,CRect> >::value
PUBLIC	?value@?$alignment_of_impl@T?$lower_alignment@$03@detail@boost@@@detail@boost@@2IB ; boost::detail::alignment_of_impl<boost::detail::lower_alignment<4> >::value
PUBLIC	?value@?$is_aligned@$03$03@detail@boost@@2_NB	; boost::detail::is_aligned<4,4>::value
PUBLIC	?found@?$type_with_alignment_imp@$03@detail@boost@@0IB ; boost::detail::type_with_alignment_imp<4>::found
PUBLIC	?size@?$aligned_storage@$0BI@$03@boost@@2IB	; boost::aligned_storage<24,4>::size
PUBLIC	?alignment@?$aligned_storage@$0BI@$03@boost@@2IB ; boost::aligned_storage<24,4>::alignment
PUBLIC	?value@?$is_partial_std_allocator@V?$allocator@D@std@@@allocator@detail@boost@@2_NB ; boost::detail::allocator::is_partial_std_allocator<std::allocator<char> >::value
PUBLIC	?value@?$has_tag_impl_@U?$vector1@V?$hashed_index@U?$identity@V?$refcounted_value@Urep_type@?$default_value_policy@VCRect@@@detail@flyweights@boost@@VCRect@@@detail@flyweights@boost@@@multi_index@boost@@U?$hash@VCRect@@@3@U?$equal_to@VCRect@@@std@@U?$nth_layer@$00V?$refcounted_value@Urep_type@?$default_value_policy@VCRect@@@detail@flyweights@boost@@VCRect@@@detail@flyweights@boost@@Uindex_list@?$hashed_factory_class@V?$refcounted_value@Urep_type@?$default_value_policy@VCRect@@@detail@flyweights@boost@@VCRect@@@detail@flyweights@boost@@VCRect@@Una@mpl@4@U674@U674@@34@V?$allocator@V?$refcounted_value@Urep_type@?$default_value_policy@VCRect@@@detail@flyweights@boost@@VCRect@@@detail@flyweights@boost@@@std@@@detail@23@U?$vector0@Una@mpl@boost@@@mpl@3@Uhashed_unique_tag@823@@detail@multi_index@boost@@@mpl@boost@@X@aux@mpl@boost@@2_NB ; boost::mpl::aux::has_tag_impl_<boost::mpl::vector1<boost::multi_index::detail::hashed_index<boost::multi_index::identity<boost::flyweights::detail::refcounted_value<boost::flyweights::detail::default_value_policy<CRect>::rep_type,CRect> >,boost::hash<CRect>,std::equal_to<CRect>,boost::multi_index::detail::nth_layer<1,boost::flyweights::detail::refcounted_value<boost::flyweights::detail::default_value_policy<CRect>::rep_type,CRect>,boost::flyweights::hashed_factory_class<boost::flyweights::detail::refcounted_value<boost::flyweights::detail::default_value_policy<CRect>::rep_type,CRect>,CRect,boost::mpl::na,boost::mpl::na,boost::mpl::na>::index_list,std::allocator<boost::flyweights::detail::refcounted_value<boost::flyweights::detail::default_value_policy<CRect>::rep_type,CRect> > >,boost::mpl::vector0<boost::mpl::na>,boost::multi_index::detail::hashed_unique_tag> >,void>::value
PUBLIC	?value@?$has_begin_impl_@U?$vector1@V?$hashed_index@U?$identity@V?$refcounted_value@Urep_type@?$default_value_policy@VCRect@@@detail@flyweights@boost@@VCRect@@@detail@flyweights@boost@@@multi_index@boost@@U?$hash@VCRect@@@3@U?$equal_to@VCRect@@@std@@U?$nth_layer@$00V?$refcounted_value@Urep_type@?$default_value_policy@VCRect@@@detail@flyweights@boost@@VCRect@@@detail@flyweights@boost@@Uindex_list@?$hashed_factory_class@V?$refcounted_value@Urep_type@?$default_value_policy@VCRect@@@detail@flyweights@boost@@VCRect@@@detail@flyweights@boost@@VCRect@@Una@mpl@4@U674@U674@@34@V?$allocator@V?$refcounted_value@Urep_type@?$default_value_policy@VCRect@@@detail@flyweights@boost@@VCRect@@@detail@flyweights@boost@@@std@@@detail@23@U?$vector0@Una@mpl@boost@@@mpl@3@Uhashed_unique_tag@823@@detail@multi_index@boost@@@mpl@boost@@X@aux@mpl@boost@@2_NB ; boost::mpl::aux::has_begin_impl_<boost::mpl::vector1<boost::multi_index::detail::hashed_index<boost::multi_index::identity<boost::flyweights::detail::refcounted_value<boost::flyweights::detail::default_value_policy<CRect>::rep_type,CRect> >,boost::hash<CRect>,std::equal_to<CRect>,boost::multi_index::detail::nth_layer<1,boost::flyweights::detail::refcounted_value<boost::flyweights::detail::default_value_policy<CRect>::rep_type,CRect>,boost::flyweights::hashed_factory_class<boost::flyweights::detail::refcounted_value<boost::flyweights::detail::default_value_policy<CRect>::rep_type,CRect>,CRect,boost::mpl::na,boost::mpl::na,boost::mpl::na>::index_list,std::allocator<boost::flyweights::detail::refcounted_value<boost::flyweights::detail::default_value_policy<CRect>::rep_type,CRect> > >,boost::mpl::vector0<boost::mpl::na>,boost::multi_index::detail::hashed_unique_tag> >,void>::value
PUBLIC	?value@?$no_duplicate_tags_in_index_list@U?$vector1@V?$hashed_index@U?$identity@V?$refcounted_value@Urep_type@?$default_value_policy@VCRect@@@detail@flyweights@boost@@VCRect@@@detail@flyweights@boost@@@multi_index@boost@@U?$hash@VCRect@@@3@U?$equal_to@VCRect@@@std@@U?$nth_layer@$00V?$refcounted_value@Urep_type@?$default_value_policy@VCRect@@@detail@flyweights@boost@@VCRect@@@detail@flyweights@boost@@Uindex_list@?$hashed_factory_class@V?$refcounted_value@Urep_type@?$default_value_policy@VCRect@@@detail@flyweights@boost@@VCRect@@@detail@flyweights@boost@@VCRect@@Una@mpl@4@U674@U674@@34@V?$allocator@V?$refcounted_value@Urep_type@?$default_value_policy@VCRect@@@detail@flyweights@boost@@VCRect@@@detail@flyweights@boost@@@std@@@detail@23@U?$vector0@Una@mpl@boost@@@mpl@3@Uhashed_unique_tag@823@@detail@multi_index@boost@@@mpl@boost@@@detail@multi_index@boost@@2_NB ; boost::multi_index::detail::no_duplicate_tags_in_index_list<boost::mpl::vector1<boost::multi_index::detail::hashed_index<boost::multi_index::identity<boost::flyweights::detail::refcounted_value<boost::flyweights::detail::default_value_policy<CRect>::rep_type,CRect> >,boost::hash<CRect>,std::equal_to<CRect>,boost::multi_index::detail::nth_layer<1,boost::flyweights::detail::refcounted_value<boost::flyweights::detail::default_value_policy<CRect>::rep_type,CRect>,boost::flyweights::hashed_factory_class<boost::flyweights::detail::refcounted_value<boost::flyweights::detail::default_value_policy<CRect>::rep_type,CRect>,CRect,boost::mpl::na,boost::mpl::na,boost::mpl::na>::index_list,std::allocator<boost::flyweights::detail::refcounted_value<boost::flyweights::detail::default_value_policy<CRect>::rep_type,CRect> > >,boost::mpl::vector0<boost::mpl::na>,boost::multi_index::detail::hashed_unique_tag> > >::value
PUBLIC	?value@?$has_type_impl_@V?$hashed_factory_class@V?$refcounted_value@Urep_type@?$default_value_policy@VCRect@@@detail@flyweights@boost@@VCRect@@@detail@flyweights@boost@@VCRect@@Una@mpl@4@U674@U674@@flyweights@boost@@X@aux@mpl@boost@@2_NB ; boost::mpl::aux::has_type_impl_<boost::flyweights::hashed_factory_class<boost::flyweights::detail::refcounted_value<boost::flyweights::detail::default_value_policy<CRect>::rep_type,CRect>,CRect,boost::mpl::na,boost::mpl::na,boost::mpl::na>,void>::value
PUBLIC	?is_const@?$cv_traits_imp@PAUSTSStyle@@@detail@boost@@2_NB ; boost::detail::cv_traits_imp<STSStyle *>::is_const
PUBLIC	?is_volatile@?$cv_traits_imp@PAUSTSStyle@@@detail@boost@@2_NB ; boost::detail::cv_traits_imp<STSStyle *>::is_volatile
PUBLIC	?value@?$is_base_and_derived_impl@Uvalue_marker@detail@flyweights@boost@@USTSStyle@@@detail@boost@@2_NB ; boost::detail::is_base_and_derived_impl<boost::flyweights::detail::value_marker,STSStyle>::value
PUBLIC	?mpl_assertion_in_line_12@?$flyweight@USTSStyle@@Uno_locking@flyweights@boost@@Uvoid_@parameter@4@U564@U564@U564@@flyweights@boost@@0IB ; boost::flyweights::flyweight<STSStyle,boost::flyweights::no_locking,boost::parameter::void_,boost::parameter::void_,boost::parameter::void_,boost::parameter::void_>::mpl_assertion_in_line_12
PUBLIC	?p@?$assert_arg_pred_not@U?$is_na@V?$refcounted_value@Urep_type@?$default_value_policy@USTSStyle@@@detail@flyweights@boost@@USTSStyle@@@detail@flyweights@boost@@@mpl@boost@@@mpl@boost@@2_NB ; boost::mpl::assert_arg_pred_not<boost::mpl::is_na<boost::flyweights::detail::refcounted_value<boost::flyweights::detail::default_value_policy<STSStyle>::rep_type,STSStyle> > >::p
PUBLIC	?mpl_assertion_in_line_1@?$apply@V?$refcounted_value@Urep_type@?$default_value_policy@USTSStyle@@@detail@flyweights@boost@@USTSStyle@@@detail@flyweights@boost@@USTSStyle@@Una@mpl@4@U674@U674@@?$arg@$00@mpl@boost@@2IB ; boost::mpl::arg<1>::apply<boost::flyweights::detail::refcounted_value<boost::flyweights::detail::default_value_policy<STSStyle>::rep_type,STSStyle>,STSStyle,boost::mpl::na,boost::mpl::na,boost::mpl::na>::mpl_assertion_in_line_1
PUBLIC	?p@?$assert_arg_pred_not@U?$is_na@USTSStyle@@@mpl@boost@@@mpl@boost@@2_NB ; boost::mpl::assert_arg_pred_not<boost::mpl::is_na<STSStyle> >::p
PUBLIC	?mpl_assertion_in_line_2@?$apply@V?$refcounted_value@Urep_type@?$default_value_policy@USTSStyle@@@detail@flyweights@boost@@USTSStyle@@@detail@flyweights@boost@@USTSStyle@@Una@mpl@4@U674@U674@@?$arg@$01@mpl@boost@@2IB ; boost::mpl::arg<2>::apply<boost::flyweights::detail::refcounted_value<boost::flyweights::detail::default_value_policy<STSStyle>::rep_type,STSStyle>,STSStyle,boost::mpl::na,boost::mpl::na,boost::mpl::na>::mpl_assertion_in_line_2
PUBLIC	?value@?$has_tag_impl_@Uindex_list@?$hashed_factory_class@V?$refcounted_value@Urep_type@?$default_value_policy@USTSStyle@@@detail@flyweights@boost@@USTSStyle@@@detail@flyweights@boost@@USTSStyle@@Una@mpl@4@U674@U674@@flyweights@boost@@X@aux@mpl@boost@@2_NB ; boost::mpl::aux::has_tag_impl_<boost::flyweights::hashed_factory_class<boost::flyweights::detail::refcounted_value<boost::flyweights::detail::default_value_policy<STSStyle>::rep_type,STSStyle>,STSStyle,boost::mpl::na,boost::mpl::na,boost::mpl::na>::index_list,void>::value
PUBLIC	?value@?$has_begin_impl_@Uindex_list@?$hashed_factory_class@V?$refcounted_value@Urep_type@?$default_value_policy@USTSStyle@@@detail@flyweights@boost@@USTSStyle@@@detail@flyweights@boost@@USTSStyle@@Una@mpl@4@U674@U674@@flyweights@boost@@X@aux@mpl@boost@@2_NB ; boost::mpl::aux::has_begin_impl_<boost::flyweights::hashed_factory_class<boost::flyweights::detail::refcounted_value<boost::flyweights::detail::default_value_policy<STSStyle>::rep_type,STSStyle>,STSStyle,boost::mpl::na,boost::mpl::na,boost::mpl::na>::index_list,void>::value
PUBLIC	?mpl_sequence@?$is_index_list@Uindex_list@?$hashed_factory_class@V?$refcounted_value@Urep_type@?$default_value_policy@USTSStyle@@@detail@flyweights@boost@@USTSStyle@@@detail@flyweights@boost@@USTSStyle@@Una@mpl@4@U674@U674@@flyweights@boost@@@detail@multi_index@boost@@2_NB ; boost::multi_index::detail::is_index_list<boost::flyweights::hashed_factory_class<boost::flyweights::detail::refcounted_value<boost::flyweights::detail::default_value_policy<STSStyle>::rep_type,STSStyle>,STSStyle,boost::mpl::na,boost::mpl::na,boost::mpl::na>::index_list>::mpl_sequence
PUBLIC	?non_empty@?$is_index_list@Uindex_list@?$hashed_factory_class@V?$refcounted_value@Urep_type@?$default_value_policy@USTSStyle@@@detail@flyweights@boost@@USTSStyle@@@detail@flyweights@boost@@USTSStyle@@Una@mpl@4@U674@U674@@flyweights@boost@@@detail@multi_index@boost@@2_NB ; boost::multi_index::detail::is_index_list<boost::flyweights::hashed_factory_class<boost::flyweights::detail::refcounted_value<boost::flyweights::detail::default_value_policy<STSStyle>::rep_type,STSStyle>,STSStyle,boost::mpl::na,boost::mpl::na,boost::mpl::na>::index_list>::non_empty
PUBLIC	?value@?$is_index_list@Uindex_list@?$hashed_factory_class@V?$refcounted_value@Urep_type@?$default_value_policy@USTSStyle@@@detail@flyweights@boost@@USTSStyle@@@detail@flyweights@boost@@USTSStyle@@Una@mpl@4@U674@U674@@flyweights@boost@@@detail@multi_index@boost@@2_NB ; boost::multi_index::detail::is_index_list<boost::flyweights::hashed_factory_class<boost::flyweights::detail::refcounted_value<boost::flyweights::detail::default_value_policy<STSStyle>::rep_type,STSStyle>,STSStyle,boost::mpl::na,boost::mpl::na,boost::mpl::na>::index_list>::value
PUBLIC	?p@?$assert_arg_pred_not@U?$is_na@U?$index_node_base@V?$refcounted_value@Urep_type@?$default_value_policy@USTSStyle@@@detail@flyweights@boost@@USTSStyle@@@detail@flyweights@boost@@V?$allocator@V?$refcounted_value@Urep_type@?$default_value_policy@USTSStyle@@@detail@flyweights@boost@@USTSStyle@@@detail@flyweights@boost@@@std@@@detail@multi_index@boost@@@mpl@boost@@@mpl@boost@@2_NB ; boost::mpl::assert_arg_pred_not<boost::mpl::is_na<boost::multi_index::detail::index_node_base<boost::flyweights::detail::refcounted_value<boost::flyweights::detail::default_value_policy<STSStyle>::rep_type,STSStyle>,std::allocator<boost::flyweights::detail::refcounted_value<boost::flyweights::detail::default_value_policy<STSStyle>::rep_type,STSStyle> > > > >::p
PUBLIC	?mpl_assertion_in_line_1@?$apply@U?$index_node_base@V?$refcounted_value@Urep_type@?$default_value_policy@USTSStyle@@@detail@flyweights@boost@@USTSStyle@@@detail@flyweights@boost@@V?$allocator@V?$refcounted_value@Urep_type@?$default_value_policy@USTSStyle@@@detail@flyweights@boost@@USTSStyle@@@detail@flyweights@boost@@@std@@@detail@multi_index@boost@@U?$v_iter@U?$vector1@U?$hashed_unique@U?$identity@V?$refcounted_value@Urep_type@?$default_value_policy@USTSStyle@@@detail@flyweights@boost@@USTSStyle@@@detail@flyweights@boost@@@multi_index@boost@@U?$hash@USTSStyle@@@3@U?$equal_to@USTSStyle@@@std@@Una@mpl@3@@multi_index@boost@@@mpl@boost@@$0A@@mpl@4@Una@64@U764@U764@@?$arg@$00@mpl@boost@@2IB ; boost::mpl::arg<1>::apply<boost::multi_index::detail::index_node_base<boost::flyweights::detail::refcounted_value<boost::flyweights::detail::default_value_policy<STSStyle>::rep_type,STSStyle>,std::allocator<boost::flyweights::detail::refcounted_value<boost::flyweights::detail::default_value_policy<STSStyle>::rep_type,STSStyle> > >,boost::mpl::v_iter<boost::mpl::vector1<boost::multi_index::hashed_unique<boost::multi_index::identity<boost::flyweights::detail::refcounted_value<boost::flyweights::detail::default_value_policy<STSStyle>::rep_type,STSStyle> >,boost::hash<STSStyle>,std::equal_to<STSStyle>,boost::mpl::na> >,0>,boost::mpl::na,boost::mpl::na,boost::mpl::na>::mpl_assertion_in_line_1
PUBLIC	?p@?$assert_arg_pred_not@U?$is_na@U?$v_iter@U?$vector1@U?$hashed_unique@U?$identity@V?$refcounted_value@Urep_type@?$default_value_policy@USTSStyle@@@detail@flyweights@boost@@USTSStyle@@@detail@flyweights@boost@@@multi_index@boost@@U?$hash@USTSStyle@@@3@U?$equal_to@USTSStyle@@@std@@Una@mpl@3@@multi_index@boost@@@mpl@boost@@$0A@@mpl@boost@@@mpl@boost@@@mpl@boost@@2_NB ; boost::mpl::assert_arg_pred_not<boost::mpl::is_na<boost::mpl::v_iter<boost::mpl::vector1<boost::multi_index::hashed_unique<boost::multi_index::identity<boost::flyweights::detail::refcounted_value<boost::flyweights::detail::default_value_policy<STSStyle>::rep_type,STSStyle> >,boost::hash<STSStyle>,std::equal_to<STSStyle>,boost::mpl::na> >,0> > >::p
PUBLIC	?mpl_assertion_in_line_2@?$apply@U?$index_node_base@V?$refcounted_value@Urep_type@?$default_value_policy@USTSStyle@@@detail@flyweights@boost@@USTSStyle@@@detail@flyweights@boost@@V?$allocator@V?$refcounted_value@Urep_type@?$default_value_policy@USTSStyle@@@detail@flyweights@boost@@USTSStyle@@@detail@flyweights@boost@@@std@@@detail@multi_index@boost@@U?$v_iter@U?$vector1@U?$hashed_unique@U?$identity@V?$refcounted_value@Urep_type@?$default_value_policy@USTSStyle@@@detail@flyweights@boost@@USTSStyle@@@detail@flyweights@boost@@@multi_index@boost@@U?$hash@USTSStyle@@@3@U?$equal_to@USTSStyle@@@std@@Una@mpl@3@@multi_index@boost@@@mpl@boost@@$0A@@mpl@4@Una@64@U764@U764@@?$arg@$01@mpl@boost@@2IB ; boost::mpl::arg<2>::apply<boost::multi_index::detail::index_node_base<boost::flyweights::detail::refcounted_value<boost::flyweights::detail::default_value_policy<STSStyle>::rep_type,STSStyle>,std::allocator<boost::flyweights::detail::refcounted_value<boost::flyweights::detail::default_value_policy<STSStyle>::rep_type,STSStyle> > >,boost::mpl::v_iter<boost::mpl::vector1<boost::multi_index::hashed_unique<boost::multi_index::identity<boost::flyweights::detail::refcounted_value<boost::flyweights::detail::default_value_policy<STSStyle>::rep_type,STSStyle> >,boost::hash<STSStyle>,std::equal_to<STSStyle>,boost::mpl::na> >,0>,boost::mpl::na,boost::mpl::na,boost::mpl::na>::mpl_assertion_in_line_2
PUBLIC	?is_const@?$cv_traits_imp@PAU?$identity@V?$refcounted_value@Urep_type@?$default_value_policy@USTSStyle@@@detail@flyweights@boost@@USTSStyle@@@detail@flyweights@boost@@@multi_index@boost@@@detail@boost@@2_NB ; boost::detail::cv_traits_imp<boost::multi_index::identity<boost::flyweights::detail::refcounted_value<boost::flyweights::detail::default_value_policy<STSStyle>::rep_type,STSStyle> > *>::is_const
PUBLIC	?is_volatile@?$cv_traits_imp@PAU?$identity@V?$refcounted_value@Urep_type@?$default_value_policy@USTSStyle@@@detail@flyweights@boost@@USTSStyle@@@detail@flyweights@boost@@@multi_index@boost@@@detail@boost@@2_NB ; boost::detail::cv_traits_imp<boost::multi_index::identity<boost::flyweights::detail::refcounted_value<boost::flyweights::detail::default_value_policy<STSStyle>::rep_type,STSStyle> > *>::is_volatile
PUBLIC	?is_const@?$cv_traits_imp@PAV?$refcounted_value@Urep_type@?$default_value_policy@USTSStyle@@@detail@flyweights@boost@@USTSStyle@@@detail@flyweights@boost@@@detail@boost@@2_NB ; boost::detail::cv_traits_imp<boost::flyweights::detail::refcounted_value<boost::flyweights::detail::default_value_policy<STSStyle>::rep_type,STSStyle> *>::is_const
PUBLIC	?is_volatile@?$cv_traits_imp@PAV?$refcounted_value@Urep_type@?$default_value_policy@USTSStyle@@@detail@flyweights@boost@@USTSStyle@@@detail@flyweights@boost@@@detail@boost@@2_NB ; boost::detail::cv_traits_imp<boost::flyweights::detail::refcounted_value<boost::flyweights::detail::default_value_policy<STSStyle>::rep_type,STSStyle> *>::is_volatile
PUBLIC	?value@?$is_const_rvalue_filter@V?$refcounted_value@Urep_type@?$default_value_policy@USTSStyle@@@detail@flyweights@boost@@USTSStyle@@@detail@flyweights@boost@@@detail@boost@@2_NB ; boost::detail::is_const_rvalue_filter<boost::flyweights::detail::refcounted_value<boost::flyweights::detail::default_value_policy<STSStyle>::rep_type,STSStyle> >::value
PUBLIC	?value@?$is_base_and_derived_impl@Utag_marker@detail@multi_index@boost@@U?$identity@V?$refcounted_value@Urep_type@?$default_value_policy@USTSStyle@@@detail@flyweights@boost@@USTSStyle@@@detail@flyweights@boost@@@34@@detail@boost@@2_NB ; boost::detail::is_base_and_derived_impl<boost::multi_index::detail::tag_marker,boost::multi_index::identity<boost::flyweights::detail::refcounted_value<boost::flyweights::detail::default_value_policy<STSStyle>::rep_type,STSStyle> > >::value
PUBLIC	?value@?$is_tag@U?$identity@V?$refcounted_value@Urep_type@?$default_value_policy@USTSStyle@@@detail@flyweights@boost@@USTSStyle@@@detail@flyweights@boost@@@multi_index@boost@@@detail@multi_index@boost@@2_NB ; boost::multi_index::detail::is_tag<boost::multi_index::identity<boost::flyweights::detail::refcounted_value<boost::flyweights::detail::default_value_policy<STSStyle>::rep_type,STSStyle> > >::value
PUBLIC	?value@?$is_partial_std_allocator@V?$allocator@V?$refcounted_value@Urep_type@?$default_value_policy@USTSStyle@@@detail@flyweights@boost@@USTSStyle@@@detail@flyweights@boost@@@std@@@allocator@detail@boost@@2_NB ; boost::detail::allocator::is_partial_std_allocator<std::allocator<boost::flyweights::detail::refcounted_value<boost::flyweights::detail::default_value_policy<STSStyle>::rep_type,STSStyle> > >::value
PUBLIC	?length@?$nth_layer@$0A@V?$refcounted_value@Urep_type@?$default_value_policy@USTSStyle@@@detail@flyweights@boost@@USTSStyle@@@detail@flyweights@boost@@Uindex_list@?$hashed_factory_class@V?$refcounted_value@Urep_type@?$default_value_policy@USTSStyle@@@detail@flyweights@boost@@USTSStyle@@@detail@flyweights@boost@@USTSStyle@@Una@mpl@4@U674@U674@@34@V?$allocator@V?$refcounted_value@Urep_type@?$default_value_policy@USTSStyle@@@detail@flyweights@boost@@USTSStyle@@@detail@flyweights@boost@@@std@@@detail@multi_index@boost@@2HB ; boost::multi_index::detail::nth_layer<0,boost::flyweights::detail::refcounted_value<boost::flyweights::detail::default_value_policy<STSStyle>::rep_type,STSStyle>,boost::flyweights::hashed_factory_class<boost::flyweights::detail::refcounted_value<boost::flyweights::detail::default_value_policy<STSStyle>::rep_type,STSStyle>,STSStyle,boost::mpl::na,boost::mpl::na,boost::mpl::na>::index_list,std::allocator<boost::flyweights::detail::refcounted_value<boost::flyweights::detail::default_value_policy<STSStyle>::rep_type,STSStyle> > >::length
PUBLIC	?length@?$nth_layer@$00V?$refcounted_value@Urep_type@?$default_value_policy@USTSStyle@@@detail@flyweights@boost@@USTSStyle@@@detail@flyweights@boost@@Uindex_list@?$hashed_factory_class@V?$refcounted_value@Urep_type@?$default_value_policy@USTSStyle@@@detail@flyweights@boost@@USTSStyle@@@detail@flyweights@boost@@USTSStyle@@Una@mpl@4@U674@U674@@34@V?$allocator@V?$refcounted_value@Urep_type@?$default_value_policy@USTSStyle@@@detail@flyweights@boost@@USTSStyle@@@detail@flyweights@boost@@@std@@@detail@multi_index@boost@@2HB ; boost::multi_index::detail::nth_layer<1,boost::flyweights::detail::refcounted_value<boost::flyweights::detail::default_value_policy<STSStyle>::rep_type,STSStyle>,boost::flyweights::hashed_factory_class<boost::flyweights::detail::refcounted_value<boost::flyweights::detail::default_value_policy<STSStyle>::rep_type,STSStyle>,STSStyle,boost::mpl::na,boost::mpl::na,boost::mpl::na>::index_list,std::allocator<boost::flyweights::detail::refcounted_value<boost::flyweights::detail::default_value_policy<STSStyle>::rep_type,STSStyle> > >::length
PUBLIC	?value@?$is_pointer_helper@V?$refcounted_value@Urep_type@?$default_value_policy@USTSStyle@@@detail@flyweights@boost@@USTSStyle@@@detail@flyweights@boost@@@detail@boost@@2_NB ; boost::detail::is_pointer_helper<boost::flyweights::detail::refcounted_value<boost::flyweights::detail::default_value_policy<STSStyle>::rep_type,STSStyle> >::value
PUBLIC	?value@?$is_reference_impl@V?$refcounted_value@Urep_type@?$default_value_policy@USTSStyle@@@detail@flyweights@boost@@USTSStyle@@@detail@flyweights@boost@@@detail@boost@@2_NB ; boost::detail::is_reference_impl<boost::flyweights::detail::refcounted_value<boost::flyweights::detail::default_value_policy<STSStyle>::rep_type,STSStyle> >::value
PUBLIC	?value@?$result_@V?$refcounted_value@Urep_type@?$default_value_policy@USTSStyle@@@detail@flyweights@boost@@USTSStyle@@@detail@flyweights@boost@@@?$is_mem_fun_pointer_select@$0A@@detail@boost@@2_NB ; boost::detail::is_mem_fun_pointer_select<0>::result_<boost::flyweights::detail::refcounted_value<boost::flyweights::detail::default_value_policy<STSStyle>::rep_type,STSStyle> >::value
PUBLIC	?value@?$is_pointer_impl@V?$refcounted_value@Urep_type@?$default_value_policy@USTSStyle@@@detail@flyweights@boost@@USTSStyle@@@detail@flyweights@boost@@@detail@boost@@2_NB ; boost::detail::is_pointer_impl<boost::flyweights::detail::refcounted_value<boost::flyweights::detail::default_value_policy<STSStyle>::rep_type,STSStyle> >::value
PUBLIC	?value@?$is_arithmetic_impl@V?$refcounted_value@Urep_type@?$default_value_policy@USTSStyle@@@detail@flyweights@boost@@USTSStyle@@@detail@flyweights@boost@@@detail@boost@@2_NB ; boost::detail::is_arithmetic_impl<boost::flyweights::detail::refcounted_value<boost::flyweights::detail::default_value_policy<STSStyle>::rep_type,STSStyle> >::value
PUBLIC	?value@?$alignment_of_impl@V?$refcounted_value@Urep_type@?$default_value_policy@USTSStyle@@@detail@flyweights@boost@@USTSStyle@@@detail@flyweights@boost@@@detail@boost@@2IB ; boost::detail::alignment_of_impl<boost::flyweights::detail::refcounted_value<boost::flyweights::detail::default_value_policy<STSStyle>::rep_type,STSStyle> >::value
PUBLIC	?size@?$aligned_storage@$0MA@$07@boost@@2IB	; boost::aligned_storage<192,8>::size
PUBLIC	?alignment@?$aligned_storage@$0MA@$07@boost@@2IB ; boost::aligned_storage<192,8>::alignment
PUBLIC	?value@?$has_tag_impl_@U?$vector1@V?$hashed_index@U?$identity@V?$refcounted_value@Urep_type@?$default_value_policy@USTSStyle@@@detail@flyweights@boost@@USTSStyle@@@detail@flyweights@boost@@@multi_index@boost@@U?$hash@USTSStyle@@@3@U?$equal_to@USTSStyle@@@std@@U?$nth_layer@$00V?$refcounted_value@Urep_type@?$default_value_policy@USTSStyle@@@detail@flyweights@boost@@USTSStyle@@@detail@flyweights@boost@@Uindex_list@?$hashed_factory_class@V?$refcounted_value@Urep_type@?$default_value_policy@USTSStyle@@@detail@flyweights@boost@@USTSStyle@@@detail@flyweights@boost@@USTSStyle@@Una@mpl@4@U674@U674@@34@V?$allocator@V?$refcounted_value@Urep_type@?$default_value_policy@USTSStyle@@@detail@flyweights@boost@@USTSStyle@@@detail@flyweights@boost@@@std@@@detail@23@U?$vector0@Una@mpl@boost@@@mpl@3@Uhashed_unique_tag@823@@detail@multi_index@boost@@@mpl@boost@@X@aux@mpl@boost@@2_NB ; boost::mpl::aux::has_tag_impl_<boost::mpl::vector1<boost::multi_index::detail::hashed_index<boost::multi_index::identity<boost::flyweights::detail::refcounted_value<boost::flyweights::detail::default_value_policy<STSStyle>::rep_type,STSStyle> >,boost::hash<STSStyle>,std::equal_to<STSStyle>,boost::multi_index::detail::nth_layer<1,boost::flyweights::detail::refcounted_value<boost::flyweights::detail::default_value_policy<STSStyle>::rep_type,STSStyle>,boost::flyweights::hashed_factory_class<boost::flyweights::detail::refcounted_value<boost::flyweights::detail::default_value_policy<STSStyle>::rep_type,STSStyle>,STSStyle,boost::mpl::na,boost::mpl::na,boost::mpl::na>::index_list,std::allocator<boost::flyweights::detail::refcounted_value<boost::flyweights::detail::default_value_policy<STSStyle>::rep_type,STSStyle> > >,boost::mpl::vector0<boost::mpl::na>,boost::multi_index::detail::hashed_unique_tag> >,void>::value
PUBLIC	?value@?$has_begin_impl_@U?$vector1@V?$hashed_index@U?$identity@V?$refcounted_value@Urep_type@?$default_value_policy@USTSStyle@@@detail@flyweights@boost@@USTSStyle@@@detail@flyweights@boost@@@multi_index@boost@@U?$hash@USTSStyle@@@3@U?$equal_to@USTSStyle@@@std@@U?$nth_layer@$00V?$refcounted_value@Urep_type@?$default_value_policy@USTSStyle@@@detail@flyweights@boost@@USTSStyle@@@detail@flyweights@boost@@Uindex_list@?$hashed_factory_class@V?$refcounted_value@Urep_type@?$default_value_policy@USTSStyle@@@detail@flyweights@boost@@USTSStyle@@@detail@flyweights@boost@@USTSStyle@@Una@mpl@4@U674@U674@@34@V?$allocator@V?$refcounted_value@Urep_type@?$default_value_policy@USTSStyle@@@detail@flyweights@boost@@USTSStyle@@@detail@flyweights@boost@@@std@@@detail@23@U?$vector0@Una@mpl@boost@@@mpl@3@Uhashed_unique_tag@823@@detail@multi_index@boost@@@mpl@boost@@X@aux@mpl@boost@@2_NB ; boost::mpl::aux::has_begin_impl_<boost::mpl::vector1<boost::multi_index::detail::hashed_index<boost::multi_index::identity<boost::flyweights::detail::refcounted_value<boost::flyweights::detail::default_value_policy<STSStyle>::rep_type,STSStyle> >,boost::hash<STSStyle>,std::equal_to<STSStyle>,boost::multi_index::detail::nth_layer<1,boost::flyweights::detail::refcounted_value<boost::flyweights::detail::default_value_policy<STSStyle>::rep_type,STSStyle>,boost::flyweights::hashed_factory_class<boost::flyweights::detail::refcounted_value<boost::flyweights::detail::default_value_policy<STSStyle>::rep_type,STSStyle>,STSStyle,boost::mpl::na,boost::mpl::na,boost::mpl::na>::index_list,std::allocator<boost::flyweights::detail::refcounted_value<boost::flyweights::detail::default_value_policy<STSStyle>::rep_type,STSStyle> > >,boost::mpl::vector0<boost::mpl::na>,boost::multi_index::detail::hashed_unique_tag> >,void>::value
PUBLIC	?value@?$no_duplicate_tags_in_index_list@U?$vector1@V?$hashed_index@U?$identity@V?$refcounted_value@Urep_type@?$default_value_policy@USTSStyle@@@detail@flyweights@boost@@USTSStyle@@@detail@flyweights@boost@@@multi_index@boost@@U?$hash@USTSStyle@@@3@U?$equal_to@USTSStyle@@@std@@U?$nth_layer@$00V?$refcounted_value@Urep_type@?$default_value_policy@USTSStyle@@@detail@flyweights@boost@@USTSStyle@@@detail@flyweights@boost@@Uindex_list@?$hashed_factory_class@V?$refcounted_value@Urep_type@?$default_value_policy@USTSStyle@@@detail@flyweights@boost@@USTSStyle@@@detail@flyweights@boost@@USTSStyle@@Una@mpl@4@U674@U674@@34@V?$allocator@V?$refcounted_value@Urep_type@?$default_value_policy@USTSStyle@@@detail@flyweights@boost@@USTSStyle@@@detail@flyweights@boost@@@std@@@detail@23@U?$vector0@Una@mpl@boost@@@mpl@3@Uhashed_unique_tag@823@@detail@multi_index@boost@@@mpl@boost@@@detail@multi_index@boost@@2_NB ; boost::multi_index::detail::no_duplicate_tags_in_index_list<boost::mpl::vector1<boost::multi_index::detail::hashed_index<boost::multi_index::identity<boost::flyweights::detail::refcounted_value<boost::flyweights::detail::default_value_policy<STSStyle>::rep_type,STSStyle> >,boost::hash<STSStyle>,std::equal_to<STSStyle>,boost::multi_index::detail::nth_layer<1,boost::flyweights::detail::refcounted_value<boost::flyweights::detail::default_value_policy<STSStyle>::rep_type,STSStyle>,boost::flyweights::hashed_factory_class<boost::flyweights::detail::refcounted_value<boost::flyweights::detail::default_value_policy<STSStyle>::rep_type,STSStyle>,STSStyle,boost::mpl::na,boost::mpl::na,boost::mpl::na>::index_list,std::allocator<boost::flyweights::detail::refcounted_value<boost::flyweights::detail::default_value_policy<STSStyle>::rep_type,STSStyle> > >,boost::mpl::vector0<boost::mpl::na>,boost::multi_index::detail::hashed_unique_tag> > >::value
PUBLIC	?value@?$has_type_impl_@V?$hashed_factory_class@V?$refcounted_value@Urep_type@?$default_value_policy@USTSStyle@@@detail@flyweights@boost@@USTSStyle@@@detail@flyweights@boost@@USTSStyle@@Una@mpl@4@U674@U674@@flyweights@boost@@X@aux@mpl@boost@@2_NB ; boost::mpl::aux::has_type_impl_<boost::flyweights::hashed_factory_class<boost::flyweights::detail::refcounted_value<boost::flyweights::detail::default_value_policy<STSStyle>::rep_type,STSStyle>,STSStyle,boost::mpl::na,boost::mpl::na,boost::mpl::na>,void>::value
PUBLIC	?MIN_CMD_LENGTH@CRenderedTextSubtitle@@2HB	; CRenderedTextSubtitle::MIN_CMD_LENGTH
PUBLIC	?MAX_CMD_LENGTH@CRenderedTextSubtitle@@2HB	; CRenderedTextSubtitle::MAX_CMD_LENGTH
PUBLIC	?CLIPPER_ALPHA_MASK_MRU_CACHE@CacheManager@@2HB	; CacheManager::CLIPPER_ALPHA_MASK_MRU_CACHE
PUBLIC	?TEXT_INFO_CACHE_ITEM_NUM@CacheManager@@2HB	; CacheManager::TEXT_INFO_CACHE_ITEM_NUM
PUBLIC	?ASS_TAG_LIST_CACHE_ITEM_NUM@CacheManager@@2HB	; CacheManager::ASS_TAG_LIST_CACHE_ITEM_NUM
PUBLIC	?SUBPIXEL_VARIANCE_CACHE_ITEM_NUM@CacheManager@@2HB ; CacheManager::SUBPIXEL_VARIANCE_CACHE_ITEM_NUM
PUBLIC	?OVERLAY_CACHE_ITEM_NUM@CacheManager@@2HB	; CacheManager::OVERLAY_CACHE_ITEM_NUM
PUBLIC	?OVERLAY_NO_BLUR_CACHE_ITEM_NUM@CacheManager@@2HB ; CacheManager::OVERLAY_NO_BLUR_CACHE_ITEM_NUM
PUBLIC	?SCAN_LINE_DATA_CACHE_ITEM_NUM@CacheManager@@2HB ; CacheManager::SCAN_LINE_DATA_CACHE_ITEM_NUM
PUBLIC	?PATH_CACHE_ITEM_NUM@CacheManager@@2HB		; CacheManager::PATH_CACHE_ITEM_NUM
PUBLIC	?WORD_CACHE_ITEM_NUM@CacheManager@@2HB		; CacheManager::WORD_CACHE_ITEM_NUM
PUBLIC	?VOLUME_BITS@ass_synth_priv@@2HB		; ass_synth_priv::VOLUME_BITS
PUBLIC	?is_const@?$cv_traits_imp@PAU?$key_value@NVass_synth_priv@@Uass_synth_priv_key@@@flyweights@boost@@@detail@boost@@2_NB ; boost::detail::cv_traits_imp<boost::flyweights::key_value<double,ass_synth_priv,ass_synth_priv_key> *>::is_const
PUBLIC	?is_volatile@?$cv_traits_imp@PAU?$key_value@NVass_synth_priv@@Uass_synth_priv_key@@@flyweights@boost@@@detail@boost@@2_NB ; boost::detail::cv_traits_imp<boost::flyweights::key_value<double,ass_synth_priv,ass_synth_priv_key> *>::is_volatile
PUBLIC	?value@?$is_base_and_derived_impl@Uvalue_marker@detail@flyweights@boost@@U?$key_value@NVass_synth_priv@@Uass_synth_priv_key@@@34@@detail@boost@@2_NB ; boost::detail::is_base_and_derived_impl<boost::flyweights::detail::value_marker,boost::flyweights::key_value<double,ass_synth_priv,ass_synth_priv_key> >::value
PUBLIC	?mpl_assertion_in_line_12@?$flyweight@U?$key_value@NVass_synth_priv@@Uass_synth_priv_key@@@flyweights@boost@@Uno_locking@23@Uvoid_@parameter@3@U563@U563@U563@@flyweights@boost@@0IB ; boost::flyweights::flyweight<boost::flyweights::key_value<double,ass_synth_priv,ass_synth_priv_key>,boost::flyweights::no_locking,boost::parameter::void_,boost::parameter::void_,boost::parameter::void_,boost::parameter::void_>::mpl_assertion_in_line_12
PUBLIC	?p@?$assert_arg_pred_not@U?$is_na@V?$refcounted_value@Vrep_type@?$optimized_key_value@NVass_synth_priv@@Uass_synth_priv_key@@@detail@flyweights@boost@@N@detail@flyweights@boost@@@mpl@boost@@@mpl@boost@@2_NB ; boost::mpl::assert_arg_pred_not<boost::mpl::is_na<boost::flyweights::detail::refcounted_value<boost::flyweights::detail::optimized_key_value<double,ass_synth_priv,ass_synth_priv_key>::rep_type,double> > >::p
PUBLIC	?mpl_assertion_in_line_1@?$apply@V?$refcounted_value@Vrep_type@?$optimized_key_value@NVass_synth_priv@@Uass_synth_priv_key@@@detail@flyweights@boost@@N@detail@flyweights@boost@@NUna@mpl@4@U564@U564@@?$arg@$00@mpl@boost@@2IB ; boost::mpl::arg<1>::apply<boost::flyweights::detail::refcounted_value<boost::flyweights::detail::optimized_key_value<double,ass_synth_priv,ass_synth_priv_key>::rep_type,double>,double,boost::mpl::na,boost::mpl::na,boost::mpl::na>::mpl_assertion_in_line_1
PUBLIC	?p@?$assert_arg_pred_not@U?$is_na@N@mpl@boost@@@mpl@boost@@2_NB ; boost::mpl::assert_arg_pred_not<boost::mpl::is_na<double> >::p
PUBLIC	?mpl_assertion_in_line_2@?$apply@V?$refcounted_value@Vrep_type@?$optimized_key_value@NVass_synth_priv@@Uass_synth_priv_key@@@detail@flyweights@boost@@N@detail@flyweights@boost@@NUna@mpl@4@U564@U564@@?$arg@$01@mpl@boost@@2IB ; boost::mpl::arg<2>::apply<boost::flyweights::detail::refcounted_value<boost::flyweights::detail::optimized_key_value<double,ass_synth_priv,ass_synth_priv_key>::rep_type,double>,double,boost::mpl::na,boost::mpl::na,boost::mpl::na>::mpl_assertion_in_line_2
PUBLIC	?value@?$has_tag_impl_@Uindex_list@?$hashed_factory_class@V?$refcounted_value@Vrep_type@?$optimized_key_value@NVass_synth_priv@@Uass_synth_priv_key@@@detail@flyweights@boost@@N@detail@flyweights@boost@@NUna@mpl@4@U564@U564@@flyweights@boost@@X@aux@mpl@boost@@2_NB ; boost::mpl::aux::has_tag_impl_<boost::flyweights::hashed_factory_class<boost::flyweights::detail::refcounted_value<boost::flyweights::detail::optimized_key_value<double,ass_synth_priv,ass_synth_priv_key>::rep_type,double>,double,boost::mpl::na,boost::mpl::na,boost::mpl::na>::index_list,void>::value
PUBLIC	?value@?$has_begin_impl_@Uindex_list@?$hashed_factory_class@V?$refcounted_value@Vrep_type@?$optimized_key_value@NVass_synth_priv@@Uass_synth_priv_key@@@detail@flyweights@boost@@N@detail@flyweights@boost@@NUna@mpl@4@U564@U564@@flyweights@boost@@X@aux@mpl@boost@@2_NB ; boost::mpl::aux::has_begin_impl_<boost::flyweights::hashed_factory_class<boost::flyweights::detail::refcounted_value<boost::flyweights::detail::optimized_key_value<double,ass_synth_priv,ass_synth_priv_key>::rep_type,double>,double,boost::mpl::na,boost::mpl::na,boost::mpl::na>::index_list,void>::value
PUBLIC	?mpl_sequence@?$is_index_list@Uindex_list@?$hashed_factory_class@V?$refcounted_value@Vrep_type@?$optimized_key_value@NVass_synth_priv@@Uass_synth_priv_key@@@detail@flyweights@boost@@N@detail@flyweights@boost@@NUna@mpl@4@U564@U564@@flyweights@boost@@@detail@multi_index@boost@@2_NB ; boost::multi_index::detail::is_index_list<boost::flyweights::hashed_factory_class<boost::flyweights::detail::refcounted_value<boost::flyweights::detail::optimized_key_value<double,ass_synth_priv,ass_synth_priv_key>::rep_type,double>,double,boost::mpl::na,boost::mpl::na,boost::mpl::na>::index_list>::mpl_sequence
PUBLIC	?non_empty@?$is_index_list@Uindex_list@?$hashed_factory_class@V?$refcounted_value@Vrep_type@?$optimized_key_value@NVass_synth_priv@@Uass_synth_priv_key@@@detail@flyweights@boost@@N@detail@flyweights@boost@@NUna@mpl@4@U564@U564@@flyweights@boost@@@detail@multi_index@boost@@2_NB ; boost::multi_index::detail::is_index_list<boost::flyweights::hashed_factory_class<boost::flyweights::detail::refcounted_value<boost::flyweights::detail::optimized_key_value<double,ass_synth_priv,ass_synth_priv_key>::rep_type,double>,double,boost::mpl::na,boost::mpl::na,boost::mpl::na>::index_list>::non_empty
PUBLIC	?value@?$is_index_list@Uindex_list@?$hashed_factory_class@V?$refcounted_value@Vrep_type@?$optimized_key_value@NVass_synth_priv@@Uass_synth_priv_key@@@detail@flyweights@boost@@N@detail@flyweights@boost@@NUna@mpl@4@U564@U564@@flyweights@boost@@@detail@multi_index@boost@@2_NB ; boost::multi_index::detail::is_index_list<boost::flyweights::hashed_factory_class<boost::flyweights::detail::refcounted_value<boost::flyweights::detail::optimized_key_value<double,ass_synth_priv,ass_synth_priv_key>::rep_type,double>,double,boost::mpl::na,boost::mpl::na,boost::mpl::na>::index_list>::value
PUBLIC	?p@?$assert_arg_pred_not@U?$is_na@U?$index_node_base@V?$refcounted_value@Vrep_type@?$optimized_key_value@NVass_synth_priv@@Uass_synth_priv_key@@@detail@flyweights@boost@@N@detail@flyweights@boost@@V?$allocator@V?$refcounted_value@Vrep_type@?$optimized_key_value@NVass_synth_priv@@Uass_synth_priv_key@@@detail@flyweights@boost@@N@detail@flyweights@boost@@@std@@@detail@multi_index@boost@@@mpl@boost@@@mpl@boost@@2_NB ; boost::mpl::assert_arg_pred_not<boost::mpl::is_na<boost::multi_index::detail::index_node_base<boost::flyweights::detail::refcounted_value<boost::flyweights::detail::optimized_key_value<double,ass_synth_priv,ass_synth_priv_key>::rep_type,double>,std::allocator<boost::flyweights::detail::refcounted_value<boost::flyweights::detail::optimized_key_value<double,ass_synth_priv,ass_synth_priv_key>::rep_type,double> > > > >::p
PUBLIC	?mpl_assertion_in_line_1@?$apply@U?$index_node_base@V?$refcounted_value@Vrep_type@?$optimized_key_value@NVass_synth_priv@@Uass_synth_priv_key@@@detail@flyweights@boost@@N@detail@flyweights@boost@@V?$allocator@V?$refcounted_value@Vrep_type@?$optimized_key_value@NVass_synth_priv@@Uass_synth_priv_key@@@detail@flyweights@boost@@N@detail@flyweights@boost@@@std@@@detail@multi_index@boost@@U?$v_iter@U?$vector1@U?$hashed_unique@U?$identity@V?$refcounted_value@Vrep_type@?$optimized_key_value@NVass_synth_priv@@Uass_synth_priv_key@@@detail@flyweights@boost@@N@detail@flyweights@boost@@@multi_index@boost@@U?$hash@N@3@U?$equal_to@N@std@@Una@mpl@3@@multi_index@boost@@@mpl@boost@@$0A@@mpl@4@Una@64@U764@U764@@?$arg@$00@mpl@boost@@2IB ; boost::mpl::arg<1>::apply<boost::multi_index::detail::index_node_base<boost::flyweights::detail::refcounted_value<boost::flyweights::detail::optimized_key_value<double,ass_synth_priv,ass_synth_priv_key>::rep_type,double>,std::allocator<boost::flyweights::detail::refcounted_value<boost::flyweights::detail::optimized_key_value<double,ass_synth_priv,ass_synth_priv_key>::rep_type,double> > >,boost::mpl::v_iter<boost::mpl::vector1<boost::multi_index::hashed_unique<boost::multi_index::identity<boost::flyweights::detail::refcounted_value<boost::flyweights::detail::optimized_key_value<double,ass_synth_priv,ass_synth_priv_key>::rep_type,double> >,boost::hash<double>,std::equal_to<double>,boost::mpl::na> >,0>,boost::mpl::na,boost::mpl::na,boost::mpl::na>::mpl_assertion_in_line_1
PUBLIC	?p@?$assert_arg_pred_not@U?$is_na@U?$v_iter@U?$vector1@U?$hashed_unique@U?$identity@V?$refcounted_value@Vrep_type@?$optimized_key_value@NVass_synth_priv@@Uass_synth_priv_key@@@detail@flyweights@boost@@N@detail@flyweights@boost@@@multi_index@boost@@U?$hash@N@3@U?$equal_to@N@std@@Una@mpl@3@@multi_index@boost@@@mpl@boost@@$0A@@mpl@boost@@@mpl@boost@@@mpl@boost@@2_NB ; boost::mpl::assert_arg_pred_not<boost::mpl::is_na<boost::mpl::v_iter<boost::mpl::vector1<boost::multi_index::hashed_unique<boost::multi_index::identity<boost::flyweights::detail::refcounted_value<boost::flyweights::detail::optimized_key_value<double,ass_synth_priv,ass_synth_priv_key>::rep_type,double> >,boost::hash<double>,std::equal_to<double>,boost::mpl::na> >,0> > >::p
PUBLIC	?mpl_assertion_in_line_2@?$apply@U?$index_node_base@V?$refcounted_value@Vrep_type@?$optimized_key_value@NVass_synth_priv@@Uass_synth_priv_key@@@detail@flyweights@boost@@N@detail@flyweights@boost@@V?$allocator@V?$refcounted_value@Vrep_type@?$optimized_key_value@NVass_synth_priv@@Uass_synth_priv_key@@@detail@flyweights@boost@@N@detail@flyweights@boost@@@std@@@detail@multi_index@boost@@U?$v_iter@U?$vector1@U?$hashed_unique@U?$identity@V?$refcounted_value@Vrep_type@?$optimized_key_value@NVass_synth_priv@@Uass_synth_priv_key@@@detail@flyweights@boost@@N@detail@flyweights@boost@@@multi_index@boost@@U?$hash@N@3@U?$equal_to@N@std@@Una@mpl@3@@multi_index@boost@@@mpl@boost@@$0A@@mpl@4@Una@64@U764@U764@@?$arg@$01@mpl@boost@@2IB ; boost::mpl::arg<2>::apply<boost::multi_index::detail::index_node_base<boost::flyweights::detail::refcounted_value<boost::flyweights::detail::optimized_key_value<double,ass_synth_priv,ass_synth_priv_key>::rep_type,double>,std::allocator<boost::flyweights::detail::refcounted_value<boost::flyweights::detail::optimized_key_value<double,ass_synth_priv,ass_synth_priv_key>::rep_type,double> > >,boost::mpl::v_iter<boost::mpl::vector1<boost::multi_index::hashed_unique<boost::multi_index::identity<boost::flyweights::detail::refcounted_value<boost::flyweights::detail::optimized_key_value<double,ass_synth_priv,ass_synth_priv_key>::rep_type,double> >,boost::hash<double>,std::equal_to<double>,boost::mpl::na> >,0>,boost::mpl::na,boost::mpl::na,boost::mpl::na>::mpl_assertion_in_line_2
PUBLIC	?is_const@?$cv_traits_imp@PAU?$identity@V?$refcounted_value@Vrep_type@?$optimized_key_value@NVass_synth_priv@@Uass_synth_priv_key@@@detail@flyweights@boost@@N@detail@flyweights@boost@@@multi_index@boost@@@detail@boost@@2_NB ; boost::detail::cv_traits_imp<boost::multi_index::identity<boost::flyweights::detail::refcounted_value<boost::flyweights::detail::optimized_key_value<double,ass_synth_priv,ass_synth_priv_key>::rep_type,double> > *>::is_const
PUBLIC	?is_volatile@?$cv_traits_imp@PAU?$identity@V?$refcounted_value@Vrep_type@?$optimized_key_value@NVass_synth_priv@@Uass_synth_priv_key@@@detail@flyweights@boost@@N@detail@flyweights@boost@@@multi_index@boost@@@detail@boost@@2_NB ; boost::detail::cv_traits_imp<boost::multi_index::identity<boost::flyweights::detail::refcounted_value<boost::flyweights::detail::optimized_key_value<double,ass_synth_priv,ass_synth_priv_key>::rep_type,double> > *>::is_volatile
PUBLIC	?is_const@?$cv_traits_imp@PAV?$refcounted_value@Vrep_type@?$optimized_key_value@NVass_synth_priv@@Uass_synth_priv_key@@@detail@flyweights@boost@@N@detail@flyweights@boost@@@detail@boost@@2_NB ; boost::detail::cv_traits_imp<boost::flyweights::detail::refcounted_value<boost::flyweights::detail::optimized_key_value<double,ass_synth_priv,ass_synth_priv_key>::rep_type,double> *>::is_const
PUBLIC	?is_volatile@?$cv_traits_imp@PAV?$refcounted_value@Vrep_type@?$optimized_key_value@NVass_synth_priv@@Uass_synth_priv_key@@@detail@flyweights@boost@@N@detail@flyweights@boost@@@detail@boost@@2_NB ; boost::detail::cv_traits_imp<boost::flyweights::detail::refcounted_value<boost::flyweights::detail::optimized_key_value<double,ass_synth_priv,ass_synth_priv_key>::rep_type,double> *>::is_volatile
PUBLIC	?value@?$is_const_rvalue_filter@V?$refcounted_value@Vrep_type@?$optimized_key_value@NVass_synth_priv@@Uass_synth_priv_key@@@detail@flyweights@boost@@N@detail@flyweights@boost@@@detail@boost@@2_NB ; boost::detail::is_const_rvalue_filter<boost::flyweights::detail::refcounted_value<boost::flyweights::detail::optimized_key_value<double,ass_synth_priv,ass_synth_priv_key>::rep_type,double> >::value
PUBLIC	?value@?$is_base_and_derived_impl@Utag_marker@detail@multi_index@boost@@U?$identity@V?$refcounted_value@Vrep_type@?$optimized_key_value@NVass_synth_priv@@Uass_synth_priv_key@@@detail@flyweights@boost@@N@detail@flyweights@boost@@@34@@detail@boost@@2_NB ; boost::detail::is_base_and_derived_impl<boost::multi_index::detail::tag_marker,boost::multi_index::identity<boost::flyweights::detail::refcounted_value<boost::flyweights::detail::optimized_key_value<double,ass_synth_priv,ass_synth_priv_key>::rep_type,double> > >::value
PUBLIC	?value@?$is_tag@U?$identity@V?$refcounted_value@Vrep_type@?$optimized_key_value@NVass_synth_priv@@Uass_synth_priv_key@@@detail@flyweights@boost@@N@detail@flyweights@boost@@@multi_index@boost@@@detail@multi_index@boost@@2_NB ; boost::multi_index::detail::is_tag<boost::multi_index::identity<boost::flyweights::detail::refcounted_value<boost::flyweights::detail::optimized_key_value<double,ass_synth_priv,ass_synth_priv_key>::rep_type,double> > >::value
PUBLIC	?value@?$is_partial_std_allocator@V?$allocator@V?$refcounted_value@Vrep_type@?$optimized_key_value@NVass_synth_priv@@Uass_synth_priv_key@@@detail@flyweights@boost@@N@detail@flyweights@boost@@@std@@@allocator@detail@boost@@2_NB ; boost::detail::allocator::is_partial_std_allocator<std::allocator<boost::flyweights::detail::refcounted_value<boost::flyweights::detail::optimized_key_value<double,ass_synth_priv,ass_synth_priv_key>::rep_type,double> > >::value
PUBLIC	?length@?$nth_layer@$0A@V?$refcounted_value@Vrep_type@?$optimized_key_value@NVass_synth_priv@@Uass_synth_priv_key@@@detail@flyweights@boost@@N@detail@flyweights@boost@@Uindex_list@?$hashed_factory_class@V?$refcounted_value@Vrep_type@?$optimized_key_value@NVass_synth_priv@@Uass_synth_priv_key@@@detail@flyweights@boost@@N@detail@flyweights@boost@@NUna@mpl@4@U564@U564@@34@V?$allocator@V?$refcounted_value@Vrep_type@?$optimized_key_value@NVass_synth_priv@@Uass_synth_priv_key@@@detail@flyweights@boost@@N@detail@flyweights@boost@@@std@@@detail@multi_index@boost@@2HB ; boost::multi_index::detail::nth_layer<0,boost::flyweights::detail::refcounted_value<boost::flyweights::detail::optimized_key_value<double,ass_synth_priv,ass_synth_priv_key>::rep_type,double>,boost::flyweights::hashed_factory_class<boost::flyweights::detail::refcounted_value<boost::flyweights::detail::optimized_key_value<double,ass_synth_priv,ass_synth_priv_key>::rep_type,double>,double,boost::mpl::na,boost::mpl::na,boost::mpl::na>::index_list,std::allocator<boost::flyweights::detail::refcounted_value<boost::flyweights::detail::optimized_key_value<double,ass_synth_priv,ass_synth_priv_key>::rep_type,double> > >::length
PUBLIC	?length@?$nth_layer@$00V?$refcounted_value@Vrep_type@?$optimized_key_value@NVass_synth_priv@@Uass_synth_priv_key@@@detail@flyweights@boost@@N@detail@flyweights@boost@@Uindex_list@?$hashed_factory_class@V?$refcounted_value@Vrep_type@?$optimized_key_value@NVass_synth_priv@@Uass_synth_priv_key@@@detail@flyweights@boost@@N@detail@flyweights@boost@@NUna@mpl@4@U564@U564@@34@V?$allocator@V?$refcounted_value@Vrep_type@?$optimized_key_value@NVass_synth_priv@@Uass_synth_priv_key@@@detail@flyweights@boost@@N@detail@flyweights@boost@@@std@@@detail@multi_index@boost@@2HB ; boost::multi_index::detail::nth_layer<1,boost::flyweights::detail::refcounted_value<boost::flyweights::detail::optimized_key_value<double,ass_synth_priv,ass_synth_priv_key>::rep_type,double>,boost::flyweights::hashed_factory_class<boost::flyweights::detail::refcounted_value<boost::flyweights::detail::optimized_key_value<double,ass_synth_priv,ass_synth_priv_key>::rep_type,double>,double,boost::mpl::na,boost::mpl::na,boost::mpl::na>::index_list,std::allocator<boost::flyweights::detail::refcounted_value<boost::flyweights::detail::optimized_key_value<double,ass_synth_priv,ass_synth_priv_key>::rep_type,double> > >::length
PUBLIC	?value@?$is_pointer_helper@V?$refcounted_value@Vrep_type@?$optimized_key_value@NVass_synth_priv@@Uass_synth_priv_key@@@detail@flyweights@boost@@N@detail@flyweights@boost@@@detail@boost@@2_NB ; boost::detail::is_pointer_helper<boost::flyweights::detail::refcounted_value<boost::flyweights::detail::optimized_key_value<double,ass_synth_priv,ass_synth_priv_key>::rep_type,double> >::value
PUBLIC	?value@?$is_reference_impl@V?$refcounted_value@Vrep_type@?$optimized_key_value@NVass_synth_priv@@Uass_synth_priv_key@@@detail@flyweights@boost@@N@detail@flyweights@boost@@@detail@boost@@2_NB ; boost::detail::is_reference_impl<boost::flyweights::detail::refcounted_value<boost::flyweights::detail::optimized_key_value<double,ass_synth_priv,ass_synth_priv_key>::rep_type,double> >::value
PUBLIC	?value@?$result_@V?$refcounted_value@Vrep_type@?$optimized_key_value@NVass_synth_priv@@Uass_synth_priv_key@@@detail@flyweights@boost@@N@detail@flyweights@boost@@@?$is_mem_fun_pointer_select@$0A@@detail@boost@@2_NB ; boost::detail::is_mem_fun_pointer_select<0>::result_<boost::flyweights::detail::refcounted_value<boost::flyweights::detail::optimized_key_value<double,ass_synth_priv,ass_synth_priv_key>::rep_type,double> >::value
PUBLIC	?value@?$is_pointer_impl@V?$refcounted_value@Vrep_type@?$optimized_key_value@NVass_synth_priv@@Uass_synth_priv_key@@@detail@flyweights@boost@@N@detail@flyweights@boost@@@detail@boost@@2_NB ; boost::detail::is_pointer_impl<boost::flyweights::detail::refcounted_value<boost::flyweights::detail::optimized_key_value<double,ass_synth_priv,ass_synth_priv_key>::rep_type,double> >::value
PUBLIC	?value@?$is_arithmetic_impl@V?$refcounted_value@Vrep_type@?$optimized_key_value@NVass_synth_priv@@Uass_synth_priv_key@@@detail@flyweights@boost@@N@detail@flyweights@boost@@@detail@boost@@2_NB ; boost::detail::is_arithmetic_impl<boost::flyweights::detail::refcounted_value<boost::flyweights::detail::optimized_key_value<double,ass_synth_priv,ass_synth_priv_key>::rep_type,double> >::value
PUBLIC	?value@?$alignment_of_impl@N@detail@boost@@2IB	; boost::detail::alignment_of_impl<double>::value
PUBLIC	?value@?$alignment_of_impl@Vass_synth_priv@@@detail@boost@@2IB ; boost::detail::alignment_of_impl<ass_synth_priv>::value
PUBLIC	?size@?$aligned_storage@$0BI@$07@boost@@2IB	; boost::aligned_storage<24,8>::size
PUBLIC	?alignment@?$aligned_storage@$0BI@$07@boost@@2IB ; boost::aligned_storage<24,8>::alignment
PUBLIC	?value@?$alignment_of_impl@V?$refcounted_value@Vrep_type@?$optimized_key_value@NVass_synth_priv@@Uass_synth_priv_key@@@detail@flyweights@boost@@N@detail@flyweights@boost@@@detail@boost@@2IB ; boost::detail::alignment_of_impl<boost::flyweights::detail::refcounted_value<boost::flyweights::detail::optimized_key_value<double,ass_synth_priv,ass_synth_priv_key>::rep_type,double> >::value
PUBLIC	?size@?$aligned_storage@$0CI@$07@boost@@2IB	; boost::aligned_storage<40,8>::size
PUBLIC	?alignment@?$aligned_storage@$0CI@$07@boost@@2IB ; boost::aligned_storage<40,8>::alignment
PUBLIC	?value@?$has_tag_impl_@U?$vector1@V?$hashed_index@U?$identity@V?$refcounted_value@Vrep_type@?$optimized_key_value@NVass_synth_priv@@Uass_synth_priv_key@@@detail@flyweights@boost@@N@detail@flyweights@boost@@@multi_index@boost@@U?$hash@N@3@U?$equal_to@N@std@@U?$nth_layer@$00V?$refcounted_value@Vrep_type@?$optimized_key_value@NVass_synth_priv@@Uass_synth_priv_key@@@detail@flyweights@boost@@N@detail@flyweights@boost@@Uindex_list@?$hashed_factory_class@V?$refcounted_value@Vrep_type@?$optimized_key_value@NVass_synth_priv@@Uass_synth_priv_key@@@detail@flyweights@boost@@N@detail@flyweights@boost@@NUna@mpl@4@U564@U564@@34@V?$allocator@V?$refcounted_value@Vrep_type@?$optimized_key_value@NVass_synth_priv@@Uass_synth_priv_key@@@detail@flyweights@boost@@N@detail@flyweights@boost@@@std@@@detail@23@U?$vector0@Una@mpl@boost@@@mpl@3@Uhashed_unique_tag@823@@detail@multi_index@boost@@@mpl@boost@@X@aux@mpl@boost@@2_NB ; boost::mpl::aux::has_tag_impl_<boost::mpl::vector1<boost::multi_index::detail::hashed_index<boost::multi_index::identity<boost::flyweights::detail::refcounted_value<boost::flyweights::detail::optimized_key_value<double,ass_synth_priv,ass_synth_priv_key>::rep_type,double> >,boost::hash<double>,std::equal_to<double>,boost::multi_index::detail::nth_layer<1,boost::flyweights::detail::refcounted_value<boost::flyweights::detail::optimized_key_value<double,ass_synth_priv,ass_synth_priv_key>::rep_type,double>,boost::flyweights::hashed_factory_class<boost::flyweights::detail::refcounted_value<boost::flyweights::detail::optimized_key_value<double,ass_synth_priv,ass_synth_priv_key>::rep_type,double>,double,boost::mpl::na,boost::mpl::na,boost::mpl::na>::index_list,std::allocator<boost::flyweights::detail::refcounted_value<boost::flyweights::detail::optimized_key_value<double,ass_synth_priv,ass_synth_priv_key>::rep_type,double> > >,boost::mpl::vector0<boost::mpl::na>,boost::multi_index::detail::hashed_unique_tag> >,void>::value
PUBLIC	?value@?$has_begin_impl_@U?$vector1@V?$hashed_index@U?$identity@V?$refcounted_value@Vrep_type@?$optimized_key_value@NVass_synth_priv@@Uass_synth_priv_key@@@detail@flyweights@boost@@N@detail@flyweights@boost@@@multi_index@boost@@U?$hash@N@3@U?$equal_to@N@std@@U?$nth_layer@$00V?$refcounted_value@Vrep_type@?$optimized_key_value@NVass_synth_priv@@Uass_synth_priv_key@@@detail@flyweights@boost@@N@detail@flyweights@boost@@Uindex_list@?$hashed_factory_class@V?$refcounted_value@Vrep_type@?$optimized_key_value@NVass_synth_priv@@Uass_synth_priv_key@@@detail@flyweights@boost@@N@detail@flyweights@boost@@NUna@mpl@4@U564@U564@@34@V?$allocator@V?$refcounted_value@Vrep_type@?$optimized_key_value@NVass_synth_priv@@Uass_synth_priv_key@@@detail@flyweights@boost@@N@detail@flyweights@boost@@@std@@@detail@23@U?$vector0@Una@mpl@boost@@@mpl@3@Uhashed_unique_tag@823@@detail@multi_index@boost@@@mpl@boost@@X@aux@mpl@boost@@2_NB ; boost::mpl::aux::has_begin_impl_<boost::mpl::vector1<boost::multi_index::detail::hashed_index<boost::multi_index::identity<boost::flyweights::detail::refcounted_value<boost::flyweights::detail::optimized_key_value<double,ass_synth_priv,ass_synth_priv_key>::rep_type,double> >,boost::hash<double>,std::equal_to<double>,boost::multi_index::detail::nth_layer<1,boost::flyweights::detail::refcounted_value<boost::flyweights::detail::optimized_key_value<double,ass_synth_priv,ass_synth_priv_key>::rep_type,double>,boost::flyweights::hashed_factory_class<boost::flyweights::detail::refcounted_value<boost::flyweights::detail::optimized_key_value<double,ass_synth_priv,ass_synth_priv_key>::rep_type,double>,double,boost::mpl::na,boost::mpl::na,boost::mpl::na>::index_list,std::allocator<boost::flyweights::detail::refcounted_value<boost::flyweights::detail::optimized_key_value<double,ass_synth_priv,ass_synth_priv_key>::rep_type,double> > >,boost::mpl::vector0<boost::mpl::na>,boost::multi_index::detail::hashed_unique_tag> >,void>::value
PUBLIC	?value@?$no_duplicate_tags_in_index_list@U?$vector1@V?$hashed_index@U?$identity@V?$refcounted_value@Vrep_type@?$optimized_key_value@NVass_synth_priv@@Uass_synth_priv_key@@@detail@flyweights@boost@@N@detail@flyweights@boost@@@multi_index@boost@@U?$hash@N@3@U?$equal_to@N@std@@U?$nth_layer@$00V?$refcounted_value@Vrep_type@?$optimized_key_value@NVass_synth_priv@@Uass_synth_priv_key@@@detail@flyweights@boost@@N@detail@flyweights@boost@@Uindex_list@?$hashed_factory_class@V?$refcounted_value@Vrep_type@?$optimized_key_value@NVass_synth_priv@@Uass_synth_priv_key@@@detail@flyweights@boost@@N@detail@flyweights@boost@@NUna@mpl@4@U564@U564@@34@V?$allocator@V?$refcounted_value@Vrep_type@?$optimized_key_value@NVass_synth_priv@@Uass_synth_priv_key@@@detail@flyweights@boost@@N@detail@flyweights@boost@@@std@@@detail@23@U?$vector0@Una@mpl@boost@@@mpl@3@Uhashed_unique_tag@823@@detail@multi_index@boost@@@mpl@boost@@@detail@multi_index@boost@@2_NB ; boost::multi_index::detail::no_duplicate_tags_in_index_list<boost::mpl::vector1<boost::multi_index::detail::hashed_index<boost::multi_index::identity<boost::flyweights::detail::refcounted_value<boost::flyweights::detail::optimized_key_value<double,ass_synth_priv,ass_synth_priv_key>::rep_type,double> >,boost::hash<double>,std::equal_to<double>,boost::multi_index::detail::nth_layer<1,boost::flyweights::detail::refcounted_value<boost::flyweights::detail::optimized_key_value<double,ass_synth_priv,ass_synth_priv_key>::rep_type,double>,boost::flyweights::hashed_factory_class<boost::flyweights::detail::refcounted_value<boost::flyweights::detail::optimized_key_value<double,ass_synth_priv,ass_synth_priv_key>::rep_type,double>,double,boost::mpl::na,boost::mpl::na,boost::mpl::na>::index_list,std::allocator<boost::flyweights::detail::refcounted_value<boost::flyweights::detail::optimized_key_value<double,ass_synth_priv,ass_synth_priv_key>::rep_type,double> > >,boost::mpl::vector0<boost::mpl::na>,boost::multi_index::detail::hashed_unique_tag> > >::value
PUBLIC	?value@?$has_type_impl_@V?$hashed_factory_class@V?$refcounted_value@Vrep_type@?$optimized_key_value@NVass_synth_priv@@Uass_synth_priv_key@@@detail@flyweights@boost@@N@detail@flyweights@boost@@NUna@mpl@4@U564@U564@@flyweights@boost@@X@aux@mpl@boost@@2_NB ; boost::mpl::aux::has_type_impl_<boost::flyweights::hashed_factory_class<boost::flyweights::detail::refcounted_value<boost::flyweights::detail::optimized_key_value<double,ass_synth_priv,ass_synth_priv_key>::rep_type,double>,double,boost::mpl::na,boost::mpl::na,boost::mpl::na>,void>::value
PUBLIC	?value@?$is_function_impl@V?$tuple@IU?$identity@V?$refcounted_value@Vrep_type@?$optimized_key_value@NVass_synth_priv@@Uass_synth_priv_key@@@detail@flyweights@boost@@N@detail@flyweights@boost@@@multi_index@boost@@U?$hash@N@3@U?$equal_to@N@std@@Unull_type@tuples@3@U783@U783@U783@U783@U783@@tuples@boost@@@detail@boost@@2_NB ; boost::detail::is_function_impl<boost::tuples::tuple<unsigned int,boost::multi_index::identity<boost::flyweights::detail::refcounted_value<boost::flyweights::detail::optimized_key_value<double,ass_synth_priv,ass_synth_priv_key>::rep_type,double> >,boost::hash<double>,std::equal_to<double>,boost::tuples::null_type,boost::tuples::null_type,boost::tuples::null_type,boost::tuples::null_type,boost::tuples::null_type,boost::tuples::null_type> >::value
PUBLIC	?value@?$is_function_impl@I@detail@boost@@2_NB	; boost::detail::is_function_impl<unsigned int>::value
PUBLIC	?value@?$is_function_impl@U?$identity@V?$refcounted_value@Vrep_type@?$optimized_key_value@NVass_synth_priv@@Uass_synth_priv_key@@@detail@flyweights@boost@@N@detail@flyweights@boost@@@multi_index@boost@@@detail@boost@@2_NB ; boost::detail::is_function_impl<boost::multi_index::identity<boost::flyweights::detail::refcounted_value<boost::flyweights::detail::optimized_key_value<double,ass_synth_priv,ass_synth_priv_key>::rep_type,double> > >::value
PUBLIC	?value@?$is_function_impl@U?$hash@N@boost@@@detail@boost@@2_NB ; boost::detail::is_function_impl<boost::hash<double> >::value
PUBLIC	?value@?$is_function_impl@U?$equal_to@N@std@@@detail@boost@@2_NB ; boost::detail::is_function_impl<std::equal_to<double> >::value
PUBLIC	?is_const@?$cv_traits_imp@PAU?$equal_to@N@std@@@detail@boost@@2_NB ; boost::detail::cv_traits_imp<std::equal_to<double> *>::is_const
PUBLIC	?is_volatile@?$cv_traits_imp@PAU?$equal_to@N@std@@@detail@boost@@2_NB ; boost::detail::cv_traits_imp<std::equal_to<double> *>::is_volatile
PUBLIC	?is_const@?$cv_traits_imp@PAU?$hash@N@boost@@@detail@boost@@2_NB ; boost::detail::cv_traits_imp<boost::hash<double> *>::is_const
PUBLIC	?is_volatile@?$cv_traits_imp@PAU?$hash@N@boost@@@detail@boost@@2_NB ; boost::detail::cv_traits_imp<boost::hash<double> *>::is_volatile
PUBLIC	?is_const@?$cv_traits_imp@PAU?$cons@U?$equal_to@N@std@@Unull_type@tuples@boost@@@tuples@boost@@@detail@boost@@2_NB ; boost::detail::cv_traits_imp<boost::tuples::cons<std::equal_to<double>,boost::tuples::null_type> *>::is_const
PUBLIC	?is_volatile@?$cv_traits_imp@PAU?$cons@U?$equal_to@N@std@@Unull_type@tuples@boost@@@tuples@boost@@@detail@boost@@2_NB ; boost::detail::cv_traits_imp<boost::tuples::cons<std::equal_to<double>,boost::tuples::null_type> *>::is_volatile
PUBLIC	?is_const@?$cv_traits_imp@PAU?$cons@U?$hash@N@boost@@U?$cons@U?$equal_to@N@std@@Unull_type@tuples@boost@@@tuples@2@@tuples@boost@@@detail@boost@@2_NB ; boost::detail::cv_traits_imp<boost::tuples::cons<boost::hash<double>,boost::tuples::cons<std::equal_to<double>,boost::tuples::null_type> > *>::is_const
PUBLIC	?is_volatile@?$cv_traits_imp@PAU?$cons@U?$hash@N@boost@@U?$cons@U?$equal_to@N@std@@Unull_type@tuples@boost@@@tuples@2@@tuples@boost@@@detail@boost@@2_NB ; boost::detail::cv_traits_imp<boost::tuples::cons<boost::hash<double>,boost::tuples::cons<std::equal_to<double>,boost::tuples::null_type> > *>::is_volatile
PUBLIC	?is_const@?$cv_traits_imp@PAI@detail@boost@@2_NB ; boost::detail::cv_traits_imp<unsigned int *>::is_const
PUBLIC	?is_volatile@?$cv_traits_imp@PAI@detail@boost@@2_NB ; boost::detail::cv_traits_imp<unsigned int *>::is_volatile
PUBLIC	?is_const@?$cv_traits_imp@PAU?$cons@U?$identity@V?$refcounted_value@Vrep_type@?$optimized_key_value@NVass_synth_priv@@Uass_synth_priv_key@@@detail@flyweights@boost@@N@detail@flyweights@boost@@@multi_index@boost@@U?$cons@U?$hash@N@boost@@U?$cons@U?$equal_to@N@std@@Unull_type@tuples@boost@@@tuples@2@@tuples@3@@tuples@boost@@@detail@boost@@2_NB ; boost::detail::cv_traits_imp<boost::tuples::cons<boost::multi_index::identity<boost::flyweights::detail::refcounted_value<boost::flyweights::detail::optimized_key_value<double,ass_synth_priv,ass_synth_priv_key>::rep_type,double> >,boost::tuples::cons<boost::hash<double>,boost::tuples::cons<std::equal_to<double>,boost::tuples::null_type> > > *>::is_const
PUBLIC	?is_volatile@?$cv_traits_imp@PAU?$cons@U?$identity@V?$refcounted_value@Vrep_type@?$optimized_key_value@NVass_synth_priv@@Uass_synth_priv_key@@@detail@flyweights@boost@@N@detail@flyweights@boost@@@multi_index@boost@@U?$cons@U?$hash@N@boost@@U?$cons@U?$equal_to@N@std@@Unull_type@tuples@boost@@@tuples@2@@tuples@3@@tuples@boost@@@detail@boost@@2_NB ; boost::detail::cv_traits_imp<boost::tuples::cons<boost::multi_index::identity<boost::flyweights::detail::refcounted_value<boost::flyweights::detail::optimized_key_value<double,ass_synth_priv,ass_synth_priv_key>::rep_type,double> >,boost::tuples::cons<boost::hash<double>,boost::tuples::cons<std::equal_to<double>,boost::tuples::null_type> > > *>::is_volatile
PUBLIC	?is_const@?$cv_traits_imp@PAUnull_type@tuples@boost@@@detail@boost@@2_NB ; boost::detail::cv_traits_imp<boost::tuples::null_type *>::is_const
PUBLIC	?is_volatile@?$cv_traits_imp@PAUnull_type@tuples@boost@@@detail@boost@@2_NB ; boost::detail::cv_traits_imp<boost::tuples::null_type *>::is_volatile
PUBLIC	?is_const@?$cv_traits_imp@PAV?$tuple@IU?$identity@V?$refcounted_value@Vrep_type@?$optimized_key_value@NVass_synth_priv@@Uass_synth_priv_key@@@detail@flyweights@boost@@N@detail@flyweights@boost@@@multi_index@boost@@U?$hash@N@3@U?$equal_to@N@std@@Unull_type@tuples@3@U783@U783@U783@U783@U783@@tuples@boost@@@detail@boost@@2_NB ; boost::detail::cv_traits_imp<boost::tuples::tuple<unsigned int,boost::multi_index::identity<boost::flyweights::detail::refcounted_value<boost::flyweights::detail::optimized_key_value<double,ass_synth_priv,ass_synth_priv_key>::rep_type,double> >,boost::hash<double>,std::equal_to<double>,boost::tuples::null_type,boost::tuples::null_type,boost::tuples::null_type,boost::tuples::null_type,boost::tuples::null_type,boost::tuples::null_type> *>::is_const
PUBLIC	?is_volatile@?$cv_traits_imp@PAV?$tuple@IU?$identity@V?$refcounted_value@Vrep_type@?$optimized_key_value@NVass_synth_priv@@Uass_synth_priv_key@@@detail@flyweights@boost@@N@detail@flyweights@boost@@@multi_index@boost@@U?$hash@N@3@U?$equal_to@N@std@@Unull_type@tuples@3@U783@U783@U783@U783@U783@@tuples@boost@@@detail@boost@@2_NB ; boost::detail::cv_traits_imp<boost::tuples::tuple<unsigned int,boost::multi_index::identity<boost::flyweights::detail::refcounted_value<boost::flyweights::detail::optimized_key_value<double,ass_synth_priv,ass_synth_priv_key>::rep_type,double> >,boost::hash<double>,std::equal_to<double>,boost::tuples::null_type,boost::tuples::null_type,boost::tuples::null_type,boost::tuples::null_type,boost::tuples::null_type,boost::tuples::null_type> *>::is_volatile
PUBLIC	?value@?$static_log2@$01@boost@@2HB		; boost::static_log2<2>::value
PUBLIC	?value@?$static_log2_impl@$01$0CA@@static_log2_impl@detail@boost@@2HB ; boost::detail::static_log2_impl::static_log2_impl<2,32>::value
PUBLIC	?value@?$static_log2_impl@$01$0BA@@static_log2_impl@detail@boost@@2HB ; boost::detail::static_log2_impl::static_log2_impl<2,16>::value
PUBLIC	?value@?$static_log2_impl@$01$07@static_log2_impl@detail@boost@@2HB ; boost::detail::static_log2_impl::static_log2_impl<2,8>::value
PUBLIC	?value@?$static_log2_impl@$01$03@static_log2_impl@detail@boost@@2HB ; boost::detail::static_log2_impl::static_log2_impl<2,4>::value
PUBLIC	?value@?$static_log2_impl@$01$01@static_log2_impl@detail@boost@@2HB ; boost::detail::static_log2_impl::static_log2_impl<2,2>::value
PUBLIC	?value@?$static_log2_impl@$01$00@static_log2_impl@detail@boost@@2HB ; boost::detail::static_log2_impl::static_log2_impl<2,1>::value
PUBLIC	?c@?$static_log2_impl@$01$00@static_log2_impl@detail@boost@@2_NB ; boost::detail::static_log2_impl::static_log2_impl<2,1>::c
PUBLIC	?c@?$static_log2_impl@$01$01@static_log2_impl@detail@boost@@2_NB ; boost::detail::static_log2_impl::static_log2_impl<2,2>::c
PUBLIC	?c@?$static_log2_impl@$01$03@static_log2_impl@detail@boost@@2_NB ; boost::detail::static_log2_impl::static_log2_impl<2,4>::c
PUBLIC	?c@?$static_log2_impl@$01$07@static_log2_impl@detail@boost@@2_NB ; boost::detail::static_log2_impl::static_log2_impl<2,8>::c
PUBLIC	?c@?$static_log2_impl@$01$0BA@@static_log2_impl@detail@boost@@2_NB ; boost::detail::static_log2_impl::static_log2_impl<2,16>::c
PUBLIC	?c@?$static_log2_impl@$01$0CA@@static_log2_impl@detail@boost@@2_NB ; boost::detail::static_log2_impl::static_log2_impl<2,32>::c
EXTRN	?wcerr@std@@3V?$basic_ostream@_WU?$char_traits@_W@std@@@1@A:BYTE ; std::wcerr
EXTRN	?wcout@std@@3V?$basic_ostream@_WU?$char_traits@_W@std@@@1@A:BYTE ; std::wcout
;	COMDAT ?_pAtlAutoThreadModule@ATL@@3PAUIAtlAutoThreadModule@1@A
_BSS	SEGMENT
?_pAtlAutoThreadModule@ATL@@3PAUIAtlAutoThreadModule@1@A DD 01H DUP (?) ; ATL::_pAtlAutoThreadModule
_BSS	ENDS
;	COMDAT ?s_pfnPrevHook@CNoUIAssertHook@ATL@@0P6AHHPADPAH@ZA
_BSS	SEGMENT
?s_pfnPrevHook@CNoUIAssertHook@ATL@@0P6AHHPADPAH@ZA DD 01H DUP (?) ; ATL::CNoUIAssertHook::s_pfnPrevHook
_BSS	ENDS
;	COMDAT ?m_bInitFailed@CAtlBaseModule@ATL@@2_NA
_BSS	SEGMENT
?m_bInitFailed@CAtlBaseModule@ATL@@2_NA DB 01H DUP (?)	; ATL::CAtlBaseModule::m_bInitFailed
_BSS	ENDS
;	COMDAT ?s_pLog@CFixedStringMgr@ATL@@2PAVIFixedStringLog@2@A
_BSS	SEGMENT
?s_pLog@CFixedStringMgr@ATL@@2PAVIFixedStringLog@2@A DD 01H DUP (?) ; ATL::CFixedStringMgr::s_pLog
_BSS	ENDS
;	COMDAT ?_pPerfRegFunc@ATL@@3P6AJPAUHINSTANCE__@@@ZA
_BSS	SEGMENT
?_pPerfRegFunc@ATL@@3P6AJPAUHINSTANCE__@@@ZA DD 01H DUP (?) ; ATL::_pPerfRegFunc
_BSS	ENDS
;	COMDAT ?_pPerfUnRegFunc@ATL@@3P6AJXZA
_BSS	SEGMENT
?_pPerfUnRegFunc@ATL@@3P6AJXZA DD 01H DUP (?)		; ATL::_pPerfUnRegFunc
_BSS	ENDS
;	COMDAT ?_AtlRegisterPerUser@ATL@@3_NA
_BSS	SEGMENT
?_AtlRegisterPerUser@ATL@@3_NA DB 01H DUP (?)		; ATL::_AtlRegisterPerUser
_BSS	ENDS
;	COMDAT ?_pAtlModule@ATL@@3PAVCAtlModule@1@A
_BSS	SEGMENT
?_pAtlModule@ATL@@3PAVCAtlModule@1@A DD 01H DUP (?)	; ATL::_pAtlModule
_BSS	ENDS
;	COMDAT ?m_libid@CAtlModule@ATL@@2U_GUID@@A
_BSS	SEGMENT
?m_libid@CAtlModule@ATL@@2U_GUID@@A DB 010H DUP (?)	; ATL::CAtlModule::m_libid
_BSS	ENDS
;	COMDAT ?_pModule@ATL@@3PAVCComModule@1@A
_BSS	SEGMENT
?_pModule@ATL@@3PAVCComModule@1@A DD 01H DUP (?)	; ATL::_pModule
_BSS	ENDS
;	COMDAT ?ATL_CREATE_OBJECT@CComApartment@ATL@@2IA
_BSS	SEGMENT
?ATL_CREATE_OBJECT@CComApartment@ATL@@2IA DD 01H DUP (?) ; ATL::CComApartment::ATL_CREATE_OBJECT
_BSS	ENDS
;	COMDAT ?c@?$static_log2_impl@$01$0CA@@static_log2_impl@detail@boost@@2_NB
CONST	SEGMENT
?c@?$static_log2_impl@$01$0CA@@static_log2_impl@detail@boost@@2_NB DB 00H ; boost::detail::static_log2_impl::static_log2_impl<2,32>::c
CONST	ENDS
;	COMDAT ?c@?$static_log2_impl@$01$0BA@@static_log2_impl@detail@boost@@2_NB
CONST	SEGMENT
?c@?$static_log2_impl@$01$0BA@@static_log2_impl@detail@boost@@2_NB DB 00H ; boost::detail::static_log2_impl::static_log2_impl<2,16>::c
CONST	ENDS
;	COMDAT ?c@?$static_log2_impl@$01$07@static_log2_impl@detail@boost@@2_NB
CONST	SEGMENT
?c@?$static_log2_impl@$01$07@static_log2_impl@detail@boost@@2_NB DB 00H ; boost::detail::static_log2_impl::static_log2_impl<2,8>::c
CONST	ENDS
;	COMDAT ?c@?$static_log2_impl@$01$03@static_log2_impl@detail@boost@@2_NB
CONST	SEGMENT
?c@?$static_log2_impl@$01$03@static_log2_impl@detail@boost@@2_NB DB 00H ; boost::detail::static_log2_impl::static_log2_impl<2,4>::c
CONST	ENDS
;	COMDAT ?c@?$static_log2_impl@$01$01@static_log2_impl@detail@boost@@2_NB
CONST	SEGMENT
?c@?$static_log2_impl@$01$01@static_log2_impl@detail@boost@@2_NB DB 00H ; boost::detail::static_log2_impl::static_log2_impl<2,2>::c
CONST	ENDS
;	COMDAT ?c@?$static_log2_impl@$01$00@static_log2_impl@detail@boost@@2_NB
CONST	SEGMENT
?c@?$static_log2_impl@$01$00@static_log2_impl@detail@boost@@2_NB DB 01H ; boost::detail::static_log2_impl::static_log2_impl<2,1>::c
CONST	ENDS
;	COMDAT ?value@?$static_log2_impl@$01$00@static_log2_impl@detail@boost@@2HB
CONST	SEGMENT
?value@?$static_log2_impl@$01$00@static_log2_impl@detail@boost@@2HB DD 01H ; boost::detail::static_log2_impl::static_log2_impl<2,1>::value
CONST	ENDS
;	COMDAT ?value@?$static_log2_impl@$01$01@static_log2_impl@detail@boost@@2HB
CONST	SEGMENT
?value@?$static_log2_impl@$01$01@static_log2_impl@detail@boost@@2HB DD 01H ; boost::detail::static_log2_impl::static_log2_impl<2,2>::value
CONST	ENDS
;	COMDAT ?value@?$static_log2_impl@$01$03@static_log2_impl@detail@boost@@2HB
CONST	SEGMENT
?value@?$static_log2_impl@$01$03@static_log2_impl@detail@boost@@2HB DD 01H ; boost::detail::static_log2_impl::static_log2_impl<2,4>::value
CONST	ENDS
;	COMDAT ?value@?$static_log2_impl@$01$07@static_log2_impl@detail@boost@@2HB
CONST	SEGMENT
?value@?$static_log2_impl@$01$07@static_log2_impl@detail@boost@@2HB DD 01H ; boost::detail::static_log2_impl::static_log2_impl<2,8>::value
CONST	ENDS
;	COMDAT ?value@?$static_log2_impl@$01$0BA@@static_log2_impl@detail@boost@@2HB
CONST	SEGMENT
?value@?$static_log2_impl@$01$0BA@@static_log2_impl@detail@boost@@2HB DD 01H ; boost::detail::static_log2_impl::static_log2_impl<2,16>::value
CONST	ENDS
;	COMDAT ?value@?$static_log2_impl@$01$0CA@@static_log2_impl@detail@boost@@2HB
CONST	SEGMENT
?value@?$static_log2_impl@$01$0CA@@static_log2_impl@detail@boost@@2HB DD 01H ; boost::detail::static_log2_impl::static_log2_impl<2,32>::value
CONST	ENDS
;	COMDAT ?value@?$static_log2@$01@boost@@2HB
CONST	SEGMENT
?value@?$static_log2@$01@boost@@2HB DD 01H		; boost::static_log2<2>::value
CONST	ENDS
;	COMDAT ?is_volatile@?$cv_traits_imp@PAV?$tuple@IU?$identity@V?$refcounted_value@Vrep_type@?$optimized_key_value@NVass_synth_priv@@Uass_synth_priv_key@@@detail@flyweights@boost@@N@detail@flyweights@boost@@@multi_index@boost@@U?$hash@N@3@U?$equal_to@N@std@@Unull_type@tuples@3@U783@U783@U783@U783@U783@@tuples@boost@@@detail@boost@@2_NB
CONST	SEGMENT
?is_volatile@?$cv_traits_imp@PAV?$tuple@IU?$identity@V?$refcounted_value@Vrep_type@?$optimized_key_value@NVass_synth_priv@@Uass_synth_priv_key@@@detail@flyweights@boost@@N@detail@flyweights@boost@@@multi_index@boost@@U?$hash@N@3@U?$equal_to@N@std@@Unull_type@tuples@3@U783@U783@U783@U783@U783@@tuples@boost@@@detail@boost@@2_NB DB 00H ; boost::detail::cv_traits_imp<boost::tuples::tuple<unsigned int,boost::multi_index::identity<boost::flyweights::detail::refcounted_value<boost::flyweights::detail::optimized_key_value<double,ass_synth_priv,ass_synth_priv_key>::rep_type,double> >,boost::hash<double>,std::equal_to<double>,boost::tuples::null_type,boost::tuples::null_type,boost::tuples::null_type,boost::tuples::null_type,boost::tuples::null_type,boost::tuples::null_type> *>::is_volatile
CONST	ENDS
;	COMDAT ?is_const@?$cv_traits_imp@PAV?$tuple@IU?$identity@V?$refcounted_value@Vrep_type@?$optimized_key_value@NVass_synth_priv@@Uass_synth_priv_key@@@detail@flyweights@boost@@N@detail@flyweights@boost@@@multi_index@boost@@U?$hash@N@3@U?$equal_to@N@std@@Unull_type@tuples@3@U783@U783@U783@U783@U783@@tuples@boost@@@detail@boost@@2_NB
CONST	SEGMENT
?is_const@?$cv_traits_imp@PAV?$tuple@IU?$identity@V?$refcounted_value@Vrep_type@?$optimized_key_value@NVass_synth_priv@@Uass_synth_priv_key@@@detail@flyweights@boost@@N@detail@flyweights@boost@@@multi_index@boost@@U?$hash@N@3@U?$equal_to@N@std@@Unull_type@tuples@3@U783@U783@U783@U783@U783@@tuples@boost@@@detail@boost@@2_NB DB 00H ; boost::detail::cv_traits_imp<boost::tuples::tuple<unsigned int,boost::multi_index::identity<boost::flyweights::detail::refcounted_value<boost::flyweights::detail::optimized_key_value<double,ass_synth_priv,ass_synth_priv_key>::rep_type,double> >,boost::hash<double>,std::equal_to<double>,boost::tuples::null_type,boost::tuples::null_type,boost::tuples::null_type,boost::tuples::null_type,boost::tuples::null_type,boost::tuples::null_type> *>::is_const
CONST	ENDS
;	COMDAT ?is_volatile@?$cv_traits_imp@PAUnull_type@tuples@boost@@@detail@boost@@2_NB
CONST	SEGMENT
?is_volatile@?$cv_traits_imp@PAUnull_type@tuples@boost@@@detail@boost@@2_NB DB 00H ; boost::detail::cv_traits_imp<boost::tuples::null_type *>::is_volatile
CONST	ENDS
;	COMDAT ?is_const@?$cv_traits_imp@PAUnull_type@tuples@boost@@@detail@boost@@2_NB
CONST	SEGMENT
?is_const@?$cv_traits_imp@PAUnull_type@tuples@boost@@@detail@boost@@2_NB DB 00H ; boost::detail::cv_traits_imp<boost::tuples::null_type *>::is_const
CONST	ENDS
;	COMDAT ?is_volatile@?$cv_traits_imp@PAU?$cons@U?$identity@V?$refcounted_value@Vrep_type@?$optimized_key_value@NVass_synth_priv@@Uass_synth_priv_key@@@detail@flyweights@boost@@N@detail@flyweights@boost@@@multi_index@boost@@U?$cons@U?$hash@N@boost@@U?$cons@U?$equal_to@N@std@@Unull_type@tuples@boost@@@tuples@2@@tuples@3@@tuples@boost@@@detail@boost@@2_NB
CONST	SEGMENT
?is_volatile@?$cv_traits_imp@PAU?$cons@U?$identity@V?$refcounted_value@Vrep_type@?$optimized_key_value@NVass_synth_priv@@Uass_synth_priv_key@@@detail@flyweights@boost@@N@detail@flyweights@boost@@@multi_index@boost@@U?$cons@U?$hash@N@boost@@U?$cons@U?$equal_to@N@std@@Unull_type@tuples@boost@@@tuples@2@@tuples@3@@tuples@boost@@@detail@boost@@2_NB DB 00H ; boost::detail::cv_traits_imp<boost::tuples::cons<boost::multi_index::identity<boost::flyweights::detail::refcounted_value<boost::flyweights::detail::optimized_key_value<double,ass_synth_priv,ass_synth_priv_key>::rep_type,double> >,boost::tuples::cons<boost::hash<double>,boost::tuples::cons<std::equal_to<double>,boost::tuples::null_type> > > *>::is_volatile
CONST	ENDS
;	COMDAT ?is_const@?$cv_traits_imp@PAU?$cons@U?$identity@V?$refcounted_value@Vrep_type@?$optimized_key_value@NVass_synth_priv@@Uass_synth_priv_key@@@detail@flyweights@boost@@N@detail@flyweights@boost@@@multi_index@boost@@U?$cons@U?$hash@N@boost@@U?$cons@U?$equal_to@N@std@@Unull_type@tuples@boost@@@tuples@2@@tuples@3@@tuples@boost@@@detail@boost@@2_NB
CONST	SEGMENT
?is_const@?$cv_traits_imp@PAU?$cons@U?$identity@V?$refcounted_value@Vrep_type@?$optimized_key_value@NVass_synth_priv@@Uass_synth_priv_key@@@detail@flyweights@boost@@N@detail@flyweights@boost@@@multi_index@boost@@U?$cons@U?$hash@N@boost@@U?$cons@U?$equal_to@N@std@@Unull_type@tuples@boost@@@tuples@2@@tuples@3@@tuples@boost@@@detail@boost@@2_NB DB 00H ; boost::detail::cv_traits_imp<boost::tuples::cons<boost::multi_index::identity<boost::flyweights::detail::refcounted_value<boost::flyweights::detail::optimized_key_value<double,ass_synth_priv,ass_synth_priv_key>::rep_type,double> >,boost::tuples::cons<boost::hash<double>,boost::tuples::cons<std::equal_to<double>,boost::tuples::null_type> > > *>::is_const
CONST	ENDS
;	COMDAT ?is_volatile@?$cv_traits_imp@PAI@detail@boost@@2_NB
CONST	SEGMENT
?is_volatile@?$cv_traits_imp@PAI@detail@boost@@2_NB DB 00H ; boost::detail::cv_traits_imp<unsigned int *>::is_volatile
CONST	ENDS
;	COMDAT ?is_const@?$cv_traits_imp@PAI@detail@boost@@2_NB
CONST	SEGMENT
?is_const@?$cv_traits_imp@PAI@detail@boost@@2_NB DB 00H	; boost::detail::cv_traits_imp<unsigned int *>::is_const
CONST	ENDS
;	COMDAT ?is_volatile@?$cv_traits_imp@PAU?$cons@U?$hash@N@boost@@U?$cons@U?$equal_to@N@std@@Unull_type@tuples@boost@@@tuples@2@@tuples@boost@@@detail@boost@@2_NB
CONST	SEGMENT
?is_volatile@?$cv_traits_imp@PAU?$cons@U?$hash@N@boost@@U?$cons@U?$equal_to@N@std@@Unull_type@tuples@boost@@@tuples@2@@tuples@boost@@@detail@boost@@2_NB DB 00H ; boost::detail::cv_traits_imp<boost::tuples::cons<boost::hash<double>,boost::tuples::cons<std::equal_to<double>,boost::tuples::null_type> > *>::is_volatile
CONST	ENDS
;	COMDAT ?is_const@?$cv_traits_imp@PAU?$cons@U?$hash@N@boost@@U?$cons@U?$equal_to@N@std@@Unull_type@tuples@boost@@@tuples@2@@tuples@boost@@@detail@boost@@2_NB
CONST	SEGMENT
?is_const@?$cv_traits_imp@PAU?$cons@U?$hash@N@boost@@U?$cons@U?$equal_to@N@std@@Unull_type@tuples@boost@@@tuples@2@@tuples@boost@@@detail@boost@@2_NB DB 00H ; boost::detail::cv_traits_imp<boost::tuples::cons<boost::hash<double>,boost::tuples::cons<std::equal_to<double>,boost::tuples::null_type> > *>::is_const
CONST	ENDS
;	COMDAT ?is_volatile@?$cv_traits_imp@PAU?$cons@U?$equal_to@N@std@@Unull_type@tuples@boost@@@tuples@boost@@@detail@boost@@2_NB
CONST	SEGMENT
?is_volatile@?$cv_traits_imp@PAU?$cons@U?$equal_to@N@std@@Unull_type@tuples@boost@@@tuples@boost@@@detail@boost@@2_NB DB 00H ; boost::detail::cv_traits_imp<boost::tuples::cons<std::equal_to<double>,boost::tuples::null_type> *>::is_volatile
CONST	ENDS
;	COMDAT ?is_const@?$cv_traits_imp@PAU?$cons@U?$equal_to@N@std@@Unull_type@tuples@boost@@@tuples@boost@@@detail@boost@@2_NB
CONST	SEGMENT
?is_const@?$cv_traits_imp@PAU?$cons@U?$equal_to@N@std@@Unull_type@tuples@boost@@@tuples@boost@@@detail@boost@@2_NB DB 00H ; boost::detail::cv_traits_imp<boost::tuples::cons<std::equal_to<double>,boost::tuples::null_type> *>::is_const
CONST	ENDS
;	COMDAT ?is_volatile@?$cv_traits_imp@PAU?$hash@N@boost@@@detail@boost@@2_NB
CONST	SEGMENT
?is_volatile@?$cv_traits_imp@PAU?$hash@N@boost@@@detail@boost@@2_NB DB 00H ; boost::detail::cv_traits_imp<boost::hash<double> *>::is_volatile
CONST	ENDS
;	COMDAT ?is_const@?$cv_traits_imp@PAU?$hash@N@boost@@@detail@boost@@2_NB
CONST	SEGMENT
?is_const@?$cv_traits_imp@PAU?$hash@N@boost@@@detail@boost@@2_NB DB 00H ; boost::detail::cv_traits_imp<boost::hash<double> *>::is_const
CONST	ENDS
;	COMDAT ?is_volatile@?$cv_traits_imp@PAU?$equal_to@N@std@@@detail@boost@@2_NB
CONST	SEGMENT
?is_volatile@?$cv_traits_imp@PAU?$equal_to@N@std@@@detail@boost@@2_NB DB 00H ; boost::detail::cv_traits_imp<std::equal_to<double> *>::is_volatile
CONST	ENDS
;	COMDAT ?is_const@?$cv_traits_imp@PAU?$equal_to@N@std@@@detail@boost@@2_NB
CONST	SEGMENT
?is_const@?$cv_traits_imp@PAU?$equal_to@N@std@@@detail@boost@@2_NB DB 00H ; boost::detail::cv_traits_imp<std::equal_to<double> *>::is_const
CONST	ENDS
;	COMDAT ?value@?$is_function_impl@U?$equal_to@N@std@@@detail@boost@@2_NB
CONST	SEGMENT
?value@?$is_function_impl@U?$equal_to@N@std@@@detail@boost@@2_NB DB 00H ; boost::detail::is_function_impl<std::equal_to<double> >::value
CONST	ENDS
;	COMDAT ?value@?$is_function_impl@U?$hash@N@boost@@@detail@boost@@2_NB
CONST	SEGMENT
?value@?$is_function_impl@U?$hash@N@boost@@@detail@boost@@2_NB DB 00H ; boost::detail::is_function_impl<boost::hash<double> >::value
CONST	ENDS
;	COMDAT ?value@?$is_function_impl@U?$identity@V?$refcounted_value@Vrep_type@?$optimized_key_value@NVass_synth_priv@@Uass_synth_priv_key@@@detail@flyweights@boost@@N@detail@flyweights@boost@@@multi_index@boost@@@detail@boost@@2_NB
CONST	SEGMENT
?value@?$is_function_impl@U?$identity@V?$refcounted_value@Vrep_type@?$optimized_key_value@NVass_synth_priv@@Uass_synth_priv_key@@@detail@flyweights@boost@@N@detail@flyweights@boost@@@multi_index@boost@@@detail@boost@@2_NB DB 00H ; boost::detail::is_function_impl<boost::multi_index::identity<boost::flyweights::detail::refcounted_value<boost::flyweights::detail::optimized_key_value<double,ass_synth_priv,ass_synth_priv_key>::rep_type,double> > >::value
CONST	ENDS
;	COMDAT ?value@?$is_function_impl@I@detail@boost@@2_NB
CONST	SEGMENT
?value@?$is_function_impl@I@detail@boost@@2_NB DB 00H	; boost::detail::is_function_impl<unsigned int>::value
CONST	ENDS
;	COMDAT ?value@?$is_function_impl@V?$tuple@IU?$identity@V?$refcounted_value@Vrep_type@?$optimized_key_value@NVass_synth_priv@@Uass_synth_priv_key@@@detail@flyweights@boost@@N@detail@flyweights@boost@@@multi_index@boost@@U?$hash@N@3@U?$equal_to@N@std@@Unull_type@tuples@3@U783@U783@U783@U783@U783@@tuples@boost@@@detail@boost@@2_NB
CONST	SEGMENT
?value@?$is_function_impl@V?$tuple@IU?$identity@V?$refcounted_value@Vrep_type@?$optimized_key_value@NVass_synth_priv@@Uass_synth_priv_key@@@detail@flyweights@boost@@N@detail@flyweights@boost@@@multi_index@boost@@U?$hash@N@3@U?$equal_to@N@std@@Unull_type@tuples@3@U783@U783@U783@U783@U783@@tuples@boost@@@detail@boost@@2_NB DB 00H ; boost::detail::is_function_impl<boost::tuples::tuple<unsigned int,boost::multi_index::identity<boost::flyweights::detail::refcounted_value<boost::flyweights::detail::optimized_key_value<double,ass_synth_priv,ass_synth_priv_key>::rep_type,double> >,boost::hash<double>,std::equal_to<double>,boost::tuples::null_type,boost::tuples::null_type,boost::tuples::null_type,boost::tuples::null_type,boost::tuples::null_type,boost::tuples::null_type> >::value
CONST	ENDS
;	COMDAT ?value@?$has_type_impl_@V?$hashed_factory_class@V?$refcounted_value@Vrep_type@?$optimized_key_value@NVass_synth_priv@@Uass_synth_priv_key@@@detail@flyweights@boost@@N@detail@flyweights@boost@@NUna@mpl@4@U564@U564@@flyweights@boost@@X@aux@mpl@boost@@2_NB
CONST	SEGMENT
?value@?$has_type_impl_@V?$hashed_factory_class@V?$refcounted_value@Vrep_type@?$optimized_key_value@NVass_synth_priv@@Uass_synth_priv_key@@@detail@flyweights@boost@@N@detail@flyweights@boost@@NUna@mpl@4@U564@U564@@flyweights@boost@@X@aux@mpl@boost@@2_NB DB 01H ; boost::mpl::aux::has_type_impl_<boost::flyweights::hashed_factory_class<boost::flyweights::detail::refcounted_value<boost::flyweights::detail::optimized_key_value<double,ass_synth_priv,ass_synth_priv_key>::rep_type,double>,double,boost::mpl::na,boost::mpl::na,boost::mpl::na>,void>::value
CONST	ENDS
;	COMDAT ?value@?$no_duplicate_tags_in_index_list@U?$vector1@V?$hashed_index@U?$identity@V?$refcounted_value@Vrep_type@?$optimized_key_value@NVass_synth_priv@@Uass_synth_priv_key@@@detail@flyweights@boost@@N@detail@flyweights@boost@@@multi_index@boost@@U?$hash@N@3@U?$equal_to@N@std@@U?$nth_layer@$00V?$refcounted_value@Vrep_type@?$optimized_key_value@NVass_synth_priv@@Uass_synth_priv_key@@@detail@flyweights@boost@@N@detail@flyweights@boost@@Uindex_list@?$hashed_factory_class@V?$refcounted_value@Vrep_type@?$optimized_key_value@NVass_synth_priv@@Uass_synth_priv_key@@@detail@flyweights@boost@@N@detail@flyweights@boost@@NUna@mpl@4@U564@U564@@34@V?$allocator@V?$refcounted_value@Vrep_type@?$optimized_key_value@NVass_synth_priv@@Uass_synth_priv_key@@@detail@flyweights@boost@@N@detail@flyweights@boost@@@std@@@detail@23@U?$vector0@Una@mpl@boost@@@mpl@3@Uhashed_unique_tag@823@@detail@multi_index@boost@@@mpl@boost@@@detail@multi_index@boost@@2_NB
CONST	SEGMENT
?value@?$no_duplicate_tags_in_index_list@U?$vector1@V?$hashed_index@U?$identity@V?$refcounted_value@Vrep_type@?$optimized_key_value@NVass_synth_priv@@Uass_synth_priv_key@@@detail@flyweights@boost@@N@detail@flyweights@boost@@@multi_index@boost@@U?$hash@N@3@U?$equal_to@N@std@@U?$nth_layer@$00V?$refcounted_value@Vrep_type@?$optimized_key_value@NVass_synth_priv@@Uass_synth_priv_key@@@detail@flyweights@boost@@N@detail@flyweights@boost@@Uindex_list@?$hashed_factory_class@V?$refcounted_value@Vrep_type@?$optimized_key_value@NVass_synth_priv@@Uass_synth_priv_key@@@detail@flyweights@boost@@N@detail@flyweights@boost@@NUna@mpl@4@U564@U564@@34@V?$allocator@V?$refcounted_value@Vrep_type@?$optimized_key_value@NVass_synth_priv@@Uass_synth_priv_key@@@detail@flyweights@boost@@N@detail@flyweights@boost@@@std@@@detail@23@U?$vector0@Una@mpl@boost@@@mpl@3@Uhashed_unique_tag@823@@detail@multi_index@boost@@@mpl@boost@@@detail@multi_index@boost@@2_NB DB 01H ; boost::multi_index::detail::no_duplicate_tags_in_index_list<boost::mpl::vector1<boost::multi_index::detail::hashed_index<boost::multi_index::identity<boost::flyweights::detail::refcounted_value<boost::flyweights::detail::optimized_key_value<double,ass_synth_priv,ass_synth_priv_key>::rep_type,double> >,boost::hash<double>,std::equal_to<double>,boost::multi_index::detail::nth_layer<1,boost::flyweights::detail::refcounted_value<boost::flyweights::detail::optimized_key_value<double,ass_synth_priv,ass_synth_priv_key>::rep_type,double>,boost::flyweights::hashed_factory_class<boost::flyweights::detail::refcounted_value<boost::flyweights::detail::optimized_key_value<double,ass_synth_priv,ass_synth_priv_key>::rep_type,double>,double,boost::mpl::na,boost::mpl::na,boost::mpl::na>::index_list,std::allocator<boost::flyweights::detail::refcounted_value<boost::flyweights::detail::optimized_key_value<double,ass_synth_priv,ass_synth_priv_key>::rep_type,double> > >,boost::mpl::vector0<boost::mpl::na>,boost::multi_index::detail::hashed_unique_tag> > >::value
CONST	ENDS
;	COMDAT ?value@?$has_begin_impl_@U?$vector1@V?$hashed_index@U?$identity@V?$refcounted_value@Vrep_type@?$optimized_key_value@NVass_synth_priv@@Uass_synth_priv_key@@@detail@flyweights@boost@@N@detail@flyweights@boost@@@multi_index@boost@@U?$hash@N@3@U?$equal_to@N@std@@U?$nth_layer@$00V?$refcounted_value@Vrep_type@?$optimized_key_value@NVass_synth_priv@@Uass_synth_priv_key@@@detail@flyweights@boost@@N@detail@flyweights@boost@@Uindex_list@?$hashed_factory_class@V?$refcounted_value@Vrep_type@?$optimized_key_value@NVass_synth_priv@@Uass_synth_priv_key@@@detail@flyweights@boost@@N@detail@flyweights@boost@@NUna@mpl@4@U564@U564@@34@V?$allocator@V?$refcounted_value@Vrep_type@?$optimized_key_value@NVass_synth_priv@@Uass_synth_priv_key@@@detail@flyweights@boost@@N@detail@flyweights@boost@@@std@@@detail@23@U?$vector0@Una@mpl@boost@@@mpl@3@Uhashed_unique_tag@823@@detail@multi_index@boost@@@mpl@boost@@X@aux@mpl@boost@@2_NB
CONST	SEGMENT
?value@?$has_begin_impl_@U?$vector1@V?$hashed_index@U?$identity@V?$refcounted_value@Vrep_type@?$optimized_key_value@NVass_synth_priv@@Uass_synth_priv_key@@@detail@flyweights@boost@@N@detail@flyweights@boost@@@multi_index@boost@@U?$hash@N@3@U?$equal_to@N@std@@U?$nth_layer@$00V?$refcounted_value@Vrep_type@?$optimized_key_value@NVass_synth_priv@@Uass_synth_priv_key@@@detail@flyweights@boost@@N@detail@flyweights@boost@@Uindex_list@?$hashed_factory_class@V?$refcounted_value@Vrep_type@?$optimized_key_value@NVass_synth_priv@@Uass_synth_priv_key@@@detail@flyweights@boost@@N@detail@flyweights@boost@@NUna@mpl@4@U564@U564@@34@V?$allocator@V?$refcounted_value@Vrep_type@?$optimized_key_value@NVass_synth_priv@@Uass_synth_priv_key@@@detail@flyweights@boost@@N@detail@flyweights@boost@@@std@@@detail@23@U?$vector0@Una@mpl@boost@@@mpl@3@Uhashed_unique_tag@823@@detail@multi_index@boost@@@mpl@boost@@X@aux@mpl@boost@@2_NB DB 01H ; boost::mpl::aux::has_begin_impl_<boost::mpl::vector1<boost::multi_index::detail::hashed_index<boost::multi_index::identity<boost::flyweights::detail::refcounted_value<boost::flyweights::detail::optimized_key_value<double,ass_synth_priv,ass_synth_priv_key>::rep_type,double> >,boost::hash<double>,std::equal_to<double>,boost::multi_index::detail::nth_layer<1,boost::flyweights::detail::refcounted_value<boost::flyweights::detail::optimized_key_value<double,ass_synth_priv,ass_synth_priv_key>::rep_type,double>,boost::flyweights::hashed_factory_class<boost::flyweights::detail::refcounted_value<boost::flyweights::detail::optimized_key_value<double,ass_synth_priv,ass_synth_priv_key>::rep_type,double>,double,boost::mpl::na,boost::mpl::na,boost::mpl::na>::index_list,std::allocator<boost::flyweights::detail::refcounted_value<boost::flyweights::detail::optimized_key_value<double,ass_synth_priv,ass_synth_priv_key>::rep_type,double> > >,boost::mpl::vector0<boost::mpl::na>,boost::multi_index::detail::hashed_unique_tag> >,void>::value
CONST	ENDS
;	COMDAT ?value@?$has_tag_impl_@U?$vector1@V?$hashed_index@U?$identity@V?$refcounted_value@Vrep_type@?$optimized_key_value@NVass_synth_priv@@Uass_synth_priv_key@@@detail@flyweights@boost@@N@detail@flyweights@boost@@@multi_index@boost@@U?$hash@N@3@U?$equal_to@N@std@@U?$nth_layer@$00V?$refcounted_value@Vrep_type@?$optimized_key_value@NVass_synth_priv@@Uass_synth_priv_key@@@detail@flyweights@boost@@N@detail@flyweights@boost@@Uindex_list@?$hashed_factory_class@V?$refcounted_value@Vrep_type@?$optimized_key_value@NVass_synth_priv@@Uass_synth_priv_key@@@detail@flyweights@boost@@N@detail@flyweights@boost@@NUna@mpl@4@U564@U564@@34@V?$allocator@V?$refcounted_value@Vrep_type@?$optimized_key_value@NVass_synth_priv@@Uass_synth_priv_key@@@detail@flyweights@boost@@N@detail@flyweights@boost@@@std@@@detail@23@U?$vector0@Una@mpl@boost@@@mpl@3@Uhashed_unique_tag@823@@detail@multi_index@boost@@@mpl@boost@@X@aux@mpl@boost@@2_NB
CONST	SEGMENT
?value@?$has_tag_impl_@U?$vector1@V?$hashed_index@U?$identity@V?$refcounted_value@Vrep_type@?$optimized_key_value@NVass_synth_priv@@Uass_synth_priv_key@@@detail@flyweights@boost@@N@detail@flyweights@boost@@@multi_index@boost@@U?$hash@N@3@U?$equal_to@N@std@@U?$nth_layer@$00V?$refcounted_value@Vrep_type@?$optimized_key_value@NVass_synth_priv@@Uass_synth_priv_key@@@detail@flyweights@boost@@N@detail@flyweights@boost@@Uindex_list@?$hashed_factory_class@V?$refcounted_value@Vrep_type@?$optimized_key_value@NVass_synth_priv@@Uass_synth_priv_key@@@detail@flyweights@boost@@N@detail@flyweights@boost@@NUna@mpl@4@U564@U564@@34@V?$allocator@V?$refcounted_value@Vrep_type@?$optimized_key_value@NVass_synth_priv@@Uass_synth_priv_key@@@detail@flyweights@boost@@N@detail@flyweights@boost@@@std@@@detail@23@U?$vector0@Una@mpl@boost@@@mpl@3@Uhashed_unique_tag@823@@detail@multi_index@boost@@@mpl@boost@@X@aux@mpl@boost@@2_NB DB 01H ; boost::mpl::aux::has_tag_impl_<boost::mpl::vector1<boost::multi_index::detail::hashed_index<boost::multi_index::identity<boost::flyweights::detail::refcounted_value<boost::flyweights::detail::optimized_key_value<double,ass_synth_priv,ass_synth_priv_key>::rep_type,double> >,boost::hash<double>,std::equal_to<double>,boost::multi_index::detail::nth_layer<1,boost::flyweights::detail::refcounted_value<boost::flyweights::detail::optimized_key_value<double,ass_synth_priv,ass_synth_priv_key>::rep_type,double>,boost::flyweights::hashed_factory_class<boost::flyweights::detail::refcounted_value<boost::flyweights::detail::optimized_key_value<double,ass_synth_priv,ass_synth_priv_key>::rep_type,double>,double,boost::mpl::na,boost::mpl::na,boost::mpl::na>::index_list,std::allocator<boost::flyweights::detail::refcounted_value<boost::flyweights::detail::optimized_key_value<double,ass_synth_priv,ass_synth_priv_key>::rep_type,double> > >,boost::mpl::vector0<boost::mpl::na>,boost::multi_index::detail::hashed_unique_tag> >,void>::value
CONST	ENDS
;	COMDAT ?alignment@?$aligned_storage@$0CI@$07@boost@@2IB
CONST	SEGMENT
?alignment@?$aligned_storage@$0CI@$07@boost@@2IB DD 08H	; boost::aligned_storage<40,8>::alignment
CONST	ENDS
;	COMDAT ?size@?$aligned_storage@$0CI@$07@boost@@2IB
CONST	SEGMENT
?size@?$aligned_storage@$0CI@$07@boost@@2IB DD 028H	; boost::aligned_storage<40,8>::size
CONST	ENDS
;	COMDAT ?value@?$alignment_of_impl@V?$refcounted_value@Vrep_type@?$optimized_key_value@NVass_synth_priv@@Uass_synth_priv_key@@@detail@flyweights@boost@@N@detail@flyweights@boost@@@detail@boost@@2IB
CONST	SEGMENT
?value@?$alignment_of_impl@V?$refcounted_value@Vrep_type@?$optimized_key_value@NVass_synth_priv@@Uass_synth_priv_key@@@detail@flyweights@boost@@N@detail@flyweights@boost@@@detail@boost@@2IB DD 08H ; boost::detail::alignment_of_impl<boost::flyweights::detail::refcounted_value<boost::flyweights::detail::optimized_key_value<double,ass_synth_priv,ass_synth_priv_key>::rep_type,double> >::value
CONST	ENDS
;	COMDAT ?alignment@?$aligned_storage@$0BI@$07@boost@@2IB
CONST	SEGMENT
?alignment@?$aligned_storage@$0BI@$07@boost@@2IB DD 08H	; boost::aligned_storage<24,8>::alignment
CONST	ENDS
;	COMDAT ?size@?$aligned_storage@$0BI@$07@boost@@2IB
CONST	SEGMENT
?size@?$aligned_storage@$0BI@$07@boost@@2IB DD 018H	; boost::aligned_storage<24,8>::size
CONST	ENDS
;	COMDAT ?value@?$alignment_of_impl@Vass_synth_priv@@@detail@boost@@2IB
CONST	SEGMENT
?value@?$alignment_of_impl@Vass_synth_priv@@@detail@boost@@2IB DD 08H ; boost::detail::alignment_of_impl<ass_synth_priv>::value
CONST	ENDS
;	COMDAT ?value@?$alignment_of_impl@N@detail@boost@@2IB
CONST	SEGMENT
?value@?$alignment_of_impl@N@detail@boost@@2IB DD 08H	; boost::detail::alignment_of_impl<double>::value
CONST	ENDS
;	COMDAT ?value@?$is_arithmetic_impl@V?$refcounted_value@Vrep_type@?$optimized_key_value@NVass_synth_priv@@Uass_synth_priv_key@@@detail@flyweights@boost@@N@detail@flyweights@boost@@@detail@boost@@2_NB
CONST	SEGMENT
?value@?$is_arithmetic_impl@V?$refcounted_value@Vrep_type@?$optimized_key_value@NVass_synth_priv@@Uass_synth_priv_key@@@detail@flyweights@boost@@N@detail@flyweights@boost@@@detail@boost@@2_NB DB 00H ; boost::detail::is_arithmetic_impl<boost::flyweights::detail::refcounted_value<boost::flyweights::detail::optimized_key_value<double,ass_synth_priv,ass_synth_priv_key>::rep_type,double> >::value
CONST	ENDS
;	COMDAT ?value@?$is_pointer_impl@V?$refcounted_value@Vrep_type@?$optimized_key_value@NVass_synth_priv@@Uass_synth_priv_key@@@detail@flyweights@boost@@N@detail@flyweights@boost@@@detail@boost@@2_NB
CONST	SEGMENT
?value@?$is_pointer_impl@V?$refcounted_value@Vrep_type@?$optimized_key_value@NVass_synth_priv@@Uass_synth_priv_key@@@detail@flyweights@boost@@N@detail@flyweights@boost@@@detail@boost@@2_NB DB 00H ; boost::detail::is_pointer_impl<boost::flyweights::detail::refcounted_value<boost::flyweights::detail::optimized_key_value<double,ass_synth_priv,ass_synth_priv_key>::rep_type,double> >::value
CONST	ENDS
;	COMDAT ?value@?$result_@V?$refcounted_value@Vrep_type@?$optimized_key_value@NVass_synth_priv@@Uass_synth_priv_key@@@detail@flyweights@boost@@N@detail@flyweights@boost@@@?$is_mem_fun_pointer_select@$0A@@detail@boost@@2_NB
CONST	SEGMENT
?value@?$result_@V?$refcounted_value@Vrep_type@?$optimized_key_value@NVass_synth_priv@@Uass_synth_priv_key@@@detail@flyweights@boost@@N@detail@flyweights@boost@@@?$is_mem_fun_pointer_select@$0A@@detail@boost@@2_NB DB 00H ; boost::detail::is_mem_fun_pointer_select<0>::result_<boost::flyweights::detail::refcounted_value<boost::flyweights::detail::optimized_key_value<double,ass_synth_priv,ass_synth_priv_key>::rep_type,double> >::value
CONST	ENDS
;	COMDAT ?value@?$is_reference_impl@V?$refcounted_value@Vrep_type@?$optimized_key_value@NVass_synth_priv@@Uass_synth_priv_key@@@detail@flyweights@boost@@N@detail@flyweights@boost@@@detail@boost@@2_NB
CONST	SEGMENT
?value@?$is_reference_impl@V?$refcounted_value@Vrep_type@?$optimized_key_value@NVass_synth_priv@@Uass_synth_priv_key@@@detail@flyweights@boost@@N@detail@flyweights@boost@@@detail@boost@@2_NB DB 00H ; boost::detail::is_reference_impl<boost::flyweights::detail::refcounted_value<boost::flyweights::detail::optimized_key_value<double,ass_synth_priv,ass_synth_priv_key>::rep_type,double> >::value
CONST	ENDS
;	COMDAT ?value@?$is_pointer_helper@V?$refcounted_value@Vrep_type@?$optimized_key_value@NVass_synth_priv@@Uass_synth_priv_key@@@detail@flyweights@boost@@N@detail@flyweights@boost@@@detail@boost@@2_NB
CONST	SEGMENT
?value@?$is_pointer_helper@V?$refcounted_value@Vrep_type@?$optimized_key_value@NVass_synth_priv@@Uass_synth_priv_key@@@detail@flyweights@boost@@N@detail@flyweights@boost@@@detail@boost@@2_NB DB 00H ; boost::detail::is_pointer_helper<boost::flyweights::detail::refcounted_value<boost::flyweights::detail::optimized_key_value<double,ass_synth_priv,ass_synth_priv_key>::rep_type,double> >::value
CONST	ENDS
;	COMDAT ?length@?$nth_layer@$00V?$refcounted_value@Vrep_type@?$optimized_key_value@NVass_synth_priv@@Uass_synth_priv_key@@@detail@flyweights@boost@@N@detail@flyweights@boost@@Uindex_list@?$hashed_factory_class@V?$refcounted_value@Vrep_type@?$optimized_key_value@NVass_synth_priv@@Uass_synth_priv_key@@@detail@flyweights@boost@@N@detail@flyweights@boost@@NUna@mpl@4@U564@U564@@34@V?$allocator@V?$refcounted_value@Vrep_type@?$optimized_key_value@NVass_synth_priv@@Uass_synth_priv_key@@@detail@flyweights@boost@@N@detail@flyweights@boost@@@std@@@detail@multi_index@boost@@2HB
CONST	SEGMENT
?length@?$nth_layer@$00V?$refcounted_value@Vrep_type@?$optimized_key_value@NVass_synth_priv@@Uass_synth_priv_key@@@detail@flyweights@boost@@N@detail@flyweights@boost@@Uindex_list@?$hashed_factory_class@V?$refcounted_value@Vrep_type@?$optimized_key_value@NVass_synth_priv@@Uass_synth_priv_key@@@detail@flyweights@boost@@N@detail@flyweights@boost@@NUna@mpl@4@U564@U564@@34@V?$allocator@V?$refcounted_value@Vrep_type@?$optimized_key_value@NVass_synth_priv@@Uass_synth_priv_key@@@detail@flyweights@boost@@N@detail@flyweights@boost@@@std@@@detail@multi_index@boost@@2HB DD 01H ; boost::multi_index::detail::nth_layer<1,boost::flyweights::detail::refcounted_value<boost::flyweights::detail::optimized_key_value<double,ass_synth_priv,ass_synth_priv_key>::rep_type,double>,boost::flyweights::hashed_factory_class<boost::flyweights::detail::refcounted_value<boost::flyweights::detail::optimized_key_value<double,ass_synth_priv,ass_synth_priv_key>::rep_type,double>,double,boost::mpl::na,boost::mpl::na,boost::mpl::na>::index_list,std::allocator<boost::flyweights::detail::refcounted_value<boost::flyweights::detail::optimized_key_value<double,ass_synth_priv,ass_synth_priv_key>::rep_type,double> > >::length
CONST	ENDS
;	COMDAT ?length@?$nth_layer@$0A@V?$refcounted_value@Vrep_type@?$optimized_key_value@NVass_synth_priv@@Uass_synth_priv_key@@@detail@flyweights@boost@@N@detail@flyweights@boost@@Uindex_list@?$hashed_factory_class@V?$refcounted_value@Vrep_type@?$optimized_key_value@NVass_synth_priv@@Uass_synth_priv_key@@@detail@flyweights@boost@@N@detail@flyweights@boost@@NUna@mpl@4@U564@U564@@34@V?$allocator@V?$refcounted_value@Vrep_type@?$optimized_key_value@NVass_synth_priv@@Uass_synth_priv_key@@@detail@flyweights@boost@@N@detail@flyweights@boost@@@std@@@detail@multi_index@boost@@2HB
CONST	SEGMENT
?length@?$nth_layer@$0A@V?$refcounted_value@Vrep_type@?$optimized_key_value@NVass_synth_priv@@Uass_synth_priv_key@@@detail@flyweights@boost@@N@detail@flyweights@boost@@Uindex_list@?$hashed_factory_class@V?$refcounted_value@Vrep_type@?$optimized_key_value@NVass_synth_priv@@Uass_synth_priv_key@@@detail@flyweights@boost@@N@detail@flyweights@boost@@NUna@mpl@4@U564@U564@@34@V?$allocator@V?$refcounted_value@Vrep_type@?$optimized_key_value@NVass_synth_priv@@Uass_synth_priv_key@@@detail@flyweights@boost@@N@detail@flyweights@boost@@@std@@@detail@multi_index@boost@@2HB DD 01H ; boost::multi_index::detail::nth_layer<0,boost::flyweights::detail::refcounted_value<boost::flyweights::detail::optimized_key_value<double,ass_synth_priv,ass_synth_priv_key>::rep_type,double>,boost::flyweights::hashed_factory_class<boost::flyweights::detail::refcounted_value<boost::flyweights::detail::optimized_key_value<double,ass_synth_priv,ass_synth_priv_key>::rep_type,double>,double,boost::mpl::na,boost::mpl::na,boost::mpl::na>::index_list,std::allocator<boost::flyweights::detail::refcounted_value<boost::flyweights::detail::optimized_key_value<double,ass_synth_priv,ass_synth_priv_key>::rep_type,double> > >::length
CONST	ENDS
;	COMDAT ?value@?$is_partial_std_allocator@V?$allocator@V?$refcounted_value@Vrep_type@?$optimized_key_value@NVass_synth_priv@@Uass_synth_priv_key@@@detail@flyweights@boost@@N@detail@flyweights@boost@@@std@@@allocator@detail@boost@@2_NB
CONST	SEGMENT
?value@?$is_partial_std_allocator@V?$allocator@V?$refcounted_value@Vrep_type@?$optimized_key_value@NVass_synth_priv@@Uass_synth_priv_key@@@detail@flyweights@boost@@N@detail@flyweights@boost@@@std@@@allocator@detail@boost@@2_NB DB 00H ; boost::detail::allocator::is_partial_std_allocator<std::allocator<boost::flyweights::detail::refcounted_value<boost::flyweights::detail::optimized_key_value<double,ass_synth_priv,ass_synth_priv_key>::rep_type,double> > >::value
CONST	ENDS
;	COMDAT ?value@?$is_tag@U?$identity@V?$refcounted_value@Vrep_type@?$optimized_key_value@NVass_synth_priv@@Uass_synth_priv_key@@@detail@flyweights@boost@@N@detail@flyweights@boost@@@multi_index@boost@@@detail@multi_index@boost@@2_NB
CONST	SEGMENT
?value@?$is_tag@U?$identity@V?$refcounted_value@Vrep_type@?$optimized_key_value@NVass_synth_priv@@Uass_synth_priv_key@@@detail@flyweights@boost@@N@detail@flyweights@boost@@@multi_index@boost@@@detail@multi_index@boost@@2_NB DB 00H ; boost::multi_index::detail::is_tag<boost::multi_index::identity<boost::flyweights::detail::refcounted_value<boost::flyweights::detail::optimized_key_value<double,ass_synth_priv,ass_synth_priv_key>::rep_type,double> > >::value
CONST	ENDS
;	COMDAT ?value@?$is_base_and_derived_impl@Utag_marker@detail@multi_index@boost@@U?$identity@V?$refcounted_value@Vrep_type@?$optimized_key_value@NVass_synth_priv@@Uass_synth_priv_key@@@detail@flyweights@boost@@N@detail@flyweights@boost@@@34@@detail@boost@@2_NB
CONST	SEGMENT
?value@?$is_base_and_derived_impl@Utag_marker@detail@multi_index@boost@@U?$identity@V?$refcounted_value@Vrep_type@?$optimized_key_value@NVass_synth_priv@@Uass_synth_priv_key@@@detail@flyweights@boost@@N@detail@flyweights@boost@@@34@@detail@boost@@2_NB DB 00H ; boost::detail::is_base_and_derived_impl<boost::multi_index::detail::tag_marker,boost::multi_index::identity<boost::flyweights::detail::refcounted_value<boost::flyweights::detail::optimized_key_value<double,ass_synth_priv,ass_synth_priv_key>::rep_type,double> > >::value
CONST	ENDS
;	COMDAT ?value@?$is_const_rvalue_filter@V?$refcounted_value@Vrep_type@?$optimized_key_value@NVass_synth_priv@@Uass_synth_priv_key@@@detail@flyweights@boost@@N@detail@flyweights@boost@@@detail@boost@@2_NB
CONST	SEGMENT
?value@?$is_const_rvalue_filter@V?$refcounted_value@Vrep_type@?$optimized_key_value@NVass_synth_priv@@Uass_synth_priv_key@@@detail@flyweights@boost@@N@detail@flyweights@boost@@@detail@boost@@2_NB DB 00H ; boost::detail::is_const_rvalue_filter<boost::flyweights::detail::refcounted_value<boost::flyweights::detail::optimized_key_value<double,ass_synth_priv,ass_synth_priv_key>::rep_type,double> >::value
CONST	ENDS
;	COMDAT ?is_volatile@?$cv_traits_imp@PAV?$refcounted_value@Vrep_type@?$optimized_key_value@NVass_synth_priv@@Uass_synth_priv_key@@@detail@flyweights@boost@@N@detail@flyweights@boost@@@detail@boost@@2_NB
CONST	SEGMENT
?is_volatile@?$cv_traits_imp@PAV?$refcounted_value@Vrep_type@?$optimized_key_value@NVass_synth_priv@@Uass_synth_priv_key@@@detail@flyweights@boost@@N@detail@flyweights@boost@@@detail@boost@@2_NB DB 00H ; boost::detail::cv_traits_imp<boost::flyweights::detail::refcounted_value<boost::flyweights::detail::optimized_key_value<double,ass_synth_priv,ass_synth_priv_key>::rep_type,double> *>::is_volatile
CONST	ENDS
;	COMDAT ?is_const@?$cv_traits_imp@PAV?$refcounted_value@Vrep_type@?$optimized_key_value@NVass_synth_priv@@Uass_synth_priv_key@@@detail@flyweights@boost@@N@detail@flyweights@boost@@@detail@boost@@2_NB
CONST	SEGMENT
?is_const@?$cv_traits_imp@PAV?$refcounted_value@Vrep_type@?$optimized_key_value@NVass_synth_priv@@Uass_synth_priv_key@@@detail@flyweights@boost@@N@detail@flyweights@boost@@@detail@boost@@2_NB DB 00H ; boost::detail::cv_traits_imp<boost::flyweights::detail::refcounted_value<boost::flyweights::detail::optimized_key_value<double,ass_synth_priv,ass_synth_priv_key>::rep_type,double> *>::is_const
CONST	ENDS
;	COMDAT ?is_volatile@?$cv_traits_imp@PAU?$identity@V?$refcounted_value@Vrep_type@?$optimized_key_value@NVass_synth_priv@@Uass_synth_priv_key@@@detail@flyweights@boost@@N@detail@flyweights@boost@@@multi_index@boost@@@detail@boost@@2_NB
CONST	SEGMENT
?is_volatile@?$cv_traits_imp@PAU?$identity@V?$refcounted_value@Vrep_type@?$optimized_key_value@NVass_synth_priv@@Uass_synth_priv_key@@@detail@flyweights@boost@@N@detail@flyweights@boost@@@multi_index@boost@@@detail@boost@@2_NB DB 00H ; boost::detail::cv_traits_imp<boost::multi_index::identity<boost::flyweights::detail::refcounted_value<boost::flyweights::detail::optimized_key_value<double,ass_synth_priv,ass_synth_priv_key>::rep_type,double> > *>::is_volatile
CONST	ENDS
;	COMDAT ?is_const@?$cv_traits_imp@PAU?$identity@V?$refcounted_value@Vrep_type@?$optimized_key_value@NVass_synth_priv@@Uass_synth_priv_key@@@detail@flyweights@boost@@N@detail@flyweights@boost@@@multi_index@boost@@@detail@boost@@2_NB
CONST	SEGMENT
?is_const@?$cv_traits_imp@PAU?$identity@V?$refcounted_value@Vrep_type@?$optimized_key_value@NVass_synth_priv@@Uass_synth_priv_key@@@detail@flyweights@boost@@N@detail@flyweights@boost@@@multi_index@boost@@@detail@boost@@2_NB DB 00H ; boost::detail::cv_traits_imp<boost::multi_index::identity<boost::flyweights::detail::refcounted_value<boost::flyweights::detail::optimized_key_value<double,ass_synth_priv,ass_synth_priv_key>::rep_type,double> > *>::is_const
CONST	ENDS
;	COMDAT ?mpl_assertion_in_line_2@?$apply@U?$index_node_base@V?$refcounted_value@Vrep_type@?$optimized_key_value@NVass_synth_priv@@Uass_synth_priv_key@@@detail@flyweights@boost@@N@detail@flyweights@boost@@V?$allocator@V?$refcounted_value@Vrep_type@?$optimized_key_value@NVass_synth_priv@@Uass_synth_priv_key@@@detail@flyweights@boost@@N@detail@flyweights@boost@@@std@@@detail@multi_index@boost@@U?$v_iter@U?$vector1@U?$hashed_unique@U?$identity@V?$refcounted_value@Vrep_type@?$optimized_key_value@NVass_synth_priv@@Uass_synth_priv_key@@@detail@flyweights@boost@@N@detail@flyweights@boost@@@multi_index@boost@@U?$hash@N@3@U?$equal_to@N@std@@Una@mpl@3@@multi_index@boost@@@mpl@boost@@$0A@@mpl@4@Una@64@U764@U764@@?$arg@$01@mpl@boost@@2IB
CONST	SEGMENT
?mpl_assertion_in_line_2@?$apply@U?$index_node_base@V?$refcounted_value@Vrep_type@?$optimized_key_value@NVass_synth_priv@@Uass_synth_priv_key@@@detail@flyweights@boost@@N@detail@flyweights@boost@@V?$allocator@V?$refcounted_value@Vrep_type@?$optimized_key_value@NVass_synth_priv@@Uass_synth_priv_key@@@detail@flyweights@boost@@N@detail@flyweights@boost@@@std@@@detail@multi_index@boost@@U?$v_iter@U?$vector1@U?$hashed_unique@U?$identity@V?$refcounted_value@Vrep_type@?$optimized_key_value@NVass_synth_priv@@Uass_synth_priv_key@@@detail@flyweights@boost@@N@detail@flyweights@boost@@@multi_index@boost@@U?$hash@N@3@U?$equal_to@N@std@@Una@mpl@3@@multi_index@boost@@@mpl@boost@@$0A@@mpl@4@Una@64@U764@U764@@?$arg@$01@mpl@boost@@2IB DD 04H ; boost::mpl::arg<2>::apply<boost::multi_index::detail::index_node_base<boost::flyweights::detail::refcounted_value<boost::flyweights::detail::optimized_key_value<double,ass_synth_priv,ass_synth_priv_key>::rep_type,double>,std::allocator<boost::flyweights::detail::refcounted_value<boost::flyweights::detail::optimized_key_value<double,ass_synth_priv,ass_synth_priv_key>::rep_type,double> > >,boost::mpl::v_iter<boost::mpl::vector1<boost::multi_index::hashed_unique<boost::multi_index::identity<boost::flyweights::detail::refcounted_value<boost::flyweights::detail::optimized_key_value<double,ass_synth_priv,ass_synth_priv_key>::rep_type,double> >,boost::hash<double>,std::equal_to<double>,boost::mpl::na> >,0>,boost::mpl::na,boost::mpl::na,boost::mpl::na>::mpl_assertion_in_line_2
CONST	ENDS
;	COMDAT ?p@?$assert_arg_pred_not@U?$is_na@U?$v_iter@U?$vector1@U?$hashed_unique@U?$identity@V?$refcounted_value@Vrep_type@?$optimized_key_value@NVass_synth_priv@@Uass_synth_priv_key@@@detail@flyweights@boost@@N@detail@flyweights@boost@@@multi_index@boost@@U?$hash@N@3@U?$equal_to@N@std@@Una@mpl@3@@multi_index@boost@@@mpl@boost@@$0A@@mpl@boost@@@mpl@boost@@@mpl@boost@@2_NB
CONST	SEGMENT
?p@?$assert_arg_pred_not@U?$is_na@U?$v_iter@U?$vector1@U?$hashed_unique@U?$identity@V?$refcounted_value@Vrep_type@?$optimized_key_value@NVass_synth_priv@@Uass_synth_priv_key@@@detail@flyweights@boost@@N@detail@flyweights@boost@@@multi_index@boost@@U?$hash@N@3@U?$equal_to@N@std@@Una@mpl@3@@multi_index@boost@@@mpl@boost@@$0A@@mpl@boost@@@mpl@boost@@@mpl@boost@@2_NB DB 01H ; boost::mpl::assert_arg_pred_not<boost::mpl::is_na<boost::mpl::v_iter<boost::mpl::vector1<boost::multi_index::hashed_unique<boost::multi_index::identity<boost::flyweights::detail::refcounted_value<boost::flyweights::detail::optimized_key_value<double,ass_synth_priv,ass_synth_priv_key>::rep_type,double> >,boost::hash<double>,std::equal_to<double>,boost::mpl::na> >,0> > >::p
CONST	ENDS
;	COMDAT ?mpl_assertion_in_line_1@?$apply@U?$index_node_base@V?$refcounted_value@Vrep_type@?$optimized_key_value@NVass_synth_priv@@Uass_synth_priv_key@@@detail@flyweights@boost@@N@detail@flyweights@boost@@V?$allocator@V?$refcounted_value@Vrep_type@?$optimized_key_value@NVass_synth_priv@@Uass_synth_priv_key@@@detail@flyweights@boost@@N@detail@flyweights@boost@@@std@@@detail@multi_index@boost@@U?$v_iter@U?$vector1@U?$hashed_unique@U?$identity@V?$refcounted_value@Vrep_type@?$optimized_key_value@NVass_synth_priv@@Uass_synth_priv_key@@@detail@flyweights@boost@@N@detail@flyweights@boost@@@multi_index@boost@@U?$hash@N@3@U?$equal_to@N@std@@Una@mpl@3@@multi_index@boost@@@mpl@boost@@$0A@@mpl@4@Una@64@U764@U764@@?$arg@$00@mpl@boost@@2IB
CONST	SEGMENT
?mpl_assertion_in_line_1@?$apply@U?$index_node_base@V?$refcounted_value@Vrep_type@?$optimized_key_value@NVass_synth_priv@@Uass_synth_priv_key@@@detail@flyweights@boost@@N@detail@flyweights@boost@@V?$allocator@V?$refcounted_value@Vrep_type@?$optimized_key_value@NVass_synth_priv@@Uass_synth_priv_key@@@detail@flyweights@boost@@N@detail@flyweights@boost@@@std@@@detail@multi_index@boost@@U?$v_iter@U?$vector1@U?$hashed_unique@U?$identity@V?$refcounted_value@Vrep_type@?$optimized_key_value@NVass_synth_priv@@Uass_synth_priv_key@@@detail@flyweights@boost@@N@detail@flyweights@boost@@@multi_index@boost@@U?$hash@N@3@U?$equal_to@N@std@@Una@mpl@3@@multi_index@boost@@@mpl@boost@@$0A@@mpl@4@Una@64@U764@U764@@?$arg@$00@mpl@boost@@2IB DD 04H ; boost::mpl::arg<1>::apply<boost::multi_index::detail::index_node_base<boost::flyweights::detail::refcounted_value<boost::flyweights::detail::optimized_key_value<double,ass_synth_priv,ass_synth_priv_key>::rep_type,double>,std::allocator<boost::flyweights::detail::refcounted_value<boost::flyweights::detail::optimized_key_value<double,ass_synth_priv,ass_synth_priv_key>::rep_type,double> > >,boost::mpl::v_iter<boost::mpl::vector1<boost::multi_index::hashed_unique<boost::multi_index::identity<boost::flyweights::detail::refcounted_value<boost::flyweights::detail::optimized_key_value<double,ass_synth_priv,ass_synth_priv_key>::rep_type,double> >,boost::hash<double>,std::equal_to<double>,boost::mpl::na> >,0>,boost::mpl::na,boost::mpl::na,boost::mpl::na>::mpl_assertion_in_line_1
CONST	ENDS
;	COMDAT ?p@?$assert_arg_pred_not@U?$is_na@U?$index_node_base@V?$refcounted_value@Vrep_type@?$optimized_key_value@NVass_synth_priv@@Uass_synth_priv_key@@@detail@flyweights@boost@@N@detail@flyweights@boost@@V?$allocator@V?$refcounted_value@Vrep_type@?$optimized_key_value@NVass_synth_priv@@Uass_synth_priv_key@@@detail@flyweights@boost@@N@detail@flyweights@boost@@@std@@@detail@multi_index@boost@@@mpl@boost@@@mpl@boost@@2_NB
CONST	SEGMENT
?p@?$assert_arg_pred_not@U?$is_na@U?$index_node_base@V?$refcounted_value@Vrep_type@?$optimized_key_value@NVass_synth_priv@@Uass_synth_priv_key@@@detail@flyweights@boost@@N@detail@flyweights@boost@@V?$allocator@V?$refcounted_value@Vrep_type@?$optimized_key_value@NVass_synth_priv@@Uass_synth_priv_key@@@detail@flyweights@boost@@N@detail@flyweights@boost@@@std@@@detail@multi_index@boost@@@mpl@boost@@@mpl@boost@@2_NB DB 01H ; boost::mpl::assert_arg_pred_not<boost::mpl::is_na<boost::multi_index::detail::index_node_base<boost::flyweights::detail::refcounted_value<boost::flyweights::detail::optimized_key_value<double,ass_synth_priv,ass_synth_priv_key>::rep_type,double>,std::allocator<boost::flyweights::detail::refcounted_value<boost::flyweights::detail::optimized_key_value<double,ass_synth_priv,ass_synth_priv_key>::rep_type,double> > > > >::p
CONST	ENDS
;	COMDAT ?value@?$is_index_list@Uindex_list@?$hashed_factory_class@V?$refcounted_value@Vrep_type@?$optimized_key_value@NVass_synth_priv@@Uass_synth_priv_key@@@detail@flyweights@boost@@N@detail@flyweights@boost@@NUna@mpl@4@U564@U564@@flyweights@boost@@@detail@multi_index@boost@@2_NB
CONST	SEGMENT
?value@?$is_index_list@Uindex_list@?$hashed_factory_class@V?$refcounted_value@Vrep_type@?$optimized_key_value@NVass_synth_priv@@Uass_synth_priv_key@@@detail@flyweights@boost@@N@detail@flyweights@boost@@NUna@mpl@4@U564@U564@@flyweights@boost@@@detail@multi_index@boost@@2_NB DB 01H ; boost::multi_index::detail::is_index_list<boost::flyweights::hashed_factory_class<boost::flyweights::detail::refcounted_value<boost::flyweights::detail::optimized_key_value<double,ass_synth_priv,ass_synth_priv_key>::rep_type,double>,double,boost::mpl::na,boost::mpl::na,boost::mpl::na>::index_list>::value
CONST	ENDS
;	COMDAT ?non_empty@?$is_index_list@Uindex_list@?$hashed_factory_class@V?$refcounted_value@Vrep_type@?$optimized_key_value@NVass_synth_priv@@Uass_synth_priv_key@@@detail@flyweights@boost@@N@detail@flyweights@boost@@NUna@mpl@4@U564@U564@@flyweights@boost@@@detail@multi_index@boost@@2_NB
CONST	SEGMENT
?non_empty@?$is_index_list@Uindex_list@?$hashed_factory_class@V?$refcounted_value@Vrep_type@?$optimized_key_value@NVass_synth_priv@@Uass_synth_priv_key@@@detail@flyweights@boost@@N@detail@flyweights@boost@@NUna@mpl@4@U564@U564@@flyweights@boost@@@detail@multi_index@boost@@2_NB DB 01H ; boost::multi_index::detail::is_index_list<boost::flyweights::hashed_factory_class<boost::flyweights::detail::refcounted_value<boost::flyweights::detail::optimized_key_value<double,ass_synth_priv,ass_synth_priv_key>::rep_type,double>,double,boost::mpl::na,boost::mpl::na,boost::mpl::na>::index_list>::non_empty
CONST	ENDS
;	COMDAT ?mpl_sequence@?$is_index_list@Uindex_list@?$hashed_factory_class@V?$refcounted_value@Vrep_type@?$optimized_key_value@NVass_synth_priv@@Uass_synth_priv_key@@@detail@flyweights@boost@@N@detail@flyweights@boost@@NUna@mpl@4@U564@U564@@flyweights@boost@@@detail@multi_index@boost@@2_NB
CONST	SEGMENT
?mpl_sequence@?$is_index_list@Uindex_list@?$hashed_factory_class@V?$refcounted_value@Vrep_type@?$optimized_key_value@NVass_synth_priv@@Uass_synth_priv_key@@@detail@flyweights@boost@@N@detail@flyweights@boost@@NUna@mpl@4@U564@U564@@flyweights@boost@@@detail@multi_index@boost@@2_NB DB 01H ; boost::multi_index::detail::is_index_list<boost::flyweights::hashed_factory_class<boost::flyweights::detail::refcounted_value<boost::flyweights::detail::optimized_key_value<double,ass_synth_priv,ass_synth_priv_key>::rep_type,double>,double,boost::mpl::na,boost::mpl::na,boost::mpl::na>::index_list>::mpl_sequence
CONST	ENDS
;	COMDAT ?value@?$has_begin_impl_@Uindex_list@?$hashed_factory_class@V?$refcounted_value@Vrep_type@?$optimized_key_value@NVass_synth_priv@@Uass_synth_priv_key@@@detail@flyweights@boost@@N@detail@flyweights@boost@@NUna@mpl@4@U564@U564@@flyweights@boost@@X@aux@mpl@boost@@2_NB
CONST	SEGMENT
?value@?$has_begin_impl_@Uindex_list@?$hashed_factory_class@V?$refcounted_value@Vrep_type@?$optimized_key_value@NVass_synth_priv@@Uass_synth_priv_key@@@detail@flyweights@boost@@N@detail@flyweights@boost@@NUna@mpl@4@U564@U564@@flyweights@boost@@X@aux@mpl@boost@@2_NB DB 01H ; boost::mpl::aux::has_begin_impl_<boost::flyweights::hashed_factory_class<boost::flyweights::detail::refcounted_value<boost::flyweights::detail::optimized_key_value<double,ass_synth_priv,ass_synth_priv_key>::rep_type,double>,double,boost::mpl::na,boost::mpl::na,boost::mpl::na>::index_list,void>::value
CONST	ENDS
;	COMDAT ?value@?$has_tag_impl_@Uindex_list@?$hashed_factory_class@V?$refcounted_value@Vrep_type@?$optimized_key_value@NVass_synth_priv@@Uass_synth_priv_key@@@detail@flyweights@boost@@N@detail@flyweights@boost@@NUna@mpl@4@U564@U564@@flyweights@boost@@X@aux@mpl@boost@@2_NB
CONST	SEGMENT
?value@?$has_tag_impl_@Uindex_list@?$hashed_factory_class@V?$refcounted_value@Vrep_type@?$optimized_key_value@NVass_synth_priv@@Uass_synth_priv_key@@@detail@flyweights@boost@@N@detail@flyweights@boost@@NUna@mpl@4@U564@U564@@flyweights@boost@@X@aux@mpl@boost@@2_NB DB 01H ; boost::mpl::aux::has_tag_impl_<boost::flyweights::hashed_factory_class<boost::flyweights::detail::refcounted_value<boost::flyweights::detail::optimized_key_value<double,ass_synth_priv,ass_synth_priv_key>::rep_type,double>,double,boost::mpl::na,boost::mpl::na,boost::mpl::na>::index_list,void>::value
CONST	ENDS
;	COMDAT ?mpl_assertion_in_line_2@?$apply@V?$refcounted_value@Vrep_type@?$optimized_key_value@NVass_synth_priv@@Uass_synth_priv_key@@@detail@flyweights@boost@@N@detail@flyweights@boost@@NUna@mpl@4@U564@U564@@?$arg@$01@mpl@boost@@2IB
CONST	SEGMENT
?mpl_assertion_in_line_2@?$apply@V?$refcounted_value@Vrep_type@?$optimized_key_value@NVass_synth_priv@@Uass_synth_priv_key@@@detail@flyweights@boost@@N@detail@flyweights@boost@@NUna@mpl@4@U564@U564@@?$arg@$01@mpl@boost@@2IB DD 04H ; boost::mpl::arg<2>::apply<boost::flyweights::detail::refcounted_value<boost::flyweights::detail::optimized_key_value<double,ass_synth_priv,ass_synth_priv_key>::rep_type,double>,double,boost::mpl::na,boost::mpl::na,boost::mpl::na>::mpl_assertion_in_line_2
CONST	ENDS
;	COMDAT ?p@?$assert_arg_pred_not@U?$is_na@N@mpl@boost@@@mpl@boost@@2_NB
CONST	SEGMENT
?p@?$assert_arg_pred_not@U?$is_na@N@mpl@boost@@@mpl@boost@@2_NB DB 01H ; boost::mpl::assert_arg_pred_not<boost::mpl::is_na<double> >::p
CONST	ENDS
;	COMDAT ?mpl_assertion_in_line_1@?$apply@V?$refcounted_value@Vrep_type@?$optimized_key_value@NVass_synth_priv@@Uass_synth_priv_key@@@detail@flyweights@boost@@N@detail@flyweights@boost@@NUna@mpl@4@U564@U564@@?$arg@$00@mpl@boost@@2IB
CONST	SEGMENT
?mpl_assertion_in_line_1@?$apply@V?$refcounted_value@Vrep_type@?$optimized_key_value@NVass_synth_priv@@Uass_synth_priv_key@@@detail@flyweights@boost@@N@detail@flyweights@boost@@NUna@mpl@4@U564@U564@@?$arg@$00@mpl@boost@@2IB DD 04H ; boost::mpl::arg<1>::apply<boost::flyweights::detail::refcounted_value<boost::flyweights::detail::optimized_key_value<double,ass_synth_priv,ass_synth_priv_key>::rep_type,double>,double,boost::mpl::na,boost::mpl::na,boost::mpl::na>::mpl_assertion_in_line_1
CONST	ENDS
;	COMDAT ?p@?$assert_arg_pred_not@U?$is_na@V?$refcounted_value@Vrep_type@?$optimized_key_value@NVass_synth_priv@@Uass_synth_priv_key@@@detail@flyweights@boost@@N@detail@flyweights@boost@@@mpl@boost@@@mpl@boost@@2_NB
CONST	SEGMENT
?p@?$assert_arg_pred_not@U?$is_na@V?$refcounted_value@Vrep_type@?$optimized_key_value@NVass_synth_priv@@Uass_synth_priv_key@@@detail@flyweights@boost@@N@detail@flyweights@boost@@@mpl@boost@@@mpl@boost@@2_NB DB 01H ; boost::mpl::assert_arg_pred_not<boost::mpl::is_na<boost::flyweights::detail::refcounted_value<boost::flyweights::detail::optimized_key_value<double,ass_synth_priv,ass_synth_priv_key>::rep_type,double> > >::p
CONST	ENDS
;	COMDAT ?mpl_assertion_in_line_12@?$flyweight@U?$key_value@NVass_synth_priv@@Uass_synth_priv_key@@@flyweights@boost@@Uno_locking@23@Uvoid_@parameter@3@U563@U563@U563@@flyweights@boost@@0IB
CONST	SEGMENT
?mpl_assertion_in_line_12@?$flyweight@U?$key_value@NVass_synth_priv@@Uass_synth_priv_key@@@flyweights@boost@@Uno_locking@23@Uvoid_@parameter@3@U563@U563@U563@@flyweights@boost@@0IB DD 04H ; boost::flyweights::flyweight<boost::flyweights::key_value<double,ass_synth_priv,ass_synth_priv_key>,boost::flyweights::no_locking,boost::parameter::void_,boost::parameter::void_,boost::parameter::void_,boost::parameter::void_>::mpl_assertion_in_line_12
CONST	ENDS
;	COMDAT ?value@?$is_base_and_derived_impl@Uvalue_marker@detail@flyweights@boost@@U?$key_value@NVass_synth_priv@@Uass_synth_priv_key@@@34@@detail@boost@@2_NB
CONST	SEGMENT
?value@?$is_base_and_derived_impl@Uvalue_marker@detail@flyweights@boost@@U?$key_value@NVass_synth_priv@@Uass_synth_priv_key@@@34@@detail@boost@@2_NB DB 01H ; boost::detail::is_base_and_derived_impl<boost::flyweights::detail::value_marker,boost::flyweights::key_value<double,ass_synth_priv,ass_synth_priv_key> >::value
CONST	ENDS
;	COMDAT ?is_volatile@?$cv_traits_imp@PAU?$key_value@NVass_synth_priv@@Uass_synth_priv_key@@@flyweights@boost@@@detail@boost@@2_NB
CONST	SEGMENT
?is_volatile@?$cv_traits_imp@PAU?$key_value@NVass_synth_priv@@Uass_synth_priv_key@@@flyweights@boost@@@detail@boost@@2_NB DB 00H ; boost::detail::cv_traits_imp<boost::flyweights::key_value<double,ass_synth_priv,ass_synth_priv_key> *>::is_volatile
CONST	ENDS
;	COMDAT ?is_const@?$cv_traits_imp@PAU?$key_value@NVass_synth_priv@@Uass_synth_priv_key@@@flyweights@boost@@@detail@boost@@2_NB
CONST	SEGMENT
?is_const@?$cv_traits_imp@PAU?$key_value@NVass_synth_priv@@Uass_synth_priv_key@@@flyweights@boost@@@detail@boost@@2_NB DB 00H ; boost::detail::cv_traits_imp<boost::flyweights::key_value<double,ass_synth_priv,ass_synth_priv_key> *>::is_const
CONST	ENDS
;	COMDAT ?VOLUME_BITS@ass_synth_priv@@2HB
CONST	SEGMENT
?VOLUME_BITS@ass_synth_priv@@2HB DD 016H		; ass_synth_priv::VOLUME_BITS
CONST	ENDS
;	COMDAT ?WORD_CACHE_ITEM_NUM@CacheManager@@2HB
CONST	SEGMENT
?WORD_CACHE_ITEM_NUM@CacheManager@@2HB DD 0200H		; CacheManager::WORD_CACHE_ITEM_NUM
CONST	ENDS
;	COMDAT ?PATH_CACHE_ITEM_NUM@CacheManager@@2HB
CONST	SEGMENT
?PATH_CACHE_ITEM_NUM@CacheManager@@2HB DD 0200H		; CacheManager::PATH_CACHE_ITEM_NUM
CONST	ENDS
;	COMDAT ?SCAN_LINE_DATA_CACHE_ITEM_NUM@CacheManager@@2HB
CONST	SEGMENT
?SCAN_LINE_DATA_CACHE_ITEM_NUM@CacheManager@@2HB DD 0200H ; CacheManager::SCAN_LINE_DATA_CACHE_ITEM_NUM
CONST	ENDS
;	COMDAT ?OVERLAY_NO_BLUR_CACHE_ITEM_NUM@CacheManager@@2HB
CONST	SEGMENT
?OVERLAY_NO_BLUR_CACHE_ITEM_NUM@CacheManager@@2HB DD 0100H ; CacheManager::OVERLAY_NO_BLUR_CACHE_ITEM_NUM
CONST	ENDS
;	COMDAT ?OVERLAY_CACHE_ITEM_NUM@CacheManager@@2HB
CONST	SEGMENT
?OVERLAY_CACHE_ITEM_NUM@CacheManager@@2HB DD 0100H	; CacheManager::OVERLAY_CACHE_ITEM_NUM
CONST	ENDS
;	COMDAT ?SUBPIXEL_VARIANCE_CACHE_ITEM_NUM@CacheManager@@2HB
CONST	SEGMENT
?SUBPIXEL_VARIANCE_CACHE_ITEM_NUM@CacheManager@@2HB DD 0100H ; CacheManager::SUBPIXEL_VARIANCE_CACHE_ITEM_NUM
CONST	ENDS
;	COMDAT ?ASS_TAG_LIST_CACHE_ITEM_NUM@CacheManager@@2HB
CONST	SEGMENT
?ASS_TAG_LIST_CACHE_ITEM_NUM@CacheManager@@2HB DD 0100H	; CacheManager::ASS_TAG_LIST_CACHE_ITEM_NUM
CONST	ENDS
;	COMDAT ?TEXT_INFO_CACHE_ITEM_NUM@CacheManager@@2HB
CONST	SEGMENT
?TEXT_INFO_CACHE_ITEM_NUM@CacheManager@@2HB DD 0800H	; CacheManager::TEXT_INFO_CACHE_ITEM_NUM
CONST	ENDS
;	COMDAT ?CLIPPER_ALPHA_MASK_MRU_CACHE@CacheManager@@2HB
CONST	SEGMENT
?CLIPPER_ALPHA_MASK_MRU_CACHE@CacheManager@@2HB DD 030H	; CacheManager::CLIPPER_ALPHA_MASK_MRU_CACHE
CONST	ENDS
;	COMDAT ?MAX_CMD_LENGTH@CRenderedTextSubtitle@@2HB
CONST	SEGMENT
?MAX_CMD_LENGTH@CRenderedTextSubtitle@@2HB DD 05H	; CRenderedTextSubtitle::MAX_CMD_LENGTH
CONST	ENDS
;	COMDAT ?MIN_CMD_LENGTH@CRenderedTextSubtitle@@2HB
CONST	SEGMENT
?MIN_CMD_LENGTH@CRenderedTextSubtitle@@2HB DD 01H	; CRenderedTextSubtitle::MIN_CMD_LENGTH
CONST	ENDS
;	COMDAT ?value@?$has_type_impl_@V?$hashed_factory_class@V?$refcounted_value@Urep_type@?$default_value_policy@USTSStyle@@@detail@flyweights@boost@@USTSStyle@@@detail@flyweights@boost@@USTSStyle@@Una@mpl@4@U674@U674@@flyweights@boost@@X@aux@mpl@boost@@2_NB
CONST	SEGMENT
?value@?$has_type_impl_@V?$hashed_factory_class@V?$refcounted_value@Urep_type@?$default_value_policy@USTSStyle@@@detail@flyweights@boost@@USTSStyle@@@detail@flyweights@boost@@USTSStyle@@Una@mpl@4@U674@U674@@flyweights@boost@@X@aux@mpl@boost@@2_NB DB 01H ; boost::mpl::aux::has_type_impl_<boost::flyweights::hashed_factory_class<boost::flyweights::detail::refcounted_value<boost::flyweights::detail::default_value_policy<STSStyle>::rep_type,STSStyle>,STSStyle,boost::mpl::na,boost::mpl::na,boost::mpl::na>,void>::value
CONST	ENDS
;	COMDAT ?value@?$no_duplicate_tags_in_index_list@U?$vector1@V?$hashed_index@U?$identity@V?$refcounted_value@Urep_type@?$default_value_policy@USTSStyle@@@detail@flyweights@boost@@USTSStyle@@@detail@flyweights@boost@@@multi_index@boost@@U?$hash@USTSStyle@@@3@U?$equal_to@USTSStyle@@@std@@U?$nth_layer@$00V?$refcounted_value@Urep_type@?$default_value_policy@USTSStyle@@@detail@flyweights@boost@@USTSStyle@@@detail@flyweights@boost@@Uindex_list@?$hashed_factory_class@V?$refcounted_value@Urep_type@?$default_value_policy@USTSStyle@@@detail@flyweights@boost@@USTSStyle@@@detail@flyweights@boost@@USTSStyle@@Una@mpl@4@U674@U674@@34@V?$allocator@V?$refcounted_value@Urep_type@?$default_value_policy@USTSStyle@@@detail@flyweights@boost@@USTSStyle@@@detail@flyweights@boost@@@std@@@detail@23@U?$vector0@Una@mpl@boost@@@mpl@3@Uhashed_unique_tag@823@@detail@multi_index@boost@@@mpl@boost@@@detail@multi_index@boost@@2_NB
CONST	SEGMENT
?value@?$no_duplicate_tags_in_index_list@U?$vector1@V?$hashed_index@U?$identity@V?$refcounted_value@Urep_type@?$default_value_policy@USTSStyle@@@detail@flyweights@boost@@USTSStyle@@@detail@flyweights@boost@@@multi_index@boost@@U?$hash@USTSStyle@@@3@U?$equal_to@USTSStyle@@@std@@U?$nth_layer@$00V?$refcounted_value@Urep_type@?$default_value_policy@USTSStyle@@@detail@flyweights@boost@@USTSStyle@@@detail@flyweights@boost@@Uindex_list@?$hashed_factory_class@V?$refcounted_value@Urep_type@?$default_value_policy@USTSStyle@@@detail@flyweights@boost@@USTSStyle@@@detail@flyweights@boost@@USTSStyle@@Una@mpl@4@U674@U674@@34@V?$allocator@V?$refcounted_value@Urep_type@?$default_value_policy@USTSStyle@@@detail@flyweights@boost@@USTSStyle@@@detail@flyweights@boost@@@std@@@detail@23@U?$vector0@Una@mpl@boost@@@mpl@3@Uhashed_unique_tag@823@@detail@multi_index@boost@@@mpl@boost@@@detail@multi_index@boost@@2_NB DB 01H ; boost::multi_index::detail::no_duplicate_tags_in_index_list<boost::mpl::vector1<boost::multi_index::detail::hashed_index<boost::multi_index::identity<boost::flyweights::detail::refcounted_value<boost::flyweights::detail::default_value_policy<STSStyle>::rep_type,STSStyle> >,boost::hash<STSStyle>,std::equal_to<STSStyle>,boost::multi_index::detail::nth_layer<1,boost::flyweights::detail::refcounted_value<boost::flyweights::detail::default_value_policy<STSStyle>::rep_type,STSStyle>,boost::flyweights::hashed_factory_class<boost::flyweights::detail::refcounted_value<boost::flyweights::detail::default_value_policy<STSStyle>::rep_type,STSStyle>,STSStyle,boost::mpl::na,boost::mpl::na,boost::mpl::na>::index_list,std::allocator<boost::flyweights::detail::refcounted_value<boost::flyweights::detail::default_value_policy<STSStyle>::rep_type,STSStyle> > >,boost::mpl::vector0<boost::mpl::na>,boost::multi_index::detail::hashed_unique_tag> > >::value
CONST	ENDS
;	COMDAT ?value@?$has_begin_impl_@U?$vector1@V?$hashed_index@U?$identity@V?$refcounted_value@Urep_type@?$default_value_policy@USTSStyle@@@detail@flyweights@boost@@USTSStyle@@@detail@flyweights@boost@@@multi_index@boost@@U?$hash@USTSStyle@@@3@U?$equal_to@USTSStyle@@@std@@U?$nth_layer@$00V?$refcounted_value@Urep_type@?$default_value_policy@USTSStyle@@@detail@flyweights@boost@@USTSStyle@@@detail@flyweights@boost@@Uindex_list@?$hashed_factory_class@V?$refcounted_value@Urep_type@?$default_value_policy@USTSStyle@@@detail@flyweights@boost@@USTSStyle@@@detail@flyweights@boost@@USTSStyle@@Una@mpl@4@U674@U674@@34@V?$allocator@V?$refcounted_value@Urep_type@?$default_value_policy@USTSStyle@@@detail@flyweights@boost@@USTSStyle@@@detail@flyweights@boost@@@std@@@detail@23@U?$vector0@Una@mpl@boost@@@mpl@3@Uhashed_unique_tag@823@@detail@multi_index@boost@@@mpl@boost@@X@aux@mpl@boost@@2_NB
CONST	SEGMENT
?value@?$has_begin_impl_@U?$vector1@V?$hashed_index@U?$identity@V?$refcounted_value@Urep_type@?$default_value_policy@USTSStyle@@@detail@flyweights@boost@@USTSStyle@@@detail@flyweights@boost@@@multi_index@boost@@U?$hash@USTSStyle@@@3@U?$equal_to@USTSStyle@@@std@@U?$nth_layer@$00V?$refcounted_value@Urep_type@?$default_value_policy@USTSStyle@@@detail@flyweights@boost@@USTSStyle@@@detail@flyweights@boost@@Uindex_list@?$hashed_factory_class@V?$refcounted_value@Urep_type@?$default_value_policy@USTSStyle@@@detail@flyweights@boost@@USTSStyle@@@detail@flyweights@boost@@USTSStyle@@Una@mpl@4@U674@U674@@34@V?$allocator@V?$refcounted_value@Urep_type@?$default_value_policy@USTSStyle@@@detail@flyweights@boost@@USTSStyle@@@detail@flyweights@boost@@@std@@@detail@23@U?$vector0@Una@mpl@boost@@@mpl@3@Uhashed_unique_tag@823@@detail@multi_index@boost@@@mpl@boost@@X@aux@mpl@boost@@2_NB DB 01H ; boost::mpl::aux::has_begin_impl_<boost::mpl::vector1<boost::multi_index::detail::hashed_index<boost::multi_index::identity<boost::flyweights::detail::refcounted_value<boost::flyweights::detail::default_value_policy<STSStyle>::rep_type,STSStyle> >,boost::hash<STSStyle>,std::equal_to<STSStyle>,boost::multi_index::detail::nth_layer<1,boost::flyweights::detail::refcounted_value<boost::flyweights::detail::default_value_policy<STSStyle>::rep_type,STSStyle>,boost::flyweights::hashed_factory_class<boost::flyweights::detail::refcounted_value<boost::flyweights::detail::default_value_policy<STSStyle>::rep_type,STSStyle>,STSStyle,boost::mpl::na,boost::mpl::na,boost::mpl::na>::index_list,std::allocator<boost::flyweights::detail::refcounted_value<boost::flyweights::detail::default_value_policy<STSStyle>::rep_type,STSStyle> > >,boost::mpl::vector0<boost::mpl::na>,boost::multi_index::detail::hashed_unique_tag> >,void>::value
CONST	ENDS
;	COMDAT ?value@?$has_tag_impl_@U?$vector1@V?$hashed_index@U?$identity@V?$refcounted_value@Urep_type@?$default_value_policy@USTSStyle@@@detail@flyweights@boost@@USTSStyle@@@detail@flyweights@boost@@@multi_index@boost@@U?$hash@USTSStyle@@@3@U?$equal_to@USTSStyle@@@std@@U?$nth_layer@$00V?$refcounted_value@Urep_type@?$default_value_policy@USTSStyle@@@detail@flyweights@boost@@USTSStyle@@@detail@flyweights@boost@@Uindex_list@?$hashed_factory_class@V?$refcounted_value@Urep_type@?$default_value_policy@USTSStyle@@@detail@flyweights@boost@@USTSStyle@@@detail@flyweights@boost@@USTSStyle@@Una@mpl@4@U674@U674@@34@V?$allocator@V?$refcounted_value@Urep_type@?$default_value_policy@USTSStyle@@@detail@flyweights@boost@@USTSStyle@@@detail@flyweights@boost@@@std@@@detail@23@U?$vector0@Una@mpl@boost@@@mpl@3@Uhashed_unique_tag@823@@detail@multi_index@boost@@@mpl@boost@@X@aux@mpl@boost@@2_NB
CONST	SEGMENT
?value@?$has_tag_impl_@U?$vector1@V?$hashed_index@U?$identity@V?$refcounted_value@Urep_type@?$default_value_policy@USTSStyle@@@detail@flyweights@boost@@USTSStyle@@@detail@flyweights@boost@@@multi_index@boost@@U?$hash@USTSStyle@@@3@U?$equal_to@USTSStyle@@@std@@U?$nth_layer@$00V?$refcounted_value@Urep_type@?$default_value_policy@USTSStyle@@@detail@flyweights@boost@@USTSStyle@@@detail@flyweights@boost@@Uindex_list@?$hashed_factory_class@V?$refcounted_value@Urep_type@?$default_value_policy@USTSStyle@@@detail@flyweights@boost@@USTSStyle@@@detail@flyweights@boost@@USTSStyle@@Una@mpl@4@U674@U674@@34@V?$allocator@V?$refcounted_value@Urep_type@?$default_value_policy@USTSStyle@@@detail@flyweights@boost@@USTSStyle@@@detail@flyweights@boost@@@std@@@detail@23@U?$vector0@Una@mpl@boost@@@mpl@3@Uhashed_unique_tag@823@@detail@multi_index@boost@@@mpl@boost@@X@aux@mpl@boost@@2_NB DB 01H ; boost::mpl::aux::has_tag_impl_<boost::mpl::vector1<boost::multi_index::detail::hashed_index<boost::multi_index::identity<boost::flyweights::detail::refcounted_value<boost::flyweights::detail::default_value_policy<STSStyle>::rep_type,STSStyle> >,boost::hash<STSStyle>,std::equal_to<STSStyle>,boost::multi_index::detail::nth_layer<1,boost::flyweights::detail::refcounted_value<boost::flyweights::detail::default_value_policy<STSStyle>::rep_type,STSStyle>,boost::flyweights::hashed_factory_class<boost::flyweights::detail::refcounted_value<boost::flyweights::detail::default_value_policy<STSStyle>::rep_type,STSStyle>,STSStyle,boost::mpl::na,boost::mpl::na,boost::mpl::na>::index_list,std::allocator<boost::flyweights::detail::refcounted_value<boost::flyweights::detail::default_value_policy<STSStyle>::rep_type,STSStyle> > >,boost::mpl::vector0<boost::mpl::na>,boost::multi_index::detail::hashed_unique_tag> >,void>::value
CONST	ENDS
;	COMDAT ?alignment@?$aligned_storage@$0MA@$07@boost@@2IB
CONST	SEGMENT
?alignment@?$aligned_storage@$0MA@$07@boost@@2IB DD 08H	; boost::aligned_storage<192,8>::alignment
CONST	ENDS
;	COMDAT ?size@?$aligned_storage@$0MA@$07@boost@@2IB
CONST	SEGMENT
?size@?$aligned_storage@$0MA@$07@boost@@2IB DD 0c0H	; boost::aligned_storage<192,8>::size
CONST	ENDS
;	COMDAT ?value@?$alignment_of_impl@V?$refcounted_value@Urep_type@?$default_value_policy@USTSStyle@@@detail@flyweights@boost@@USTSStyle@@@detail@flyweights@boost@@@detail@boost@@2IB
CONST	SEGMENT
?value@?$alignment_of_impl@V?$refcounted_value@Urep_type@?$default_value_policy@USTSStyle@@@detail@flyweights@boost@@USTSStyle@@@detail@flyweights@boost@@@detail@boost@@2IB DD 08H ; boost::detail::alignment_of_impl<boost::flyweights::detail::refcounted_value<boost::flyweights::detail::default_value_policy<STSStyle>::rep_type,STSStyle> >::value
CONST	ENDS
;	COMDAT ?value@?$is_arithmetic_impl@V?$refcounted_value@Urep_type@?$default_value_policy@USTSStyle@@@detail@flyweights@boost@@USTSStyle@@@detail@flyweights@boost@@@detail@boost@@2_NB
CONST	SEGMENT
?value@?$is_arithmetic_impl@V?$refcounted_value@Urep_type@?$default_value_policy@USTSStyle@@@detail@flyweights@boost@@USTSStyle@@@detail@flyweights@boost@@@detail@boost@@2_NB DB 00H ; boost::detail::is_arithmetic_impl<boost::flyweights::detail::refcounted_value<boost::flyweights::detail::default_value_policy<STSStyle>::rep_type,STSStyle> >::value
CONST	ENDS
;	COMDAT ?value@?$is_pointer_impl@V?$refcounted_value@Urep_type@?$default_value_policy@USTSStyle@@@detail@flyweights@boost@@USTSStyle@@@detail@flyweights@boost@@@detail@boost@@2_NB
CONST	SEGMENT
?value@?$is_pointer_impl@V?$refcounted_value@Urep_type@?$default_value_policy@USTSStyle@@@detail@flyweights@boost@@USTSStyle@@@detail@flyweights@boost@@@detail@boost@@2_NB DB 00H ; boost::detail::is_pointer_impl<boost::flyweights::detail::refcounted_value<boost::flyweights::detail::default_value_policy<STSStyle>::rep_type,STSStyle> >::value
CONST	ENDS
;	COMDAT ?value@?$result_@V?$refcounted_value@Urep_type@?$default_value_policy@USTSStyle@@@detail@flyweights@boost@@USTSStyle@@@detail@flyweights@boost@@@?$is_mem_fun_pointer_select@$0A@@detail@boost@@2_NB
CONST	SEGMENT
?value@?$result_@V?$refcounted_value@Urep_type@?$default_value_policy@USTSStyle@@@detail@flyweights@boost@@USTSStyle@@@detail@flyweights@boost@@@?$is_mem_fun_pointer_select@$0A@@detail@boost@@2_NB DB 00H ; boost::detail::is_mem_fun_pointer_select<0>::result_<boost::flyweights::detail::refcounted_value<boost::flyweights::detail::default_value_policy<STSStyle>::rep_type,STSStyle> >::value
CONST	ENDS
;	COMDAT ?value@?$is_reference_impl@V?$refcounted_value@Urep_type@?$default_value_policy@USTSStyle@@@detail@flyweights@boost@@USTSStyle@@@detail@flyweights@boost@@@detail@boost@@2_NB
CONST	SEGMENT
?value@?$is_reference_impl@V?$refcounted_value@Urep_type@?$default_value_policy@USTSStyle@@@detail@flyweights@boost@@USTSStyle@@@detail@flyweights@boost@@@detail@boost@@2_NB DB 00H ; boost::detail::is_reference_impl<boost::flyweights::detail::refcounted_value<boost::flyweights::detail::default_value_policy<STSStyle>::rep_type,STSStyle> >::value
CONST	ENDS
;	COMDAT ?value@?$is_pointer_helper@V?$refcounted_value@Urep_type@?$default_value_policy@USTSStyle@@@detail@flyweights@boost@@USTSStyle@@@detail@flyweights@boost@@@detail@boost@@2_NB
CONST	SEGMENT
?value@?$is_pointer_helper@V?$refcounted_value@Urep_type@?$default_value_policy@USTSStyle@@@detail@flyweights@boost@@USTSStyle@@@detail@flyweights@boost@@@detail@boost@@2_NB DB 00H ; boost::detail::is_pointer_helper<boost::flyweights::detail::refcounted_value<boost::flyweights::detail::default_value_policy<STSStyle>::rep_type,STSStyle> >::value
CONST	ENDS
;	COMDAT ?length@?$nth_layer@$00V?$refcounted_value@Urep_type@?$default_value_policy@USTSStyle@@@detail@flyweights@boost@@USTSStyle@@@detail@flyweights@boost@@Uindex_list@?$hashed_factory_class@V?$refcounted_value@Urep_type@?$default_value_policy@USTSStyle@@@detail@flyweights@boost@@USTSStyle@@@detail@flyweights@boost@@USTSStyle@@Una@mpl@4@U674@U674@@34@V?$allocator@V?$refcounted_value@Urep_type@?$default_value_policy@USTSStyle@@@detail@flyweights@boost@@USTSStyle@@@detail@flyweights@boost@@@std@@@detail@multi_index@boost@@2HB
CONST	SEGMENT
?length@?$nth_layer@$00V?$refcounted_value@Urep_type@?$default_value_policy@USTSStyle@@@detail@flyweights@boost@@USTSStyle@@@detail@flyweights@boost@@Uindex_list@?$hashed_factory_class@V?$refcounted_value@Urep_type@?$default_value_policy@USTSStyle@@@detail@flyweights@boost@@USTSStyle@@@detail@flyweights@boost@@USTSStyle@@Una@mpl@4@U674@U674@@34@V?$allocator@V?$refcounted_value@Urep_type@?$default_value_policy@USTSStyle@@@detail@flyweights@boost@@USTSStyle@@@detail@flyweights@boost@@@std@@@detail@multi_index@boost@@2HB DD 01H ; boost::multi_index::detail::nth_layer<1,boost::flyweights::detail::refcounted_value<boost::flyweights::detail::default_value_policy<STSStyle>::rep_type,STSStyle>,boost::flyweights::hashed_factory_class<boost::flyweights::detail::refcounted_value<boost::flyweights::detail::default_value_policy<STSStyle>::rep_type,STSStyle>,STSStyle,boost::mpl::na,boost::mpl::na,boost::mpl::na>::index_list,std::allocator<boost::flyweights::detail::refcounted_value<boost::flyweights::detail::default_value_policy<STSStyle>::rep_type,STSStyle> > >::length
CONST	ENDS
;	COMDAT ?length@?$nth_layer@$0A@V?$refcounted_value@Urep_type@?$default_value_policy@USTSStyle@@@detail@flyweights@boost@@USTSStyle@@@detail@flyweights@boost@@Uindex_list@?$hashed_factory_class@V?$refcounted_value@Urep_type@?$default_value_policy@USTSStyle@@@detail@flyweights@boost@@USTSStyle@@@detail@flyweights@boost@@USTSStyle@@Una@mpl@4@U674@U674@@34@V?$allocator@V?$refcounted_value@Urep_type@?$default_value_policy@USTSStyle@@@detail@flyweights@boost@@USTSStyle@@@detail@flyweights@boost@@@std@@@detail@multi_index@boost@@2HB
CONST	SEGMENT
?length@?$nth_layer@$0A@V?$refcounted_value@Urep_type@?$default_value_policy@USTSStyle@@@detail@flyweights@boost@@USTSStyle@@@detail@flyweights@boost@@Uindex_list@?$hashed_factory_class@V?$refcounted_value@Urep_type@?$default_value_policy@USTSStyle@@@detail@flyweights@boost@@USTSStyle@@@detail@flyweights@boost@@USTSStyle@@Una@mpl@4@U674@U674@@34@V?$allocator@V?$refcounted_value@Urep_type@?$default_value_policy@USTSStyle@@@detail@flyweights@boost@@USTSStyle@@@detail@flyweights@boost@@@std@@@detail@multi_index@boost@@2HB DD 01H ; boost::multi_index::detail::nth_layer<0,boost::flyweights::detail::refcounted_value<boost::flyweights::detail::default_value_policy<STSStyle>::rep_type,STSStyle>,boost::flyweights::hashed_factory_class<boost::flyweights::detail::refcounted_value<boost::flyweights::detail::default_value_policy<STSStyle>::rep_type,STSStyle>,STSStyle,boost::mpl::na,boost::mpl::na,boost::mpl::na>::index_list,std::allocator<boost::flyweights::detail::refcounted_value<boost::flyweights::detail::default_value_policy<STSStyle>::rep_type,STSStyle> > >::length
CONST	ENDS
;	COMDAT ?value@?$is_partial_std_allocator@V?$allocator@V?$refcounted_value@Urep_type@?$default_value_policy@USTSStyle@@@detail@flyweights@boost@@USTSStyle@@@detail@flyweights@boost@@@std@@@allocator@detail@boost@@2_NB
CONST	SEGMENT
?value@?$is_partial_std_allocator@V?$allocator@V?$refcounted_value@Urep_type@?$default_value_policy@USTSStyle@@@detail@flyweights@boost@@USTSStyle@@@detail@flyweights@boost@@@std@@@allocator@detail@boost@@2_NB DB 00H ; boost::detail::allocator::is_partial_std_allocator<std::allocator<boost::flyweights::detail::refcounted_value<boost::flyweights::detail::default_value_policy<STSStyle>::rep_type,STSStyle> > >::value
CONST	ENDS
;	COMDAT ?value@?$is_tag@U?$identity@V?$refcounted_value@Urep_type@?$default_value_policy@USTSStyle@@@detail@flyweights@boost@@USTSStyle@@@detail@flyweights@boost@@@multi_index@boost@@@detail@multi_index@boost@@2_NB
CONST	SEGMENT
?value@?$is_tag@U?$identity@V?$refcounted_value@Urep_type@?$default_value_policy@USTSStyle@@@detail@flyweights@boost@@USTSStyle@@@detail@flyweights@boost@@@multi_index@boost@@@detail@multi_index@boost@@2_NB DB 00H ; boost::multi_index::detail::is_tag<boost::multi_index::identity<boost::flyweights::detail::refcounted_value<boost::flyweights::detail::default_value_policy<STSStyle>::rep_type,STSStyle> > >::value
CONST	ENDS
;	COMDAT ?value@?$is_base_and_derived_impl@Utag_marker@detail@multi_index@boost@@U?$identity@V?$refcounted_value@Urep_type@?$default_value_policy@USTSStyle@@@detail@flyweights@boost@@USTSStyle@@@detail@flyweights@boost@@@34@@detail@boost@@2_NB
CONST	SEGMENT
?value@?$is_base_and_derived_impl@Utag_marker@detail@multi_index@boost@@U?$identity@V?$refcounted_value@Urep_type@?$default_value_policy@USTSStyle@@@detail@flyweights@boost@@USTSStyle@@@detail@flyweights@boost@@@34@@detail@boost@@2_NB DB 00H ; boost::detail::is_base_and_derived_impl<boost::multi_index::detail::tag_marker,boost::multi_index::identity<boost::flyweights::detail::refcounted_value<boost::flyweights::detail::default_value_policy<STSStyle>::rep_type,STSStyle> > >::value
CONST	ENDS
;	COMDAT ?value@?$is_const_rvalue_filter@V?$refcounted_value@Urep_type@?$default_value_policy@USTSStyle@@@detail@flyweights@boost@@USTSStyle@@@detail@flyweights@boost@@@detail@boost@@2_NB
CONST	SEGMENT
?value@?$is_const_rvalue_filter@V?$refcounted_value@Urep_type@?$default_value_policy@USTSStyle@@@detail@flyweights@boost@@USTSStyle@@@detail@flyweights@boost@@@detail@boost@@2_NB DB 00H ; boost::detail::is_const_rvalue_filter<boost::flyweights::detail::refcounted_value<boost::flyweights::detail::default_value_policy<STSStyle>::rep_type,STSStyle> >::value
CONST	ENDS
;	COMDAT ?is_volatile@?$cv_traits_imp@PAV?$refcounted_value@Urep_type@?$default_value_policy@USTSStyle@@@detail@flyweights@boost@@USTSStyle@@@detail@flyweights@boost@@@detail@boost@@2_NB
CONST	SEGMENT
?is_volatile@?$cv_traits_imp@PAV?$refcounted_value@Urep_type@?$default_value_policy@USTSStyle@@@detail@flyweights@boost@@USTSStyle@@@detail@flyweights@boost@@@detail@boost@@2_NB DB 00H ; boost::detail::cv_traits_imp<boost::flyweights::detail::refcounted_value<boost::flyweights::detail::default_value_policy<STSStyle>::rep_type,STSStyle> *>::is_volatile
CONST	ENDS
;	COMDAT ?is_const@?$cv_traits_imp@PAV?$refcounted_value@Urep_type@?$default_value_policy@USTSStyle@@@detail@flyweights@boost@@USTSStyle@@@detail@flyweights@boost@@@detail@boost@@2_NB
CONST	SEGMENT
?is_const@?$cv_traits_imp@PAV?$refcounted_value@Urep_type@?$default_value_policy@USTSStyle@@@detail@flyweights@boost@@USTSStyle@@@detail@flyweights@boost@@@detail@boost@@2_NB DB 00H ; boost::detail::cv_traits_imp<boost::flyweights::detail::refcounted_value<boost::flyweights::detail::default_value_policy<STSStyle>::rep_type,STSStyle> *>::is_const
CONST	ENDS
;	COMDAT ?is_volatile@?$cv_traits_imp@PAU?$identity@V?$refcounted_value@Urep_type@?$default_value_policy@USTSStyle@@@detail@flyweights@boost@@USTSStyle@@@detail@flyweights@boost@@@multi_index@boost@@@detail@boost@@2_NB
CONST	SEGMENT
?is_volatile@?$cv_traits_imp@PAU?$identity@V?$refcounted_value@Urep_type@?$default_value_policy@USTSStyle@@@detail@flyweights@boost@@USTSStyle@@@detail@flyweights@boost@@@multi_index@boost@@@detail@boost@@2_NB DB 00H ; boost::detail::cv_traits_imp<boost::multi_index::identity<boost::flyweights::detail::refcounted_value<boost::flyweights::detail::default_value_policy<STSStyle>::rep_type,STSStyle> > *>::is_volatile
CONST	ENDS
;	COMDAT ?is_const@?$cv_traits_imp@PAU?$identity@V?$refcounted_value@Urep_type@?$default_value_policy@USTSStyle@@@detail@flyweights@boost@@USTSStyle@@@detail@flyweights@boost@@@multi_index@boost@@@detail@boost@@2_NB
CONST	SEGMENT
?is_const@?$cv_traits_imp@PAU?$identity@V?$refcounted_value@Urep_type@?$default_value_policy@USTSStyle@@@detail@flyweights@boost@@USTSStyle@@@detail@flyweights@boost@@@multi_index@boost@@@detail@boost@@2_NB DB 00H ; boost::detail::cv_traits_imp<boost::multi_index::identity<boost::flyweights::detail::refcounted_value<boost::flyweights::detail::default_value_policy<STSStyle>::rep_type,STSStyle> > *>::is_const
CONST	ENDS
;	COMDAT ?mpl_assertion_in_line_2@?$apply@U?$index_node_base@V?$refcounted_value@Urep_type@?$default_value_policy@USTSStyle@@@detail@flyweights@boost@@USTSStyle@@@detail@flyweights@boost@@V?$allocator@V?$refcounted_value@Urep_type@?$default_value_policy@USTSStyle@@@detail@flyweights@boost@@USTSStyle@@@detail@flyweights@boost@@@std@@@detail@multi_index@boost@@U?$v_iter@U?$vector1@U?$hashed_unique@U?$identity@V?$refcounted_value@Urep_type@?$default_value_policy@USTSStyle@@@detail@flyweights@boost@@USTSStyle@@@detail@flyweights@boost@@@multi_index@boost@@U?$hash@USTSStyle@@@3@U?$equal_to@USTSStyle@@@std@@Una@mpl@3@@multi_index@boost@@@mpl@boost@@$0A@@mpl@4@Una@64@U764@U764@@?$arg@$01@mpl@boost@@2IB
CONST	SEGMENT
?mpl_assertion_in_line_2@?$apply@U?$index_node_base@V?$refcounted_value@Urep_type@?$default_value_policy@USTSStyle@@@detail@flyweights@boost@@USTSStyle@@@detail@flyweights@boost@@V?$allocator@V?$refcounted_value@Urep_type@?$default_value_policy@USTSStyle@@@detail@flyweights@boost@@USTSStyle@@@detail@flyweights@boost@@@std@@@detail@multi_index@boost@@U?$v_iter@U?$vector1@U?$hashed_unique@U?$identity@V?$refcounted_value@Urep_type@?$default_value_policy@USTSStyle@@@detail@flyweights@boost@@USTSStyle@@@detail@flyweights@boost@@@multi_index@boost@@U?$hash@USTSStyle@@@3@U?$equal_to@USTSStyle@@@std@@Una@mpl@3@@multi_index@boost@@@mpl@boost@@$0A@@mpl@4@Una@64@U764@U764@@?$arg@$01@mpl@boost@@2IB DD 04H ; boost::mpl::arg<2>::apply<boost::multi_index::detail::index_node_base<boost::flyweights::detail::refcounted_value<boost::flyweights::detail::default_value_policy<STSStyle>::rep_type,STSStyle>,std::allocator<boost::flyweights::detail::refcounted_value<boost::flyweights::detail::default_value_policy<STSStyle>::rep_type,STSStyle> > >,boost::mpl::v_iter<boost::mpl::vector1<boost::multi_index::hashed_unique<boost::multi_index::identity<boost::flyweights::detail::refcounted_value<boost::flyweights::detail::default_value_policy<STSStyle>::rep_type,STSStyle> >,boost::hash<STSStyle>,std::equal_to<STSStyle>,boost::mpl::na> >,0>,boost::mpl::na,boost::mpl::na,boost::mpl::na>::mpl_assertion_in_line_2
CONST	ENDS
;	COMDAT ?p@?$assert_arg_pred_not@U?$is_na@U?$v_iter@U?$vector1@U?$hashed_unique@U?$identity@V?$refcounted_value@Urep_type@?$default_value_policy@USTSStyle@@@detail@flyweights@boost@@USTSStyle@@@detail@flyweights@boost@@@multi_index@boost@@U?$hash@USTSStyle@@@3@U?$equal_to@USTSStyle@@@std@@Una@mpl@3@@multi_index@boost@@@mpl@boost@@$0A@@mpl@boost@@@mpl@boost@@@mpl@boost@@2_NB
CONST	SEGMENT
?p@?$assert_arg_pred_not@U?$is_na@U?$v_iter@U?$vector1@U?$hashed_unique@U?$identity@V?$refcounted_value@Urep_type@?$default_value_policy@USTSStyle@@@detail@flyweights@boost@@USTSStyle@@@detail@flyweights@boost@@@multi_index@boost@@U?$hash@USTSStyle@@@3@U?$equal_to@USTSStyle@@@std@@Una@mpl@3@@multi_index@boost@@@mpl@boost@@$0A@@mpl@boost@@@mpl@boost@@@mpl@boost@@2_NB DB 01H ; boost::mpl::assert_arg_pred_not<boost::mpl::is_na<boost::mpl::v_iter<boost::mpl::vector1<boost::multi_index::hashed_unique<boost::multi_index::identity<boost::flyweights::detail::refcounted_value<boost::flyweights::detail::default_value_policy<STSStyle>::rep_type,STSStyle> >,boost::hash<STSStyle>,std::equal_to<STSStyle>,boost::mpl::na> >,0> > >::p
CONST	ENDS
;	COMDAT ?mpl_assertion_in_line_1@?$apply@U?$index_node_base@V?$refcounted_value@Urep_type@?$default_value_policy@USTSStyle@@@detail@flyweights@boost@@USTSStyle@@@detail@flyweights@boost@@V?$allocator@V?$refcounted_value@Urep_type@?$default_value_policy@USTSStyle@@@detail@flyweights@boost@@USTSStyle@@@detail@flyweights@boost@@@std@@@detail@multi_index@boost@@U?$v_iter@U?$vector1@U?$hashed_unique@U?$identity@V?$refcounted_value@Urep_type@?$default_value_policy@USTSStyle@@@detail@flyweights@boost@@USTSStyle@@@detail@flyweights@boost@@@multi_index@boost@@U?$hash@USTSStyle@@@3@U?$equal_to@USTSStyle@@@std@@Una@mpl@3@@multi_index@boost@@@mpl@boost@@$0A@@mpl@4@Una@64@U764@U764@@?$arg@$00@mpl@boost@@2IB
CONST	SEGMENT
?mpl_assertion_in_line_1@?$apply@U?$index_node_base@V?$refcounted_value@Urep_type@?$default_value_policy@USTSStyle@@@detail@flyweights@boost@@USTSStyle@@@detail@flyweights@boost@@V?$allocator@V?$refcounted_value@Urep_type@?$default_value_policy@USTSStyle@@@detail@flyweights@boost@@USTSStyle@@@detail@flyweights@boost@@@std@@@detail@multi_index@boost@@U?$v_iter@U?$vector1@U?$hashed_unique@U?$identity@V?$refcounted_value@Urep_type@?$default_value_policy@USTSStyle@@@detail@flyweights@boost@@USTSStyle@@@detail@flyweights@boost@@@multi_index@boost@@U?$hash@USTSStyle@@@3@U?$equal_to@USTSStyle@@@std@@Una@mpl@3@@multi_index@boost@@@mpl@boost@@$0A@@mpl@4@Una@64@U764@U764@@?$arg@$00@mpl@boost@@2IB DD 04H ; boost::mpl::arg<1>::apply<boost::multi_index::detail::index_node_base<boost::flyweights::detail::refcounted_value<boost::flyweights::detail::default_value_policy<STSStyle>::rep_type,STSStyle>,std::allocator<boost::flyweights::detail::refcounted_value<boost::flyweights::detail::default_value_policy<STSStyle>::rep_type,STSStyle> > >,boost::mpl::v_iter<boost::mpl::vector1<boost::multi_index::hashed_unique<boost::multi_index::identity<boost::flyweights::detail::refcounted_value<boost::flyweights::detail::default_value_policy<STSStyle>::rep_type,STSStyle> >,boost::hash<STSStyle>,std::equal_to<STSStyle>,boost::mpl::na> >,0>,boost::mpl::na,boost::mpl::na,boost::mpl::na>::mpl_assertion_in_line_1
CONST	ENDS
;	COMDAT ?p@?$assert_arg_pred_not@U?$is_na@U?$index_node_base@V?$refcounted_value@Urep_type@?$default_value_policy@USTSStyle@@@detail@flyweights@boost@@USTSStyle@@@detail@flyweights@boost@@V?$allocator@V?$refcounted_value@Urep_type@?$default_value_policy@USTSStyle@@@detail@flyweights@boost@@USTSStyle@@@detail@flyweights@boost@@@std@@@detail@multi_index@boost@@@mpl@boost@@@mpl@boost@@2_NB
CONST	SEGMENT
?p@?$assert_arg_pred_not@U?$is_na@U?$index_node_base@V?$refcounted_value@Urep_type@?$default_value_policy@USTSStyle@@@detail@flyweights@boost@@USTSStyle@@@detail@flyweights@boost@@V?$allocator@V?$refcounted_value@Urep_type@?$default_value_policy@USTSStyle@@@detail@flyweights@boost@@USTSStyle@@@detail@flyweights@boost@@@std@@@detail@multi_index@boost@@@mpl@boost@@@mpl@boost@@2_NB DB 01H ; boost::mpl::assert_arg_pred_not<boost::mpl::is_na<boost::multi_index::detail::index_node_base<boost::flyweights::detail::refcounted_value<boost::flyweights::detail::default_value_policy<STSStyle>::rep_type,STSStyle>,std::allocator<boost::flyweights::detail::refcounted_value<boost::flyweights::detail::default_value_policy<STSStyle>::rep_type,STSStyle> > > > >::p
CONST	ENDS
;	COMDAT ?value@?$is_index_list@Uindex_list@?$hashed_factory_class@V?$refcounted_value@Urep_type@?$default_value_policy@USTSStyle@@@detail@flyweights@boost@@USTSStyle@@@detail@flyweights@boost@@USTSStyle@@Una@mpl@4@U674@U674@@flyweights@boost@@@detail@multi_index@boost@@2_NB
CONST	SEGMENT
?value@?$is_index_list@Uindex_list@?$hashed_factory_class@V?$refcounted_value@Urep_type@?$default_value_policy@USTSStyle@@@detail@flyweights@boost@@USTSStyle@@@detail@flyweights@boost@@USTSStyle@@Una@mpl@4@U674@U674@@flyweights@boost@@@detail@multi_index@boost@@2_NB DB 01H ; boost::multi_index::detail::is_index_list<boost::flyweights::hashed_factory_class<boost::flyweights::detail::refcounted_value<boost::flyweights::detail::default_value_policy<STSStyle>::rep_type,STSStyle>,STSStyle,boost::mpl::na,boost::mpl::na,boost::mpl::na>::index_list>::value
CONST	ENDS
;	COMDAT ?non_empty@?$is_index_list@Uindex_list@?$hashed_factory_class@V?$refcounted_value@Urep_type@?$default_value_policy@USTSStyle@@@detail@flyweights@boost@@USTSStyle@@@detail@flyweights@boost@@USTSStyle@@Una@mpl@4@U674@U674@@flyweights@boost@@@detail@multi_index@boost@@2_NB
CONST	SEGMENT
?non_empty@?$is_index_list@Uindex_list@?$hashed_factory_class@V?$refcounted_value@Urep_type@?$default_value_policy@USTSStyle@@@detail@flyweights@boost@@USTSStyle@@@detail@flyweights@boost@@USTSStyle@@Una@mpl@4@U674@U674@@flyweights@boost@@@detail@multi_index@boost@@2_NB DB 01H ; boost::multi_index::detail::is_index_list<boost::flyweights::hashed_factory_class<boost::flyweights::detail::refcounted_value<boost::flyweights::detail::default_value_policy<STSStyle>::rep_type,STSStyle>,STSStyle,boost::mpl::na,boost::mpl::na,boost::mpl::na>::index_list>::non_empty
CONST	ENDS
;	COMDAT ?mpl_sequence@?$is_index_list@Uindex_list@?$hashed_factory_class@V?$refcounted_value@Urep_type@?$default_value_policy@USTSStyle@@@detail@flyweights@boost@@USTSStyle@@@detail@flyweights@boost@@USTSStyle@@Una@mpl@4@U674@U674@@flyweights@boost@@@detail@multi_index@boost@@2_NB
CONST	SEGMENT
?mpl_sequence@?$is_index_list@Uindex_list@?$hashed_factory_class@V?$refcounted_value@Urep_type@?$default_value_policy@USTSStyle@@@detail@flyweights@boost@@USTSStyle@@@detail@flyweights@boost@@USTSStyle@@Una@mpl@4@U674@U674@@flyweights@boost@@@detail@multi_index@boost@@2_NB DB 01H ; boost::multi_index::detail::is_index_list<boost::flyweights::hashed_factory_class<boost::flyweights::detail::refcounted_value<boost::flyweights::detail::default_value_policy<STSStyle>::rep_type,STSStyle>,STSStyle,boost::mpl::na,boost::mpl::na,boost::mpl::na>::index_list>::mpl_sequence
CONST	ENDS
;	COMDAT ?value@?$has_begin_impl_@Uindex_list@?$hashed_factory_class@V?$refcounted_value@Urep_type@?$default_value_policy@USTSStyle@@@detail@flyweights@boost@@USTSStyle@@@detail@flyweights@boost@@USTSStyle@@Una@mpl@4@U674@U674@@flyweights@boost@@X@aux@mpl@boost@@2_NB
CONST	SEGMENT
?value@?$has_begin_impl_@Uindex_list@?$hashed_factory_class@V?$refcounted_value@Urep_type@?$default_value_policy@USTSStyle@@@detail@flyweights@boost@@USTSStyle@@@detail@flyweights@boost@@USTSStyle@@Una@mpl@4@U674@U674@@flyweights@boost@@X@aux@mpl@boost@@2_NB DB 01H ; boost::mpl::aux::has_begin_impl_<boost::flyweights::hashed_factory_class<boost::flyweights::detail::refcounted_value<boost::flyweights::detail::default_value_policy<STSStyle>::rep_type,STSStyle>,STSStyle,boost::mpl::na,boost::mpl::na,boost::mpl::na>::index_list,void>::value
CONST	ENDS
;	COMDAT ?value@?$has_tag_impl_@Uindex_list@?$hashed_factory_class@V?$refcounted_value@Urep_type@?$default_value_policy@USTSStyle@@@detail@flyweights@boost@@USTSStyle@@@detail@flyweights@boost@@USTSStyle@@Una@mpl@4@U674@U674@@flyweights@boost@@X@aux@mpl@boost@@2_NB
CONST	SEGMENT
?value@?$has_tag_impl_@Uindex_list@?$hashed_factory_class@V?$refcounted_value@Urep_type@?$default_value_policy@USTSStyle@@@detail@flyweights@boost@@USTSStyle@@@detail@flyweights@boost@@USTSStyle@@Una@mpl@4@U674@U674@@flyweights@boost@@X@aux@mpl@boost@@2_NB DB 01H ; boost::mpl::aux::has_tag_impl_<boost::flyweights::hashed_factory_class<boost::flyweights::detail::refcounted_value<boost::flyweights::detail::default_value_policy<STSStyle>::rep_type,STSStyle>,STSStyle,boost::mpl::na,boost::mpl::na,boost::mpl::na>::index_list,void>::value
CONST	ENDS
;	COMDAT ?mpl_assertion_in_line_2@?$apply@V?$refcounted_value@Urep_type@?$default_value_policy@USTSStyle@@@detail@flyweights@boost@@USTSStyle@@@detail@flyweights@boost@@USTSStyle@@Una@mpl@4@U674@U674@@?$arg@$01@mpl@boost@@2IB
CONST	SEGMENT
?mpl_assertion_in_line_2@?$apply@V?$refcounted_value@Urep_type@?$default_value_policy@USTSStyle@@@detail@flyweights@boost@@USTSStyle@@@detail@flyweights@boost@@USTSStyle@@Una@mpl@4@U674@U674@@?$arg@$01@mpl@boost@@2IB DD 04H ; boost::mpl::arg<2>::apply<boost::flyweights::detail::refcounted_value<boost::flyweights::detail::default_value_policy<STSStyle>::rep_type,STSStyle>,STSStyle,boost::mpl::na,boost::mpl::na,boost::mpl::na>::mpl_assertion_in_line_2
CONST	ENDS
;	COMDAT ?p@?$assert_arg_pred_not@U?$is_na@USTSStyle@@@mpl@boost@@@mpl@boost@@2_NB
CONST	SEGMENT
?p@?$assert_arg_pred_not@U?$is_na@USTSStyle@@@mpl@boost@@@mpl@boost@@2_NB DB 01H ; boost::mpl::assert_arg_pred_not<boost::mpl::is_na<STSStyle> >::p
CONST	ENDS
;	COMDAT ?mpl_assertion_in_line_1@?$apply@V?$refcounted_value@Urep_type@?$default_value_policy@USTSStyle@@@detail@flyweights@boost@@USTSStyle@@@detail@flyweights@boost@@USTSStyle@@Una@mpl@4@U674@U674@@?$arg@$00@mpl@boost@@2IB
CONST	SEGMENT
?mpl_assertion_in_line_1@?$apply@V?$refcounted_value@Urep_type@?$default_value_policy@USTSStyle@@@detail@flyweights@boost@@USTSStyle@@@detail@flyweights@boost@@USTSStyle@@Una@mpl@4@U674@U674@@?$arg@$00@mpl@boost@@2IB DD 04H ; boost::mpl::arg<1>::apply<boost::flyweights::detail::refcounted_value<boost::flyweights::detail::default_value_policy<STSStyle>::rep_type,STSStyle>,STSStyle,boost::mpl::na,boost::mpl::na,boost::mpl::na>::mpl_assertion_in_line_1
CONST	ENDS
;	COMDAT ?p@?$assert_arg_pred_not@U?$is_na@V?$refcounted_value@Urep_type@?$default_value_policy@USTSStyle@@@detail@flyweights@boost@@USTSStyle@@@detail@flyweights@boost@@@mpl@boost@@@mpl@boost@@2_NB
CONST	SEGMENT
?p@?$assert_arg_pred_not@U?$is_na@V?$refcounted_value@Urep_type@?$default_value_policy@USTSStyle@@@detail@flyweights@boost@@USTSStyle@@@detail@flyweights@boost@@@mpl@boost@@@mpl@boost@@2_NB DB 01H ; boost::mpl::assert_arg_pred_not<boost::mpl::is_na<boost::flyweights::detail::refcounted_value<boost::flyweights::detail::default_value_policy<STSStyle>::rep_type,STSStyle> > >::p
CONST	ENDS
;	COMDAT ?mpl_assertion_in_line_12@?$flyweight@USTSStyle@@Uno_locking@flyweights@boost@@Uvoid_@parameter@4@U564@U564@U564@@flyweights@boost@@0IB
CONST	SEGMENT
?mpl_assertion_in_line_12@?$flyweight@USTSStyle@@Uno_locking@flyweights@boost@@Uvoid_@parameter@4@U564@U564@U564@@flyweights@boost@@0IB DD 04H ; boost::flyweights::flyweight<STSStyle,boost::flyweights::no_locking,boost::parameter::void_,boost::parameter::void_,boost::parameter::void_,boost::parameter::void_>::mpl_assertion_in_line_12
CONST	ENDS
;	COMDAT ?value@?$is_base_and_derived_impl@Uvalue_marker@detail@flyweights@boost@@USTSStyle@@@detail@boost@@2_NB
CONST	SEGMENT
?value@?$is_base_and_derived_impl@Uvalue_marker@detail@flyweights@boost@@USTSStyle@@@detail@boost@@2_NB DB 00H ; boost::detail::is_base_and_derived_impl<boost::flyweights::detail::value_marker,STSStyle>::value
CONST	ENDS
;	COMDAT ?is_volatile@?$cv_traits_imp@PAUSTSStyle@@@detail@boost@@2_NB
CONST	SEGMENT
?is_volatile@?$cv_traits_imp@PAUSTSStyle@@@detail@boost@@2_NB DB 00H ; boost::detail::cv_traits_imp<STSStyle *>::is_volatile
CONST	ENDS
;	COMDAT ?is_const@?$cv_traits_imp@PAUSTSStyle@@@detail@boost@@2_NB
CONST	SEGMENT
?is_const@?$cv_traits_imp@PAUSTSStyle@@@detail@boost@@2_NB DB 00H ; boost::detail::cv_traits_imp<STSStyle *>::is_const
CONST	ENDS
;	COMDAT ?value@?$has_type_impl_@V?$hashed_factory_class@V?$refcounted_value@Urep_type@?$default_value_policy@VCRect@@@detail@flyweights@boost@@VCRect@@@detail@flyweights@boost@@VCRect@@Una@mpl@4@U674@U674@@flyweights@boost@@X@aux@mpl@boost@@2_NB
CONST	SEGMENT
?value@?$has_type_impl_@V?$hashed_factory_class@V?$refcounted_value@Urep_type@?$default_value_policy@VCRect@@@detail@flyweights@boost@@VCRect@@@detail@flyweights@boost@@VCRect@@Una@mpl@4@U674@U674@@flyweights@boost@@X@aux@mpl@boost@@2_NB DB 01H ; boost::mpl::aux::has_type_impl_<boost::flyweights::hashed_factory_class<boost::flyweights::detail::refcounted_value<boost::flyweights::detail::default_value_policy<CRect>::rep_type,CRect>,CRect,boost::mpl::na,boost::mpl::na,boost::mpl::na>,void>::value
CONST	ENDS
;	COMDAT ?value@?$no_duplicate_tags_in_index_list@U?$vector1@V?$hashed_index@U?$identity@V?$refcounted_value@Urep_type@?$default_value_policy@VCRect@@@detail@flyweights@boost@@VCRect@@@detail@flyweights@boost@@@multi_index@boost@@U?$hash@VCRect@@@3@U?$equal_to@VCRect@@@std@@U?$nth_layer@$00V?$refcounted_value@Urep_type@?$default_value_policy@VCRect@@@detail@flyweights@boost@@VCRect@@@detail@flyweights@boost@@Uindex_list@?$hashed_factory_class@V?$refcounted_value@Urep_type@?$default_value_policy@VCRect@@@detail@flyweights@boost@@VCRect@@@detail@flyweights@boost@@VCRect@@Una@mpl@4@U674@U674@@34@V?$allocator@V?$refcounted_value@Urep_type@?$default_value_policy@VCRect@@@detail@flyweights@boost@@VCRect@@@detail@flyweights@boost@@@std@@@detail@23@U?$vector0@Una@mpl@boost@@@mpl@3@Uhashed_unique_tag@823@@detail@multi_index@boost@@@mpl@boost@@@detail@multi_index@boost@@2_NB
CONST	SEGMENT
?value@?$no_duplicate_tags_in_index_list@U?$vector1@V?$hashed_index@U?$identity@V?$refcounted_value@Urep_type@?$default_value_policy@VCRect@@@detail@flyweights@boost@@VCRect@@@detail@flyweights@boost@@@multi_index@boost@@U?$hash@VCRect@@@3@U?$equal_to@VCRect@@@std@@U?$nth_layer@$00V?$refcounted_value@Urep_type@?$default_value_policy@VCRect@@@detail@flyweights@boost@@VCRect@@@detail@flyweights@boost@@Uindex_list@?$hashed_factory_class@V?$refcounted_value@Urep_type@?$default_value_policy@VCRect@@@detail@flyweights@boost@@VCRect@@@detail@flyweights@boost@@VCRect@@Una@mpl@4@U674@U674@@34@V?$allocator@V?$refcounted_value@Urep_type@?$default_value_policy@VCRect@@@detail@flyweights@boost@@VCRect@@@detail@flyweights@boost@@@std@@@detail@23@U?$vector0@Una@mpl@boost@@@mpl@3@Uhashed_unique_tag@823@@detail@multi_index@boost@@@mpl@boost@@@detail@multi_index@boost@@2_NB DB 01H ; boost::multi_index::detail::no_duplicate_tags_in_index_list<boost::mpl::vector1<boost::multi_index::detail::hashed_index<boost::multi_index::identity<boost::flyweights::detail::refcounted_value<boost::flyweights::detail::default_value_policy<CRect>::rep_type,CRect> >,boost::hash<CRect>,std::equal_to<CRect>,boost::multi_index::detail::nth_layer<1,boost::flyweights::detail::refcounted_value<boost::flyweights::detail::default_value_policy<CRect>::rep_type,CRect>,boost::flyweights::hashed_factory_class<boost::flyweights::detail::refcounted_value<boost::flyweights::detail::default_value_policy<CRect>::rep_type,CRect>,CRect,boost::mpl::na,boost::mpl::na,boost::mpl::na>::index_list,std::allocator<boost::flyweights::detail::refcounted_value<boost::flyweights::detail::default_value_policy<CRect>::rep_type,CRect> > >,boost::mpl::vector0<boost::mpl::na>,boost::multi_index::detail::hashed_unique_tag> > >::value
CONST	ENDS
;	COMDAT ?value@?$has_begin_impl_@U?$vector1@V?$hashed_index@U?$identity@V?$refcounted_value@Urep_type@?$default_value_policy@VCRect@@@detail@flyweights@boost@@VCRect@@@detail@flyweights@boost@@@multi_index@boost@@U?$hash@VCRect@@@3@U?$equal_to@VCRect@@@std@@U?$nth_layer@$00V?$refcounted_value@Urep_type@?$default_value_policy@VCRect@@@detail@flyweights@boost@@VCRect@@@detail@flyweights@boost@@Uindex_list@?$hashed_factory_class@V?$refcounted_value@Urep_type@?$default_value_policy@VCRect@@@detail@flyweights@boost@@VCRect@@@detail@flyweights@boost@@VCRect@@Una@mpl@4@U674@U674@@34@V?$allocator@V?$refcounted_value@Urep_type@?$default_value_policy@VCRect@@@detail@flyweights@boost@@VCRect@@@detail@flyweights@boost@@@std@@@detail@23@U?$vector0@Una@mpl@boost@@@mpl@3@Uhashed_unique_tag@823@@detail@multi_index@boost@@@mpl@boost@@X@aux@mpl@boost@@2_NB
CONST	SEGMENT
?value@?$has_begin_impl_@U?$vector1@V?$hashed_index@U?$identity@V?$refcounted_value@Urep_type@?$default_value_policy@VCRect@@@detail@flyweights@boost@@VCRect@@@detail@flyweights@boost@@@multi_index@boost@@U?$hash@VCRect@@@3@U?$equal_to@VCRect@@@std@@U?$nth_layer@$00V?$refcounted_value@Urep_type@?$default_value_policy@VCRect@@@detail@flyweights@boost@@VCRect@@@detail@flyweights@boost@@Uindex_list@?$hashed_factory_class@V?$refcounted_value@Urep_type@?$default_value_policy@VCRect@@@detail@flyweights@boost@@VCRect@@@detail@flyweights@boost@@VCRect@@Una@mpl@4@U674@U674@@34@V?$allocator@V?$refcounted_value@Urep_type@?$default_value_policy@VCRect@@@detail@flyweights@boost@@VCRect@@@detail@flyweights@boost@@@std@@@detail@23@U?$vector0@Una@mpl@boost@@@mpl@3@Uhashed_unique_tag@823@@detail@multi_index@boost@@@mpl@boost@@X@aux@mpl@boost@@2_NB DB 01H ; boost::mpl::aux::has_begin_impl_<boost::mpl::vector1<boost::multi_index::detail::hashed_index<boost::multi_index::identity<boost::flyweights::detail::refcounted_value<boost::flyweights::detail::default_value_policy<CRect>::rep_type,CRect> >,boost::hash<CRect>,std::equal_to<CRect>,boost::multi_index::detail::nth_layer<1,boost::flyweights::detail::refcounted_value<boost::flyweights::detail::default_value_policy<CRect>::rep_type,CRect>,boost::flyweights::hashed_factory_class<boost::flyweights::detail::refcounted_value<boost::flyweights::detail::default_value_policy<CRect>::rep_type,CRect>,CRect,boost::mpl::na,boost::mpl::na,boost::mpl::na>::index_list,std::allocator<boost::flyweights::detail::refcounted_value<boost::flyweights::detail::default_value_policy<CRect>::rep_type,CRect> > >,boost::mpl::vector0<boost::mpl::na>,boost::multi_index::detail::hashed_unique_tag> >,void>::value
CONST	ENDS
;	COMDAT ?value@?$has_tag_impl_@U?$vector1@V?$hashed_index@U?$identity@V?$refcounted_value@Urep_type@?$default_value_policy@VCRect@@@detail@flyweights@boost@@VCRect@@@detail@flyweights@boost@@@multi_index@boost@@U?$hash@VCRect@@@3@U?$equal_to@VCRect@@@std@@U?$nth_layer@$00V?$refcounted_value@Urep_type@?$default_value_policy@VCRect@@@detail@flyweights@boost@@VCRect@@@detail@flyweights@boost@@Uindex_list@?$hashed_factory_class@V?$refcounted_value@Urep_type@?$default_value_policy@VCRect@@@detail@flyweights@boost@@VCRect@@@detail@flyweights@boost@@VCRect@@Una@mpl@4@U674@U674@@34@V?$allocator@V?$refcounted_value@Urep_type@?$default_value_policy@VCRect@@@detail@flyweights@boost@@VCRect@@@detail@flyweights@boost@@@std@@@detail@23@U?$vector0@Una@mpl@boost@@@mpl@3@Uhashed_unique_tag@823@@detail@multi_index@boost@@@mpl@boost@@X@aux@mpl@boost@@2_NB
CONST	SEGMENT
?value@?$has_tag_impl_@U?$vector1@V?$hashed_index@U?$identity@V?$refcounted_value@Urep_type@?$default_value_policy@VCRect@@@detail@flyweights@boost@@VCRect@@@detail@flyweights@boost@@@multi_index@boost@@U?$hash@VCRect@@@3@U?$equal_to@VCRect@@@std@@U?$nth_layer@$00V?$refcounted_value@Urep_type@?$default_value_policy@VCRect@@@detail@flyweights@boost@@VCRect@@@detail@flyweights@boost@@Uindex_list@?$hashed_factory_class@V?$refcounted_value@Urep_type@?$default_value_policy@VCRect@@@detail@flyweights@boost@@VCRect@@@detail@flyweights@boost@@VCRect@@Una@mpl@4@U674@U674@@34@V?$allocator@V?$refcounted_value@Urep_type@?$default_value_policy@VCRect@@@detail@flyweights@boost@@VCRect@@@detail@flyweights@boost@@@std@@@detail@23@U?$vector0@Una@mpl@boost@@@mpl@3@Uhashed_unique_tag@823@@detail@multi_index@boost@@@mpl@boost@@X@aux@mpl@boost@@2_NB DB 01H ; boost::mpl::aux::has_tag_impl_<boost::mpl::vector1<boost::multi_index::detail::hashed_index<boost::multi_index::identity<boost::flyweights::detail::refcounted_value<boost::flyweights::detail::default_value_policy<CRect>::rep_type,CRect> >,boost::hash<CRect>,std::equal_to<CRect>,boost::multi_index::detail::nth_layer<1,boost::flyweights::detail::refcounted_value<boost::flyweights::detail::default_value_policy<CRect>::rep_type,CRect>,boost::flyweights::hashed_factory_class<boost::flyweights::detail::refcounted_value<boost::flyweights::detail::default_value_policy<CRect>::rep_type,CRect>,CRect,boost::mpl::na,boost::mpl::na,boost::mpl::na>::index_list,std::allocator<boost::flyweights::detail::refcounted_value<boost::flyweights::detail::default_value_policy<CRect>::rep_type,CRect> > >,boost::mpl::vector0<boost::mpl::na>,boost::multi_index::detail::hashed_unique_tag> >,void>::value
CONST	ENDS
;	COMDAT ?value@?$is_partial_std_allocator@V?$allocator@D@std@@@allocator@detail@boost@@2_NB
CONST	SEGMENT
?value@?$is_partial_std_allocator@V?$allocator@D@std@@@allocator@detail@boost@@2_NB DB 00H ; boost::detail::allocator::is_partial_std_allocator<std::allocator<char> >::value
CONST	ENDS
;	COMDAT ?alignment@?$aligned_storage@$0BI@$03@boost@@2IB
CONST	SEGMENT
?alignment@?$aligned_storage@$0BI@$03@boost@@2IB DD 04H	; boost::aligned_storage<24,4>::alignment
CONST	ENDS
;	COMDAT ?size@?$aligned_storage@$0BI@$03@boost@@2IB
CONST	SEGMENT
?size@?$aligned_storage@$0BI@$03@boost@@2IB DD 018H	; boost::aligned_storage<24,4>::size
CONST	ENDS
;	COMDAT ?found@?$type_with_alignment_imp@$03@detail@boost@@0IB
CONST	SEGMENT
?found@?$type_with_alignment_imp@$03@detail@boost@@0IB DD 04H ; boost::detail::type_with_alignment_imp<4>::found
CONST	ENDS
