; Listing generated by Microsoft (R) Optimizing Compiler Version 16.00.40219.01 

	TITLE	E:\GitHub\codesandnotes\xy-vsfilter\src\subtitles\Rasterizer.cpp
	.686P
	.XMM
	include listing.inc
	.model	flat

INCLUDELIB OLDNAMES

; Listing generated by Microsoft (R) Optimizing Compiler Version 16.00.40219.01 

	TITLE	E:\GitHub\codesandnotes\xy-vsfilter\src\subtitles\libssf\Rasterizer.cpp
	.686P
	.XMM
	include listing.inc
	.model	flat

INCLUDELIB OLDNAMES

PUBLIC	??_R4ScanLineData@@6B@				; ScanLineData::`RTTI Complete Object Locator'
PUBLIC	??_R3ScanLineData@@8				; ScanLineData::`RTTI Class Hierarchy Descriptor'
PUBLIC	??_R2ScanLineData@@8				; ScanLineData::`RTTI Base Class Array'
PUBLIC	??_R1A@?0A@EA@ScanLineData@@8			; ScanLineData::`RTTI Base Class Descriptor at (0,-1,0,64)'
PUBLIC	??_R0?AVScanLineData@@@8			; ScanLineData `RTTI Type Descriptor'
PUBLIC	?empty@?$vector@U?$pair@_K_K@std@@V?$allocator@U?$pair@_K_K@std@@@2@@std@@QBE_NXZ ; std::vector<std::pair<unsigned __int64,unsigned __int64>,std::allocator<std::pair<unsigned __int64,unsigned __int64> > >::empty
PUBLIC	??D?$shared_ptr@$$CBVScanLineData@@@boost@@QBEABVScanLineData@@XZ ; boost::shared_ptr<ScanLineData const >::operator*
PUBLIC	??7?$shared_ptr@UOverlay@@@boost@@QBE_NXZ	; boost::shared_ptr<Overlay>::operator!
PUBLIC	??Brep_type@?$optimized_key_value@NVass_synth_priv@@Uass_synth_priv_key@@@detail@flyweights@boost@@QBEABVass_synth_priv@@XZ ; boost::flyweights::detail::optimized_key_value<double,ass_synth_priv,ass_synth_priv_key>::rep_type::operator ass_synth_priv const &
PUBLIC	?value@?$flyweight_core@U?$key_value@NVass_synth_priv@@Uass_synth_priv_key@@@flyweights@boost@@Una@mpl@3@Urefcounted@23@U?$hashed_factory@Una@mpl@boost@@U123@U123@$0A@@23@Uno_locking@23@Ustatic_holder@23@@detail@flyweights@boost@@SAABVass_synth_priv@@ABV?$refcounted_handle@PBV?$refcounted_value@Vrep_type@?$optimized_key_value@NVass_synth_priv@@Uass_synth_priv_key@@@detail@flyweights@boost@@N@detail@flyweights@boost@@U?$flyweight_core_tracking_helper@U?$key_value@NVass_synth_priv@@Uass_synth_priv_key@@@flyweights@boost@@Una@mpl@3@Urefcounted@23@U?$hashed_factory@Una@mpl@boost@@U123@U123@$0A@@23@Uno_locking@23@Ustatic_holder@23@@234@@234@@Z ; boost::flyweights::detail::flyweight_core<boost::flyweights::key_value<double,ass_synth_priv,ass_synth_priv_key>,boost::mpl::na,boost::flyweights::refcounted,boost::flyweights::hashed_factory<boost::mpl::na,boost::mpl::na,boost::mpl::na,0>,boost::flyweights::no_locking,boost::flyweights::static_holder>::value
PUBLIC	?get@?$flyweight@U?$key_value@NVass_synth_priv@@Uass_synth_priv_key@@@flyweights@boost@@Uno_locking@23@Uvoid_@parameter@3@U563@U563@U563@@flyweights@boost@@QBEABVass_synth_priv@@XZ ; boost::flyweights::flyweight<boost::flyweights::key_value<double,ass_synth_priv,ass_synth_priv_key>,boost::flyweights::no_locking,boost::parameter::void_,boost::parameter::void_,boost::parameter::void_,boost::parameter::void_>::get
PUBLIC	??1?$flyweight@U?$key_value@NVass_synth_priv@@Uass_synth_priv_key@@@flyweights@boost@@Uno_locking@23@Uvoid_@parameter@3@U563@U563@U563@@flyweights@boost@@QAE@XZ ; boost::flyweights::flyweight<boost::flyweights::key_value<double,ass_synth_priv,ass_synth_priv_key>,boost::flyweights::no_locking,boost::parameter::void_,boost::parameter::void_,boost::parameter::void_,boost::parameter::void_>::~flyweight<boost::flyweights::key_value<double,ass_synth_priv,ass_synth_priv_key>,boost::flyweights::no_locking,boost::parameter::void_,boost::parameter::void_,boost::parameter::void_,boost::parameter::void_>
PUBLIC	?construct_value@rep_type@?$optimized_key_value@NVass_synth_priv@@Uass_synth_priv_key@@@detail@flyweights@boost@@ABEXXZ ; boost::flyweights::detail::optimized_key_value<double,ass_synth_priv,ass_synth_priv_key>::rep_type::construct_value
PUBLIC	?construct_value@?$optimized_key_value@NVass_synth_priv@@Uass_synth_priv_key@@@detail@flyweights@boost@@SAXABVrep_type@1234@@Z ; boost::flyweights::detail::optimized_key_value<double,ass_synth_priv,ass_synth_priv_key>::construct_value
PUBLIC	??0?$refcounted_value@Vrep_type@?$optimized_key_value@NVass_synth_priv@@Uass_synth_priv_key@@@detail@flyweights@boost@@N@detail@flyweights@boost@@QAE@ABV0123@@Z ; boost::flyweights::detail::refcounted_value<boost::flyweights::detail::optimized_key_value<double,ass_synth_priv,ass_synth_priv_key>::rep_type,double>::refcounted_value<boost::flyweights::detail::optimized_key_value<double,ass_synth_priv,ass_synth_priv_key>::rep_type,double>
PUBLIC	??$construct@V?$refcounted_value@Vrep_type@?$optimized_key_value@NVass_synth_priv@@Uass_synth_priv_key@@@detail@flyweights@boost@@N@detail@flyweights@boost@@@allocator@detail@boost@@YAXPAXABV?$refcounted_value@Vrep_type@?$optimized_key_value@NVass_synth_priv@@Uass_synth_priv_key@@@detail@flyweights@boost@@N@1flyweights@2@@Z ; boost::detail::allocator::construct<boost::flyweights::detail::refcounted_value<boost::flyweights::detail::optimized_key_value<double,ass_synth_priv,ass_synth_priv_key>::rep_type,double> >
PUBLIC	?insert_@?$index_base@V?$refcounted_value@Vrep_type@?$optimized_key_value@NVass_synth_priv@@Uass_synth_priv_key@@@detail@flyweights@boost@@N@detail@flyweights@boost@@Uindex_list@?$hashed_factory_class@V?$refcounted_value@Vrep_type@?$optimized_key_value@NVass_synth_priv@@Uass_synth_priv_key@@@detail@flyweights@boost@@N@detail@flyweights@boost@@NUna@mpl@4@U564@U564@@34@V?$allocator@V?$refcounted_value@Vrep_type@?$optimized_key_value@NVass_synth_priv@@Uass_synth_priv_key@@@detail@flyweights@boost@@N@detail@flyweights@boost@@@std@@@detail@multi_index@boost@@IAEPAU?$index_node_base@V?$refcounted_value@Vrep_type@?$optimized_key_value@NVass_synth_priv@@Uass_synth_priv_key@@@detail@flyweights@boost@@N@detail@flyweights@boost@@V?$allocator@V?$refcounted_value@Vrep_type@?$optimized_key_value@NVass_synth_priv@@Uass_synth_priv_key@@@detail@flyweights@boost@@N@detail@flyweights@boost@@@std@@@234@ABV?$refcounted_value@Vrep_type@?$optimized_key_value@NVass_synth_priv@@Uass_synth_priv_key@@@detail@flyweights@boost@@N@2flyweights@4@PAU5234@@Z ; boost::multi_index::detail::index_base<boost::flyweights::detail::refcounted_value<boost::flyweights::detail::optimized_key_value<double,ass_synth_priv,ass_synth_priv_key>::rep_type,double>,boost::flyweights::hashed_factory_class<boost::flyweights::detail::refcounted_value<boost::flyweights::detail::optimized_key_value<double,ass_synth_priv,ass_synth_priv_key>::rep_type,double>,double,boost::mpl::na,boost::mpl::na,boost::mpl::na>::index_list,std::allocator<boost::flyweights::detail::refcounted_value<boost::flyweights::detail::optimized_key_value<double,ass_synth_priv,ass_synth_priv_key>::rep_type,double> > >::insert_
PUBLIC	?bucket@?$hashed_index@U?$identity@V?$refcounted_value@Vrep_type@?$optimized_key_value@NVass_synth_priv@@Uass_synth_priv_key@@@detail@flyweights@boost@@N@detail@flyweights@boost@@@multi_index@boost@@U?$hash@N@3@U?$equal_to@N@std@@U?$nth_layer@$00V?$refcounted_value@Vrep_type@?$optimized_key_value@NVass_synth_priv@@Uass_synth_priv_key@@@detail@flyweights@boost@@N@detail@flyweights@boost@@Uindex_list@?$hashed_factory_class@V?$refcounted_value@Vrep_type@?$optimized_key_value@NVass_synth_priv@@Uass_synth_priv_key@@@detail@flyweights@boost@@N@detail@flyweights@boost@@NUna@mpl@4@U564@U564@@34@V?$allocator@V?$refcounted_value@Vrep_type@?$optimized_key_value@NVass_synth_priv@@Uass_synth_priv_key@@@detail@flyweights@boost@@N@detail@flyweights@boost@@@std@@@detail@23@U?$vector0@Una@mpl@boost@@@mpl@3@Uhashed_unique_tag@823@@detail@multi_index@boost@@QBEIABV?$refcounted_value@Vrep_type@?$optimized_key_value@NVass_synth_priv@@Uass_synth_priv_key@@@detail@flyweights@boost@@N@2flyweights@4@@Z ; boost::multi_index::detail::hashed_index<boost::multi_index::identity<boost::flyweights::detail::refcounted_value<boost::flyweights::detail::optimized_key_value<double,ass_synth_priv,ass_synth_priv_key>::rep_type,double> >,boost::hash<double>,std::equal_to<double>,boost::multi_index::detail::nth_layer<1,boost::flyweights::detail::refcounted_value<boost::flyweights::detail::optimized_key_value<double,ass_synth_priv,ass_synth_priv_key>::rep_type,double>,boost::flyweights::hashed_factory_class<boost::flyweights::detail::refcounted_value<boost::flyweights::detail::optimized_key_value<double,ass_synth_priv,ass_synth_priv_key>::rep_type,double>,double,boost::mpl::na,boost::mpl::na,boost::mpl::na>::index_list,std::allocator<boost::flyweights::detail::refcounted_value<boost::flyweights::detail::optimized_key_value<double,ass_synth_priv,ass_synth_priv_key>::rep_type,double> > >,boost::mpl::vector0<boost::mpl::na>,boost::multi_index::detail::hashed_unique_tag>::bucket
PUBLIC	?find_bucket@?$hashed_index@U?$identity@V?$refcounted_value@Vrep_type@?$optimized_key_value@NVass_synth_priv@@Uass_synth_priv_key@@@detail@flyweights@boost@@N@detail@flyweights@boost@@@multi_index@boost@@U?$hash@N@3@U?$equal_to@N@std@@U?$nth_layer@$00V?$refcounted_value@Vrep_type@?$optimized_key_value@NVass_synth_priv@@Uass_synth_priv_key@@@detail@flyweights@boost@@N@detail@flyweights@boost@@Uindex_list@?$hashed_factory_class@V?$refcounted_value@Vrep_type@?$optimized_key_value@NVass_synth_priv@@Uass_synth_priv_key@@@detail@flyweights@boost@@N@detail@flyweights@boost@@NUna@mpl@4@U564@U564@@34@V?$allocator@V?$refcounted_value@Vrep_type@?$optimized_key_value@NVass_synth_priv@@Uass_synth_priv_key@@@detail@flyweights@boost@@N@detail@flyweights@boost@@@std@@@detail@23@U?$vector0@Una@mpl@boost@@@mpl@3@Uhashed_unique_tag@823@@detail@multi_index@boost@@ABEIABV?$refcounted_value@Vrep_type@?$optimized_key_value@NVass_synth_priv@@Uass_synth_priv_key@@@detail@flyweights@boost@@N@2flyweights@4@@Z ; boost::multi_index::detail::hashed_index<boost::multi_index::identity<boost::flyweights::detail::refcounted_value<boost::flyweights::detail::optimized_key_value<double,ass_synth_priv,ass_synth_priv_key>::rep_type,double> >,boost::hash<double>,std::equal_to<double>,boost::multi_index::detail::nth_layer<1,boost::flyweights::detail::refcounted_value<boost::flyweights::detail::optimized_key_value<double,ass_synth_priv,ass_synth_priv_key>::rep_type,double>,boost::flyweights::hashed_factory_class<boost::flyweights::detail::refcounted_value<boost::flyweights::detail::optimized_key_value<double,ass_synth_priv,ass_synth_priv_key>::rep_type,double>,double,boost::mpl::na,boost::mpl::na,boost::mpl::na>::index_list,std::allocator<boost::flyweights::detail::refcounted_value<boost::flyweights::detail::optimized_key_value<double,ass_synth_priv,ass_synth_priv_key>::rep_type,double> > >,boost::mpl::vector0<boost::mpl::na>,boost::multi_index::detail::hashed_unique_tag>::find_bucket
PUBLIC	??R?$non_const_identity_base@V?$refcounted_value@Vrep_type@?$optimized_key_value@NVass_synth_priv@@Uass_synth_priv_key@@@detail@flyweights@boost@@N@detail@flyweights@boost@@@detail@multi_index@boost@@QBEABV?$refcounted_value@Vrep_type@?$optimized_key_value@NVass_synth_priv@@Uass_synth_priv_key@@@detail@flyweights@boost@@N@1flyweights@3@ABV4153@H@Z ; boost::multi_index::detail::non_const_identity_base<boost::flyweights::detail::refcounted_value<boost::flyweights::detail::optimized_key_value<double,ass_synth_priv,ass_synth_priv_key>::rep_type,double> >::operator()
PUBLIC	??R?$equal_to@N@std@@QBE_NABN0@Z		; std::equal_to<double>::operator()
PUBLIC	?link_point@?$hashed_index@U?$identity@V?$refcounted_value@Vrep_type@?$optimized_key_value@NVass_synth_priv@@Uass_synth_priv_key@@@detail@flyweights@boost@@N@detail@flyweights@boost@@@multi_index@boost@@U?$hash@N@3@U?$equal_to@N@std@@U?$nth_layer@$00V?$refcounted_value@Vrep_type@?$optimized_key_value@NVass_synth_priv@@Uass_synth_priv_key@@@detail@flyweights@boost@@N@detail@flyweights@boost@@Uindex_list@?$hashed_factory_class@V?$refcounted_value@Vrep_type@?$optimized_key_value@NVass_synth_priv@@Uass_synth_priv_key@@@detail@flyweights@boost@@N@detail@flyweights@boost@@NUna@mpl@4@U564@U564@@34@V?$allocator@V?$refcounted_value@Vrep_type@?$optimized_key_value@NVass_synth_priv@@Uass_synth_priv_key@@@detail@flyweights@boost@@N@detail@flyweights@boost@@@std@@@detail@23@U?$vector0@Una@mpl@boost@@@mpl@3@Uhashed_unique_tag@823@@detail@multi_index@boost@@AAE_NABV?$refcounted_value@Vrep_type@?$optimized_key_value@NVass_synth_priv@@Uass_synth_priv_key@@@detail@flyweights@boost@@N@2flyweights@4@AAPAU?$hashed_index_node_impl@V?$allocator@D@std@@@234@Uhashed_unique_tag@234@@Z ; boost::multi_index::detail::hashed_index<boost::multi_index::identity<boost::flyweights::detail::refcounted_value<boost::flyweights::detail::optimized_key_value<double,ass_synth_priv,ass_synth_priv_key>::rep_type,double> >,boost::hash<double>,std::equal_to<double>,boost::multi_index::detail::nth_layer<1,boost::flyweights::detail::refcounted_value<boost::flyweights::detail::optimized_key_value<double,ass_synth_priv,ass_synth_priv_key>::rep_type,double>,boost::flyweights::hashed_factory_class<boost::flyweights::detail::refcounted_value<boost::flyweights::detail::optimized_key_value<double,ass_synth_priv,ass_synth_priv_key>::rep_type,double>,double,boost::mpl::na,boost::mpl::na,boost::mpl::na>::index_list,std::allocator<boost::flyweights::detail::refcounted_value<boost::flyweights::detail::optimized_key_value<double,ass_synth_priv,ass_synth_priv_key>::rep_type,double> > >,boost::mpl::vector0<boost::mpl::na>,boost::multi_index::detail::hashed_unique_tag>::link_point
PUBLIC	?link@?$hashed_index@U?$identity@V?$refcounted_value@Vrep_type@?$optimized_key_value@NVass_synth_priv@@Uass_synth_priv_key@@@detail@flyweights@boost@@N@detail@flyweights@boost@@@multi_index@boost@@U?$hash@N@3@U?$equal_to@N@std@@U?$nth_layer@$00V?$refcounted_value@Vrep_type@?$optimized_key_value@NVass_synth_priv@@Uass_synth_priv_key@@@detail@flyweights@boost@@N@detail@flyweights@boost@@Uindex_list@?$hashed_factory_class@V?$refcounted_value@Vrep_type@?$optimized_key_value@NVass_synth_priv@@Uass_synth_priv_key@@@detail@flyweights@boost@@N@detail@flyweights@boost@@NUna@mpl@4@U564@U564@@34@V?$allocator@V?$refcounted_value@Vrep_type@?$optimized_key_value@NVass_synth_priv@@Uass_synth_priv_key@@@detail@flyweights@boost@@N@detail@flyweights@boost@@@std@@@detail@23@U?$vector0@Una@mpl@boost@@@mpl@3@Uhashed_unique_tag@823@@detail@multi_index@boost@@CAXPAU?$hashed_index_node@U?$index_node_base@V?$refcounted_value@Vrep_type@?$optimized_key_value@NVass_synth_priv@@Uass_synth_priv_key@@@detail@flyweights@boost@@N@detail@flyweights@boost@@V?$allocator@V?$refcounted_value@Vrep_type@?$optimized_key_value@NVass_synth_priv@@Uass_synth_priv_key@@@detail@flyweights@boost@@N@detail@flyweights@boost@@@std@@@detail@multi_index@boost@@@234@PAU?$hashed_index_node_impl@V?$allocator@D@std@@@234@@Z ; boost::multi_index::detail::hashed_index<boost::multi_index::identity<boost::flyweights::detail::refcounted_value<boost::flyweights::detail::optimized_key_value<double,ass_synth_priv,ass_synth_priv_key>::rep_type,double> >,boost::hash<double>,std::equal_to<double>,boost::multi_index::detail::nth_layer<1,boost::flyweights::detail::refcounted_value<boost::flyweights::detail::optimized_key_value<double,ass_synth_priv,ass_synth_priv_key>::rep_type,double>,boost::flyweights::hashed_factory_class<boost::flyweights::detail::refcounted_value<boost::flyweights::detail::optimized_key_value<double,ass_synth_priv,ass_synth_priv_key>::rep_type,double>,double,boost::mpl::na,boost::mpl::na,boost::mpl::na>::index_list,std::allocator<boost::flyweights::detail::refcounted_value<boost::flyweights::detail::optimized_key_value<double,ass_synth_priv,ass_synth_priv_key>::rep_type,double> > >,boost::mpl::vector0<boost::mpl::na>,boost::multi_index::detail::hashed_unique_tag>::link
PUBLIC	??R?$call_ldexp@N@hash_detail@boost@@QBENNH@Z	; boost::hash_detail::call_ldexp<double>::operator()
PUBLIC	??R?$call_frexp@N@hash_detail@boost@@QBENNPAH@Z	; boost::hash_detail::call_frexp<double>::operator()
PUBLIC	?hash_float_combine@hash_detail@boost@@YAXAAII@Z ; boost::hash_detail::hash_float_combine
PUBLIC	??$float_hash_impl2@N@hash_detail@boost@@YAIN@Z	; boost::hash_detail::float_hash_impl2<double>
PUBLIC	??$float_hash_impl@N@hash_detail@boost@@YAIN@Z	; boost::hash_detail::float_hash_impl<double>
PUBLIC	??$float_hash_value@N@hash_detail@boost@@YAIN@Z	; boost::hash_detail::float_hash_value<double>
PUBLIC	?hash_value@boost@@YAIN@Z			; boost::hash_value
PUBLIC	??R?$hash@N@boost@@QBEIN@Z			; boost::hash<double>::operator()
PUBLIC	??R?$non_const_identity_base@V?$refcounted_value@Vrep_type@?$optimized_key_value@NVass_synth_priv@@Uass_synth_priv_key@@@detail@flyweights@boost@@N@detail@flyweights@boost@@@detail@multi_index@boost@@QBEAAV?$refcounted_value@Vrep_type@?$optimized_key_value@NVass_synth_priv@@Uass_synth_priv_key@@@detail@flyweights@boost@@N@1flyweights@3@AAV4153@@Z ; boost::multi_index::detail::non_const_identity_base<boost::flyweights::detail::refcounted_value<boost::flyweights::detail::optimized_key_value<double,ass_synth_priv,ass_synth_priv_key>::rep_type,double> >::operator()
PUBLIC	??Rass_synth_priv_key@@QBEABNABVass_synth_priv@@@Z ; ass_synth_priv_key::operator()
PUBLIC	?key_from_value@rep_type@?$optimized_key_value@NVass_synth_priv@@Uass_synth_priv_key@@@detail@flyweights@boost@@CAABNABVass_synth_priv@@@Z ; boost::flyweights::detail::optimized_key_value<double,ass_synth_priv,ass_synth_priv_key>::rep_type::key_from_value
PUBLIC	??Brep_type@?$optimized_key_value@NVass_synth_priv@@Uass_synth_priv_key@@@detail@flyweights@boost@@QBEABNXZ ; boost::flyweights::detail::optimized_key_value<double,ass_synth_priv,ass_synth_priv_key>::rep_type::operator double const &
PUBLIC	??B?$refcounted_value@Vrep_type@?$optimized_key_value@NVass_synth_priv@@Uass_synth_priv_key@@@detail@flyweights@boost@@N@detail@flyweights@boost@@QBEABNXZ ; boost::flyweights::detail::refcounted_value<boost::flyweights::detail::optimized_key_value<double,ass_synth_priv,ass_synth_priv_key>::rep_type,double>::operator double const &
PUBLIC	?get_allocator@?$multi_index_container@V?$refcounted_value@Vrep_type@?$optimized_key_value@NVass_synth_priv@@Uass_synth_priv_key@@@detail@flyweights@boost@@N@detail@flyweights@boost@@Uindex_list@?$hashed_factory_class@V?$refcounted_value@Vrep_type@?$optimized_key_value@NVass_synth_priv@@Uass_synth_priv_key@@@detail@flyweights@boost@@N@detail@flyweights@boost@@NUna@mpl@4@U564@U564@@34@V?$allocator@V?$refcounted_value@Vrep_type@?$optimized_key_value@NVass_synth_priv@@Uass_synth_priv_key@@@detail@flyweights@boost@@N@detail@flyweights@boost@@@std@@@multi_index@boost@@QBE?AV?$allocator@V?$refcounted_value@Vrep_type@?$optimized_key_value@NVass_synth_priv@@Uass_synth_priv_key@@@detail@flyweights@boost@@N@detail@flyweights@boost@@@std@@XZ ; boost::multi_index::multi_index_container<boost::flyweights::detail::refcounted_value<boost::flyweights::detail::optimized_key_value<double,ass_synth_priv,ass_synth_priv_key>::rep_type,double>,boost::flyweights::hashed_factory_class<boost::flyweights::detail::refcounted_value<boost::flyweights::detail::optimized_key_value<double,ass_synth_priv,ass_synth_priv_key>::rep_type,double>,double,boost::mpl::na,boost::mpl::na,boost::mpl::na>::index_list,std::allocator<boost::flyweights::detail::refcounted_value<boost::flyweights::detail::optimized_key_value<double,ass_synth_priv,ass_synth_priv_key>::rep_type,double> > >::get_allocator
PUBLIC	?get_allocator@?$hashed_index@U?$identity@V?$refcounted_value@Vrep_type@?$optimized_key_value@NVass_synth_priv@@Uass_synth_priv_key@@@detail@flyweights@boost@@N@detail@flyweights@boost@@@multi_index@boost@@U?$hash@N@3@U?$equal_to@N@std@@U?$nth_layer@$00V?$refcounted_value@Vrep_type@?$optimized_key_value@NVass_synth_priv@@Uass_synth_priv_key@@@detail@flyweights@boost@@N@detail@flyweights@boost@@Uindex_list@?$hashed_factory_class@V?$refcounted_value@Vrep_type@?$optimized_key_value@NVass_synth_priv@@Uass_synth_priv_key@@@detail@flyweights@boost@@N@detail@flyweights@boost@@NUna@mpl@4@U564@U564@@34@V?$allocator@V?$refcounted_value@Vrep_type@?$optimized_key_value@NVass_synth_priv@@Uass_synth_priv_key@@@detail@flyweights@boost@@N@detail@flyweights@boost@@@std@@@detail@23@U?$vector0@Una@mpl@boost@@@mpl@3@Uhashed_unique_tag@823@@detail@multi_index@boost@@QBE?AV?$allocator@V?$refcounted_value@Vrep_type@?$optimized_key_value@NVass_synth_priv@@Uass_synth_priv_key@@@detail@flyweights@boost@@N@detail@flyweights@boost@@@std@@XZ ; boost::multi_index::detail::hashed_index<boost::multi_index::identity<boost::flyweights::detail::refcounted_value<boost::flyweights::detail::optimized_key_value<double,ass_synth_priv,ass_synth_priv_key>::rep_type,double> >,boost::hash<double>,std::equal_to<double>,boost::multi_index::detail::nth_layer<1,boost::flyweights::detail::refcounted_value<boost::flyweights::detail::optimized_key_value<double,ass_synth_priv,ass_synth_priv_key>::rep_type,double>,boost::flyweights::hashed_factory_class<boost::flyweights::detail::refcounted_value<boost::flyweights::detail::optimized_key_value<double,ass_synth_priv,ass_synth_priv_key>::rep_type,double>,double,boost::mpl::na,boost::mpl::na,boost::mpl::na>::index_list,std::allocator<boost::flyweights::detail::refcounted_value<boost::flyweights::detail::optimized_key_value<double,ass_synth_priv,ass_synth_priv_key>::rep_type,double> > >,boost::mpl::vector0<boost::mpl::na>,boost::multi_index::detail::hashed_unique_tag>::get_allocator
PUBLIC	?size_@?$multi_index_container@V?$refcounted_value@Vrep_type@?$optimized_key_value@NVass_synth_priv@@Uass_synth_priv_key@@@detail@flyweights@boost@@N@detail@flyweights@boost@@Uindex_list@?$hashed_factory_class@V?$refcounted_value@Vrep_type@?$optimized_key_value@NVass_synth_priv@@Uass_synth_priv_key@@@detail@flyweights@boost@@N@detail@flyweights@boost@@NUna@mpl@4@U564@U564@@34@V?$allocator@V?$refcounted_value@Vrep_type@?$optimized_key_value@NVass_synth_priv@@Uass_synth_priv_key@@@detail@flyweights@boost@@N@detail@flyweights@boost@@@std@@@multi_index@boost@@IBEIXZ ; boost::multi_index::multi_index_container<boost::flyweights::detail::refcounted_value<boost::flyweights::detail::optimized_key_value<double,ass_synth_priv,ass_synth_priv_key>::rep_type,double>,boost::flyweights::hashed_factory_class<boost::flyweights::detail::refcounted_value<boost::flyweights::detail::optimized_key_value<double,ass_synth_priv,ass_synth_priv_key>::rep_type,double>,double,boost::mpl::na,boost::mpl::na,boost::mpl::na>::index_list,std::allocator<boost::flyweights::detail::refcounted_value<boost::flyweights::detail::optimized_key_value<double,ass_synth_priv,ass_synth_priv_key>::rep_type,double> > >::size_
PUBLIC	?final_size_@?$index_base@V?$refcounted_value@Vrep_type@?$optimized_key_value@NVass_synth_priv@@Uass_synth_priv_key@@@detail@flyweights@boost@@N@detail@flyweights@boost@@Uindex_list@?$hashed_factory_class@V?$refcounted_value@Vrep_type@?$optimized_key_value@NVass_synth_priv@@Uass_synth_priv_key@@@detail@flyweights@boost@@N@detail@flyweights@boost@@NUna@mpl@4@U564@U564@@34@V?$allocator@V?$refcounted_value@Vrep_type@?$optimized_key_value@NVass_synth_priv@@Uass_synth_priv_key@@@detail@flyweights@boost@@N@detail@flyweights@boost@@@std@@@detail@multi_index@boost@@IBEIXZ ; boost::multi_index::detail::index_base<boost::flyweights::detail::refcounted_value<boost::flyweights::detail::optimized_key_value<double,ass_synth_priv,ass_synth_priv_key>::rep_type,double>,boost::flyweights::hashed_factory_class<boost::flyweights::detail::refcounted_value<boost::flyweights::detail::optimized_key_value<double,ass_synth_priv,ass_synth_priv_key>::rep_type,double>,double,boost::mpl::na,boost::mpl::na,boost::mpl::na>::index_list,std::allocator<boost::flyweights::detail::refcounted_value<boost::flyweights::detail::optimized_key_value<double,ass_synth_priv,ass_synth_priv_key>::rep_type,double> > >::final_size_
PUBLIC	?size@?$hashed_index@U?$identity@V?$refcounted_value@Vrep_type@?$optimized_key_value@NVass_synth_priv@@Uass_synth_priv_key@@@detail@flyweights@boost@@N@detail@flyweights@boost@@@multi_index@boost@@U?$hash@N@3@U?$equal_to@N@std@@U?$nth_layer@$00V?$refcounted_value@Vrep_type@?$optimized_key_value@NVass_synth_priv@@Uass_synth_priv_key@@@detail@flyweights@boost@@N@detail@flyweights@boost@@Uindex_list@?$hashed_factory_class@V?$refcounted_value@Vrep_type@?$optimized_key_value@NVass_synth_priv@@Uass_synth_priv_key@@@detail@flyweights@boost@@N@detail@flyweights@boost@@NUna@mpl@4@U564@U564@@34@V?$allocator@V?$refcounted_value@Vrep_type@?$optimized_key_value@NVass_synth_priv@@Uass_synth_priv_key@@@detail@flyweights@boost@@N@detail@flyweights@boost@@@std@@@detail@23@U?$vector0@Una@mpl@boost@@@mpl@3@Uhashed_unique_tag@823@@detail@multi_index@boost@@QBEIXZ ; boost::multi_index::detail::hashed_index<boost::multi_index::identity<boost::flyweights::detail::refcounted_value<boost::flyweights::detail::optimized_key_value<double,ass_synth_priv,ass_synth_priv_key>::rep_type,double> >,boost::hash<double>,std::equal_to<double>,boost::multi_index::detail::nth_layer<1,boost::flyweights::detail::refcounted_value<boost::flyweights::detail::optimized_key_value<double,ass_synth_priv,ass_synth_priv_key>::rep_type,double>,boost::flyweights::hashed_factory_class<boost::flyweights::detail::refcounted_value<boost::flyweights::detail::optimized_key_value<double,ass_synth_priv,ass_synth_priv_key>::rep_type,double>,double,boost::mpl::na,boost::mpl::na,boost::mpl::na>::index_list,std::allocator<boost::flyweights::detail::refcounted_value<boost::flyweights::detail::optimized_key_value<double,ass_synth_priv,ass_synth_priv_key>::rep_type,double> > >,boost::mpl::vector0<boost::mpl::na>,boost::multi_index::detail::hashed_unique_tag>::size
PUBLIC	?link@?$hashed_index@U?$identity@V?$refcounted_value@Vrep_type@?$optimized_key_value@NVass_synth_priv@@Uass_synth_priv_key@@@detail@flyweights@boost@@N@detail@flyweights@boost@@@multi_index@boost@@U?$hash@N@3@U?$equal_to@N@std@@U?$nth_layer@$00V?$refcounted_value@Vrep_type@?$optimized_key_value@NVass_synth_priv@@Uass_synth_priv_key@@@detail@flyweights@boost@@N@detail@flyweights@boost@@Uindex_list@?$hashed_factory_class@V?$refcounted_value@Vrep_type@?$optimized_key_value@NVass_synth_priv@@Uass_synth_priv_key@@@detail@flyweights@boost@@N@detail@flyweights@boost@@NUna@mpl@4@U564@U564@@34@V?$allocator@V?$refcounted_value@Vrep_type@?$optimized_key_value@NVass_synth_priv@@Uass_synth_priv_key@@@detail@flyweights@boost@@N@detail@flyweights@boost@@@std@@@detail@23@U?$vector0@Una@mpl@boost@@@mpl@3@Uhashed_unique_tag@823@@detail@multi_index@boost@@CAXPAU?$hashed_index_node_impl@V?$allocator@D@std@@@234@0@Z ; boost::multi_index::detail::hashed_index<boost::multi_index::identity<boost::flyweights::detail::refcounted_value<boost::flyweights::detail::optimized_key_value<double,ass_synth_priv,ass_synth_priv_key>::rep_type,double> >,boost::hash<double>,std::equal_to<double>,boost::multi_index::detail::nth_layer<1,boost::flyweights::detail::refcounted_value<boost::flyweights::detail::optimized_key_value<double,ass_synth_priv,ass_synth_priv_key>::rep_type,double>,boost::flyweights::hashed_factory_class<boost::flyweights::detail::refcounted_value<boost::flyweights::detail::optimized_key_value<double,ass_synth_priv,ass_synth_priv_key>::rep_type,double>,double,boost::mpl::na,boost::mpl::na,boost::mpl::na>::index_list,std::allocator<boost::flyweights::detail::refcounted_value<boost::flyweights::detail::optimized_key_value<double,ass_synth_priv,ass_synth_priv_key>::rep_type,double> > >,boost::mpl::vector0<boost::mpl::na>,boost::multi_index::detail::hashed_unique_tag>::link
PUBLIC	?position@?$bucket_array@V?$allocator@V?$refcounted_value@Vrep_type@?$optimized_key_value@NVass_synth_priv@@Uass_synth_priv_key@@@detail@flyweights@boost@@N@detail@flyweights@boost@@@std@@@detail@multi_index@boost@@QBEII@Z ; boost::multi_index::detail::bucket_array<std::allocator<boost::flyweights::detail::refcounted_value<boost::flyweights::detail::optimized_key_value<double,ass_synth_priv,ass_synth_priv_key>::rep_type,double> > >::position
PUBLIC	?swap@?$auto_space@U?$hashed_index_node_impl@V?$allocator@D@std@@@detail@multi_index@boost@@V?$allocator@V?$refcounted_value@Vrep_type@?$optimized_key_value@NVass_synth_priv@@Uass_synth_priv_key@@@detail@flyweights@boost@@N@detail@flyweights@boost@@@std@@@detail@multi_index@boost@@QAEXAAU1234@@Z ; boost::multi_index::detail::auto_space<boost::multi_index::detail::hashed_index_node_impl<std::allocator<char> >,std::allocator<boost::flyweights::detail::refcounted_value<boost::flyweights::detail::optimized_key_value<double,ass_synth_priv,ass_synth_priv_key>::rep_type,double> > >::swap
PUBLIC	?swap@?$bucket_array@V?$allocator@V?$refcounted_value@Vrep_type@?$optimized_key_value@NVass_synth_priv@@Uass_synth_priv_key@@@detail@flyweights@boost@@N@detail@flyweights@boost@@@std@@@detail@multi_index@boost@@QAEXAAV1234@@Z ; boost::multi_index::detail::bucket_array<std::allocator<boost::flyweights::detail::refcounted_value<boost::flyweights::detail::optimized_key_value<double,ass_synth_priv,ass_synth_priv_key>::rep_type,double> > >::swap
PUBLIC	??$?0V?$refcounted_value@Vrep_type@?$optimized_key_value@NVass_synth_priv@@Uass_synth_priv_key@@@detail@flyweights@boost@@N@detail@flyweights@boost@@@?$allocator@I@std@@QAE@ABV?$allocator@V?$refcounted_value@Vrep_type@?$optimized_key_value@NVass_synth_priv@@Uass_synth_priv_key@@@detail@flyweights@boost@@N@detail@flyweights@boost@@@1@@Z ; std::allocator<unsigned int>::allocator<unsigned int><boost::flyweights::detail::refcounted_value<boost::flyweights::detail::optimized_key_value<double,ass_synth_priv,ass_synth_priv_key>::rep_type,double> >
PUBLIC	??0?$auto_space@IV?$allocator@V?$refcounted_value@Vrep_type@?$optimized_key_value@NVass_synth_priv@@Uass_synth_priv_key@@@detail@flyweights@boost@@N@detail@flyweights@boost@@@std@@@detail@multi_index@boost@@QAE@ABV?$allocator@V?$refcounted_value@Vrep_type@?$optimized_key_value@NVass_synth_priv@@Uass_synth_priv_key@@@detail@flyweights@boost@@N@detail@flyweights@boost@@@std@@I@Z ; boost::multi_index::detail::auto_space<unsigned int,std::allocator<boost::flyweights::detail::refcounted_value<boost::flyweights::detail::optimized_key_value<double,ass_synth_priv,ass_synth_priv_key>::rep_type,double> > >::auto_space<unsigned int,std::allocator<boost::flyweights::detail::refcounted_value<boost::flyweights::detail::optimized_key_value<double,ass_synth_priv,ass_synth_priv_key>::rep_type,double> > >
PUBLIC	??1?$auto_space@IV?$allocator@V?$refcounted_value@Vrep_type@?$optimized_key_value@NVass_synth_priv@@Uass_synth_priv_key@@@detail@flyweights@boost@@N@detail@flyweights@boost@@@std@@@detail@multi_index@boost@@QAE@XZ ; boost::multi_index::detail::auto_space<unsigned int,std::allocator<boost::flyweights::detail::refcounted_value<boost::flyweights::detail::optimized_key_value<double,ass_synth_priv,ass_synth_priv_key>::rep_type,double> > >::~auto_space<unsigned int,std::allocator<boost::flyweights::detail::refcounted_value<boost::flyweights::detail::optimized_key_value<double,ass_synth_priv,ass_synth_priv_key>::rep_type,double> > >
PUBLIC	?data@?$auto_space@IV?$allocator@V?$refcounted_value@Vrep_type@?$optimized_key_value@NVass_synth_priv@@Uass_synth_priv_key@@@detail@flyweights@boost@@N@detail@flyweights@boost@@@std@@@detail@multi_index@boost@@QBEPAIXZ ; boost::multi_index::detail::auto_space<unsigned int,std::allocator<boost::flyweights::detail::refcounted_value<boost::flyweights::detail::optimized_key_value<double,ass_synth_priv,ass_synth_priv_key>::rep_type,double> > >::data
PUBLIC	?unchecked_rehash@?$hashed_index@U?$identity@V?$refcounted_value@Vrep_type@?$optimized_key_value@NVass_synth_priv@@Uass_synth_priv_key@@@detail@flyweights@boost@@N@detail@flyweights@boost@@@multi_index@boost@@U?$hash@N@3@U?$equal_to@N@std@@U?$nth_layer@$00V?$refcounted_value@Vrep_type@?$optimized_key_value@NVass_synth_priv@@Uass_synth_priv_key@@@detail@flyweights@boost@@N@detail@flyweights@boost@@Uindex_list@?$hashed_factory_class@V?$refcounted_value@Vrep_type@?$optimized_key_value@NVass_synth_priv@@Uass_synth_priv_key@@@detail@flyweights@boost@@N@detail@flyweights@boost@@NUna@mpl@4@U564@U564@@34@V?$allocator@V?$refcounted_value@Vrep_type@?$optimized_key_value@NVass_synth_priv@@Uass_synth_priv_key@@@detail@flyweights@boost@@N@detail@flyweights@boost@@@std@@@detail@23@U?$vector0@Una@mpl@boost@@@mpl@3@Uhashed_unique_tag@823@@detail@multi_index@boost@@AAEXI@Z ; boost::multi_index::detail::hashed_index<boost::multi_index::identity<boost::flyweights::detail::refcounted_value<boost::flyweights::detail::optimized_key_value<double,ass_synth_priv,ass_synth_priv_key>::rep_type,double> >,boost::hash<double>,std::equal_to<double>,boost::multi_index::detail::nth_layer<1,boost::flyweights::detail::refcounted_value<boost::flyweights::detail::optimized_key_value<double,ass_synth_priv,ass_synth_priv_key>::rep_type,double>,boost::flyweights::hashed_factory_class<boost::flyweights::detail::refcounted_value<boost::flyweights::detail::optimized_key_value<double,ass_synth_priv,ass_synth_priv_key>::rep_type,double>,double,boost::mpl::na,boost::mpl::na,boost::mpl::na>::index_list,std::allocator<boost::flyweights::detail::refcounted_value<boost::flyweights::detail::optimized_key_value<double,ass_synth_priv,ass_synth_priv_key>::rep_type,double> > >,boost::mpl::vector0<boost::mpl::na>,boost::multi_index::detail::hashed_unique_tag>::unchecked_rehash
PUBLIC	?reserve@?$hashed_index@U?$identity@V?$refcounted_value@Vrep_type@?$optimized_key_value@NVass_synth_priv@@Uass_synth_priv_key@@@detail@flyweights@boost@@N@detail@flyweights@boost@@@multi_index@boost@@U?$hash@N@3@U?$equal_to@N@std@@U?$nth_layer@$00V?$refcounted_value@Vrep_type@?$optimized_key_value@NVass_synth_priv@@Uass_synth_priv_key@@@detail@flyweights@boost@@N@detail@flyweights@boost@@Uindex_list@?$hashed_factory_class@V?$refcounted_value@Vrep_type@?$optimized_key_value@NVass_synth_priv@@Uass_synth_priv_key@@@detail@flyweights@boost@@N@detail@flyweights@boost@@NUna@mpl@4@U564@U564@@34@V?$allocator@V?$refcounted_value@Vrep_type@?$optimized_key_value@NVass_synth_priv@@Uass_synth_priv_key@@@detail@flyweights@boost@@N@detail@flyweights@boost@@@std@@@detail@23@U?$vector0@Una@mpl@boost@@@mpl@3@Uhashed_unique_tag@823@@detail@multi_index@boost@@AAEXI@Z ; boost::multi_index::detail::hashed_index<boost::multi_index::identity<boost::flyweights::detail::refcounted_value<boost::flyweights::detail::optimized_key_value<double,ass_synth_priv,ass_synth_priv_key>::rep_type,double> >,boost::hash<double>,std::equal_to<double>,boost::multi_index::detail::nth_layer<1,boost::flyweights::detail::refcounted_value<boost::flyweights::detail::optimized_key_value<double,ass_synth_priv,ass_synth_priv_key>::rep_type,double>,boost::flyweights::hashed_factory_class<boost::flyweights::detail::refcounted_value<boost::flyweights::detail::optimized_key_value<double,ass_synth_priv,ass_synth_priv_key>::rep_type,double>,double,boost::mpl::na,boost::mpl::na,boost::mpl::na>::index_list,std::allocator<boost::flyweights::detail::refcounted_value<boost::flyweights::detail::optimized_key_value<double,ass_synth_priv,ass_synth_priv_key>::rep_type,double> > >,boost::mpl::vector0<boost::mpl::na>,boost::multi_index::detail::hashed_unique_tag>::reserve
PUBLIC	?insert_@?$hashed_index@U?$identity@V?$refcounted_value@Vrep_type@?$optimized_key_value@NVass_synth_priv@@Uass_synth_priv_key@@@detail@flyweights@boost@@N@detail@flyweights@boost@@@multi_index@boost@@U?$hash@N@3@U?$equal_to@N@std@@U?$nth_layer@$00V?$refcounted_value@Vrep_type@?$optimized_key_value@NVass_synth_priv@@Uass_synth_priv_key@@@detail@flyweights@boost@@N@detail@flyweights@boost@@Uindex_list@?$hashed_factory_class@V?$refcounted_value@Vrep_type@?$optimized_key_value@NVass_synth_priv@@Uass_synth_priv_key@@@detail@flyweights@boost@@N@detail@flyweights@boost@@NUna@mpl@4@U564@U564@@34@V?$allocator@V?$refcounted_value@Vrep_type@?$optimized_key_value@NVass_synth_priv@@Uass_synth_priv_key@@@detail@flyweights@boost@@N@detail@flyweights@boost@@@std@@@detail@23@U?$vector0@Una@mpl@boost@@@mpl@3@Uhashed_unique_tag@823@@detail@multi_index@boost@@IAEPAU?$hashed_index_node@U?$index_node_base@V?$refcounted_value@Vrep_type@?$optimized_key_value@NVass_synth_priv@@Uass_synth_priv_key@@@detail@flyweights@boost@@N@detail@flyweights@boost@@V?$allocator@V?$refcounted_value@Vrep_type@?$optimized_key_value@NVass_synth_priv@@Uass_synth_priv_key@@@detail@flyweights@boost@@N@detail@flyweights@boost@@@std@@@detail@multi_index@boost@@@234@ABV?$refcounted_value@Vrep_type@?$optimized_key_value@NVass_synth_priv@@Uass_synth_priv_key@@@detail@flyweights@boost@@N@2flyweights@4@PAU5234@@Z ; boost::multi_index::detail::hashed_index<boost::multi_index::identity<boost::flyweights::detail::refcounted_value<boost::flyweights::detail::optimized_key_value<double,ass_synth_priv,ass_synth_priv_key>::rep_type,double> >,boost::hash<double>,std::equal_to<double>,boost::multi_index::detail::nth_layer<1,boost::flyweights::detail::refcounted_value<boost::flyweights::detail::optimized_key_value<double,ass_synth_priv,ass_synth_priv_key>::rep_type,double>,boost::flyweights::hashed_factory_class<boost::flyweights::detail::refcounted_value<boost::flyweights::detail::optimized_key_value<double,ass_synth_priv,ass_synth_priv_key>::rep_type,double>,double,boost::mpl::na,boost::mpl::na,boost::mpl::na>::index_list,std::allocator<boost::flyweights::detail::refcounted_value<boost::flyweights::detail::optimized_key_value<double,ass_synth_priv,ass_synth_priv_key>::rep_type,double> > >,boost::mpl::vector0<boost::mpl::na>,boost::multi_index::detail::hashed_unique_tag>::insert_
PUBLIC	??$forward@AAPAU?$hashed_index_node@U?$index_node_base@V?$refcounted_value@Vrep_type@?$optimized_key_value@NVass_synth_priv@@Uass_synth_priv_key@@@detail@flyweights@boost@@N@detail@flyweights@boost@@V?$allocator@V?$refcounted_value@Vrep_type@?$optimized_key_value@NVass_synth_priv@@Uass_synth_priv_key@@@detail@flyweights@boost@@N@detail@flyweights@boost@@@std@@@detail@multi_index@boost@@@detail@multi_index@boost@@@std@@YAAAPAU?$hashed_index_node@U?$index_node_base@V?$refcounted_value@Vrep_type@?$optimized_key_value@NVass_synth_priv@@Uass_synth_priv_key@@@detail@flyweights@boost@@N@detail@flyweights@boost@@V?$allocator@V?$refcounted_value@Vrep_type@?$optimized_key_value@NVass_synth_priv@@Uass_synth_priv_key@@@detail@flyweights@boost@@N@detail@flyweights@boost@@@std@@@detail@multi_index@boost@@@detail@multi_index@boost@@AAPAU1234@@Z ; std::forward<boost::multi_index::detail::hashed_index_node<boost::multi_index::detail::index_node_base<boost::flyweights::detail::refcounted_value<boost::flyweights::detail::optimized_key_value<double,ass_synth_priv,ass_synth_priv_key>::rep_type,double>,std::allocator<boost::flyweights::detail::refcounted_value<boost::flyweights::detail::optimized_key_value<double,ass_synth_priv,ass_synth_priv_key>::rep_type,double> > > > * &>
PUBLIC	??$?0AAPAU?$hashed_index_node@U?$index_node_base@V?$refcounted_value@Vrep_type@?$optimized_key_value@NVass_synth_priv@@Uass_synth_priv_key@@@detail@flyweights@boost@@N@detail@flyweights@boost@@V?$allocator@V?$refcounted_value@Vrep_type@?$optimized_key_value@NVass_synth_priv@@Uass_synth_priv_key@@@detail@flyweights@boost@@N@detail@flyweights@boost@@@std@@@detail@multi_index@boost@@@detail@multi_index@boost@@_N@?$_Pair_base@PAU?$hashed_index_node@U?$index_node_base@V?$refcounted_value@Vrep_type@?$optimized_key_value@NVass_synth_priv@@Uass_synth_priv_key@@@detail@flyweights@boost@@N@detail@flyweights@boost@@V?$allocator@V?$refcounted_value@Vrep_type@?$optimized_key_value@NVass_synth_priv@@Uass_synth_priv_key@@@detail@flyweights@boost@@N@detail@flyweights@boost@@@std@@@detail@multi_index@boost@@@detail@multi_index@boost@@_N@std@@QAE@AAPAU?$hashed_index_node@U?$index_node_base@V?$refcounted_value@Vrep_type@?$optimized_key_value@NVass_synth_priv@@Uass_synth_priv_key@@@detail@flyweights@boost@@N@detail@flyweights@boost@@V?$allocator@V?$refcounted_value@Vrep_type@?$optimized_key_value@NVass_synth_priv@@Uass_synth_priv_key@@@detail@flyweights@boost@@N@detail@flyweights@boost@@@std@@@detail@multi_index@boost@@@detail@multi_index@boost@@$$QA_N@Z ; std::_Pair_base<boost::multi_index::detail::hashed_index_node<boost::multi_index::detail::index_node_base<boost::flyweights::detail::refcounted_value<boost::flyweights::detail::optimized_key_value<double,ass_synth_priv,ass_synth_priv_key>::rep_type,double>,std::allocator<boost::flyweights::detail::refcounted_value<boost::flyweights::detail::optimized_key_value<double,ass_synth_priv,ass_synth_priv_key>::rep_type,double> > > > *,bool>::_Pair_base<boost::multi_index::detail::hashed_index_node<boost::multi_index::detail::index_node_base<boost::flyweights::detail::refcounted_value<boost::flyweights::detail::optimized_key_value<double,ass_synth_priv,ass_synth_priv_key>::rep_type,double>,std::allocator<boost::flyweights::detail::refcounted_value<boost::flyweights::detail::optimized_key_value<double,ass_synth_priv,ass_synth_priv_key>::rep_type,double> > > > *,bool><boost::multi_index::detail::hashed_index_node<boost::multi_index::detail::index_node_base<boost::flyweights::detail::refcounted_value<boost::flyweights::detail::optimized_key_value<double,ass_synth_priv,ass_synth_priv_key>::rep_type,double>,std::allocator<boost::flyweights::detail::refcounted_value<boost::flyweights::detail::optimized_key_value<double,ass_synth_priv,ass_synth_priv_key>::rep_type,double> > > > * &,bool>
PUBLIC	??$?0AAPAU?$hashed_index_node@U?$index_node_base@V?$refcounted_value@Vrep_type@?$optimized_key_value@NVass_synth_priv@@Uass_synth_priv_key@@@detail@flyweights@boost@@N@detail@flyweights@boost@@V?$allocator@V?$refcounted_value@Vrep_type@?$optimized_key_value@NVass_synth_priv@@Uass_synth_priv_key@@@detail@flyweights@boost@@N@detail@flyweights@boost@@@std@@@detail@multi_index@boost@@@detail@multi_index@boost@@_N@?$pair@PAU?$hashed_index_node@U?$index_node_base@V?$refcounted_value@Vrep_type@?$optimized_key_value@NVass_synth_priv@@Uass_synth_priv_key@@@detail@flyweights@boost@@N@detail@flyweights@boost@@V?$allocator@V?$refcounted_value@Vrep_type@?$optimized_key_value@NVass_synth_priv@@Uass_synth_priv_key@@@detail@flyweights@boost@@N@detail@flyweights@boost@@@std@@@detail@multi_index@boost@@@detail@multi_index@boost@@_N@std@@QAE@AAPAU?$hashed_index_node@U?$index_node_base@V?$refcounted_value@Vrep_type@?$optimized_key_value@NVass_synth_priv@@Uass_synth_priv_key@@@detail@flyweights@boost@@N@detail@flyweights@boost@@V?$allocator@V?$refcounted_value@Vrep_type@?$optimized_key_value@NVass_synth_priv@@Uass_synth_priv_key@@@detail@flyweights@boost@@N@detail@flyweights@boost@@@std@@@detail@multi_index@boost@@@detail@multi_index@boost@@$$QA_N@Z ; std::pair<boost::multi_index::detail::hashed_index_node<boost::multi_index::detail::index_node_base<boost::flyweights::detail::refcounted_value<boost::flyweights::detail::optimized_key_value<double,ass_synth_priv,ass_synth_priv_key>::rep_type,double>,std::allocator<boost::flyweights::detail::refcounted_value<boost::flyweights::detail::optimized_key_value<double,ass_synth_priv,ass_synth_priv_key>::rep_type,double> > > > *,bool>::pair<boost::multi_index::detail::hashed_index_node<boost::multi_index::detail::index_node_base<boost::flyweights::detail::refcounted_value<boost::flyweights::detail::optimized_key_value<double,ass_synth_priv,ass_synth_priv_key>::rep_type,double>,std::allocator<boost::flyweights::detail::refcounted_value<boost::flyweights::detail::optimized_key_value<double,ass_synth_priv,ass_synth_priv_key>::rep_type,double> > > > *,bool><boost::multi_index::detail::hashed_index_node<boost::multi_index::detail::index_node_base<boost::flyweights::detail::refcounted_value<boost::flyweights::detail::optimized_key_value<double,ass_synth_priv,ass_synth_priv_key>::rep_type,double>,std::allocator<boost::flyweights::detail::refcounted_value<boost::flyweights::detail::optimized_key_value<double,ass_synth_priv,ass_synth_priv_key>::rep_type,double> > > > * &,bool>
PUBLIC	?insert_@?$multi_index_container@V?$refcounted_value@Vrep_type@?$optimized_key_value@NVass_synth_priv@@Uass_synth_priv_key@@@detail@flyweights@boost@@N@detail@flyweights@boost@@Uindex_list@?$hashed_factory_class@V?$refcounted_value@Vrep_type@?$optimized_key_value@NVass_synth_priv@@Uass_synth_priv_key@@@detail@flyweights@boost@@N@detail@flyweights@boost@@NUna@mpl@4@U564@U564@@34@V?$allocator@V?$refcounted_value@Vrep_type@?$optimized_key_value@NVass_synth_priv@@Uass_synth_priv_key@@@detail@flyweights@boost@@N@detail@flyweights@boost@@@std@@@multi_index@boost@@IAE?AU?$pair@PAU?$hashed_index_node@U?$index_node_base@V?$refcounted_value@Vrep_type@?$optimized_key_value@NVass_synth_priv@@Uass_synth_priv_key@@@detail@flyweights@boost@@N@detail@flyweights@boost@@V?$allocator@V?$refcounted_value@Vrep_type@?$optimized_key_value@NVass_synth_priv@@Uass_synth_priv_key@@@detail@flyweights@boost@@N@detail@flyweights@boost@@@std@@@detail@multi_index@boost@@@detail@multi_index@boost@@_N@std@@ABV?$refcounted_value@Vrep_type@?$optimized_key_value@NVass_synth_priv@@Uass_synth_priv_key@@@detail@flyweights@boost@@N@detail@flyweights@3@@Z ; boost::multi_index::multi_index_container<boost::flyweights::detail::refcounted_value<boost::flyweights::detail::optimized_key_value<double,ass_synth_priv,ass_synth_priv_key>::rep_type,double>,boost::flyweights::hashed_factory_class<boost::flyweights::detail::refcounted_value<boost::flyweights::detail::optimized_key_value<double,ass_synth_priv,ass_synth_priv_key>::rep_type,double>,double,boost::mpl::na,boost::mpl::na,boost::mpl::na>::index_list,std::allocator<boost::flyweights::detail::refcounted_value<boost::flyweights::detail::optimized_key_value<double,ass_synth_priv,ass_synth_priv_key>::rep_type,double> > >::insert_
PUBLIC	?final_insert_@?$index_base@V?$refcounted_value@Vrep_type@?$optimized_key_value@NVass_synth_priv@@Uass_synth_priv_key@@@detail@flyweights@boost@@N@detail@flyweights@boost@@Uindex_list@?$hashed_factory_class@V?$refcounted_value@Vrep_type@?$optimized_key_value@NVass_synth_priv@@Uass_synth_priv_key@@@detail@flyweights@boost@@N@detail@flyweights@boost@@NUna@mpl@4@U564@U564@@34@V?$allocator@V?$refcounted_value@Vrep_type@?$optimized_key_value@NVass_synth_priv@@Uass_synth_priv_key@@@detail@flyweights@boost@@N@detail@flyweights@boost@@@std@@@detail@multi_index@boost@@IAE?AU?$pair@PAU?$hashed_index_node@U?$index_node_base@V?$refcounted_value@Vrep_type@?$optimized_key_value@NVass_synth_priv@@Uass_synth_priv_key@@@detail@flyweights@boost@@N@detail@flyweights@boost@@V?$allocator@V?$refcounted_value@Vrep_type@?$optimized_key_value@NVass_synth_priv@@Uass_synth_priv_key@@@detail@flyweights@boost@@N@detail@flyweights@boost@@@std@@@detail@multi_index@boost@@@detail@multi_index@boost@@_N@std@@ABV?$refcounted_value@Vrep_type@?$optimized_key_value@NVass_synth_priv@@Uass_synth_priv_key@@@detail@flyweights@boost@@N@2flyweights@4@@Z ; boost::multi_index::detail::index_base<boost::flyweights::detail::refcounted_value<boost::flyweights::detail::optimized_key_value<double,ass_synth_priv,ass_synth_priv_key>::rep_type,double>,boost::flyweights::hashed_factory_class<boost::flyweights::detail::refcounted_value<boost::flyweights::detail::optimized_key_value<double,ass_synth_priv,ass_synth_priv_key>::rep_type,double>,double,boost::mpl::na,boost::mpl::na,boost::mpl::na>::index_list,std::allocator<boost::flyweights::detail::refcounted_value<boost::flyweights::detail::optimized_key_value<double,ass_synth_priv,ass_synth_priv_key>::rep_type,double> > >::final_insert_
PUBLIC	??$forward@V?$hashed_index_iterator@U?$hashed_index_node@U?$index_node_base@V?$refcounted_value@Vrep_type@?$optimized_key_value@NVass_synth_priv@@Uass_synth_priv_key@@@detail@flyweights@boost@@N@detail@flyweights@boost@@V?$allocator@V?$refcounted_value@Vrep_type@?$optimized_key_value@NVass_synth_priv@@Uass_synth_priv_key@@@detail@flyweights@boost@@N@detail@flyweights@boost@@@std@@@detail@multi_index@boost@@@detail@multi_index@boost@@V?$bucket_array@V?$allocator@V?$refcounted_value@Vrep_type@?$optimized_key_value@NVass_synth_priv@@Uass_synth_priv_key@@@detail@flyweights@boost@@N@detail@flyweights@boost@@@std@@@234@@detail@multi_index@boost@@@std@@YA$$QAV?$hashed_index_iterator@U?$hashed_index_node@U?$index_node_base@V?$refcounted_value@Vrep_type@?$optimized_key_value@NVass_synth_priv@@Uass_synth_priv_key@@@detail@flyweights@boost@@N@detail@flyweights@boost@@V?$allocator@V?$refcounted_value@Vrep_type@?$optimized_key_value@NVass_synth_priv@@Uass_synth_priv_key@@@detail@flyweights@boost@@N@detail@flyweights@boost@@@std@@@detail@multi_index@boost@@@detail@multi_index@boost@@V?$bucket_array@V?$allocator@V?$refcounted_value@Vrep_type@?$optimized_key_value@NVass_synth_priv@@Uass_synth_priv_key@@@detail@flyweights@boost@@N@detail@flyweights@boost@@@std@@@234@@detail@multi_index@boost@@AAV1234@@Z ; std::forward<boost::multi_index::detail::hashed_index_iterator<boost::multi_index::detail::hashed_index_node<boost::multi_index::detail::index_node_base<boost::flyweights::detail::refcounted_value<boost::flyweights::detail::optimized_key_value<double,ass_synth_priv,ass_synth_priv_key>::rep_type,double>,std::allocator<boost::flyweights::detail::refcounted_value<boost::flyweights::detail::optimized_key_value<double,ass_synth_priv,ass_synth_priv_key>::rep_type,double> > > >,boost::multi_index::detail::bucket_array<std::allocator<boost::flyweights::detail::refcounted_value<boost::flyweights::detail::optimized_key_value<double,ass_synth_priv,ass_synth_priv_key>::rep_type,double> > > > >
PUBLIC	??$?0V?$hashed_index_iterator@U?$hashed_index_node@U?$index_node_base@V?$refcounted_value@Vrep_type@?$optimized_key_value@NVass_synth_priv@@Uass_synth_priv_key@@@detail@flyweights@boost@@N@detail@flyweights@boost@@V?$allocator@V?$refcounted_value@Vrep_type@?$optimized_key_value@NVass_synth_priv@@Uass_synth_priv_key@@@detail@flyweights@boost@@N@detail@flyweights@boost@@@std@@@detail@multi_index@boost@@@detail@multi_index@boost@@V?$bucket_array@V?$allocator@V?$refcounted_value@Vrep_type@?$optimized_key_value@NVass_synth_priv@@Uass_synth_priv_key@@@detail@flyweights@boost@@N@detail@flyweights@boost@@@std@@@234@@detail@multi_index@boost@@AA_N@?$_Pair_base@V?$hashed_index_iterator@U?$hashed_index_node@U?$index_node_base@V?$refcounted_value@Vrep_type@?$optimized_key_value@NVass_synth_priv@@Uass_synth_priv_key@@@detail@flyweights@boost@@N@detail@flyweights@boost@@V?$allocator@V?$refcounted_value@Vrep_type@?$optimized_key_value@NVass_synth_priv@@Uass_synth_priv_key@@@detail@flyweights@boost@@N@detail@flyweights@boost@@@std@@@detail@multi_index@boost@@@detail@multi_index@boost@@V?$bucket_array@V?$allocator@V?$refcounted_value@Vrep_type@?$optimized_key_value@NVass_synth_priv@@Uass_synth_priv_key@@@detail@flyweights@boost@@N@detail@flyweights@boost@@@std@@@234@@detail@multi_index@boost@@_N@std@@QAE@$$QAV?$hashed_index_iterator@U?$hashed_index_node@U?$index_node_base@V?$refcounted_value@Vrep_type@?$optimized_key_value@NVass_synth_priv@@Uass_synth_priv_key@@@detail@flyweights@boost@@N@detail@flyweights@boost@@V?$allocator@V?$refcounted_value@Vrep_type@?$optimized_key_value@NVass_synth_priv@@Uass_synth_priv_key@@@detail@flyweights@boost@@N@detail@flyweights@boost@@@std@@@detail@multi_index@boost@@@detail@multi_index@boost@@V?$bucket_array@V?$allocator@V?$refcounted_value@Vrep_type@?$optimized_key_value@NVass_synth_priv@@Uass_synth_priv_key@@@detail@flyweights@boost@@N@detail@flyweights@boost@@@std@@@234@@detail@multi_index@boost@@AA_N@Z ; std::_Pair_base<boost::multi_index::detail::hashed_index_iterator<boost::multi_index::detail::hashed_index_node<boost::multi_index::detail::index_node_base<boost::flyweights::detail::refcounted_value<boost::flyweights::detail::optimized_key_value<double,ass_synth_priv,ass_synth_priv_key>::rep_type,double>,std::allocator<boost::flyweights::detail::refcounted_value<boost::flyweights::detail::optimized_key_value<double,ass_synth_priv,ass_synth_priv_key>::rep_type,double> > > >,boost::multi_index::detail::bucket_array<std::allocator<boost::flyweights::detail::refcounted_value<boost::flyweights::detail::optimized_key_value<double,ass_synth_priv,ass_synth_priv_key>::rep_type,double> > > >,bool>::_Pair_base<boost::multi_index::detail::hashed_index_iterator<boost::multi_index::detail::hashed_index_node<boost::multi_index::detail::index_node_base<boost::flyweights::detail::refcounted_value<boost::flyweights::detail::optimized_key_value<double,ass_synth_priv,ass_synth_priv_key>::rep_type,double>,std::allocator<boost::flyweights::detail::refcounted_value<boost::flyweights::detail::optimized_key_value<double,ass_synth_priv,ass_synth_priv_key>::rep_type,double> > > >,boost::multi_index::detail::bucket_array<std::allocator<boost::flyweights::detail::refcounted_value<boost::flyweights::detail::optimized_key_value<double,ass_synth_priv,ass_synth_priv_key>::rep_type,double> > > >,bool><boost::multi_index::detail::hashed_index_iterator<boost::multi_index::detail::hashed_index_node<boost::multi_index::detail::index_node_base<boost::flyweights::detail::refcounted_value<boost::flyweights::detail::optimized_key_value<double,ass_synth_priv,ass_synth_priv_key>::rep_type,double>,std::allocator<boost::flyweights::detail::refcounted_value<boost::flyweights::detail::optimized_key_value<double,ass_synth_priv,ass_synth_priv_key>::rep_type,double> > > >,boost::multi_index::detail::bucket_array<std::allocator<boost::flyweights::detail::refcounted_value<boost::flyweights::detail::optimized_key_value<double,ass_synth_priv,ass_synth_priv_key>::rep_type,double> > > >,bool &>
PUBLIC	??$?0V?$hashed_index_iterator@U?$hashed_index_node@U?$index_node_base@V?$refcounted_value@Vrep_type@?$optimized_key_value@NVass_synth_priv@@Uass_synth_priv_key@@@detail@flyweights@boost@@N@detail@flyweights@boost@@V?$allocator@V?$refcounted_value@Vrep_type@?$optimized_key_value@NVass_synth_priv@@Uass_synth_priv_key@@@detail@flyweights@boost@@N@detail@flyweights@boost@@@std@@@detail@multi_index@boost@@@detail@multi_index@boost@@V?$bucket_array@V?$allocator@V?$refcounted_value@Vrep_type@?$optimized_key_value@NVass_synth_priv@@Uass_synth_priv_key@@@detail@flyweights@boost@@N@detail@flyweights@boost@@@std@@@234@@detail@multi_index@boost@@AA_N@?$pair@V?$hashed_index_iterator@U?$hashed_index_node@U?$index_node_base@V?$refcounted_value@Vrep_type@?$optimized_key_value@NVass_synth_priv@@Uass_synth_priv_key@@@detail@flyweights@boost@@N@detail@flyweights@boost@@V?$allocator@V?$refcounted_value@Vrep_type@?$optimized_key_value@NVass_synth_priv@@Uass_synth_priv_key@@@detail@flyweights@boost@@N@detail@flyweights@boost@@@std@@@detail@multi_index@boost@@@detail@multi_index@boost@@V?$bucket_array@V?$allocator@V?$refcounted_value@Vrep_type@?$optimized_key_value@NVass_synth_priv@@Uass_synth_priv_key@@@detail@flyweights@boost@@N@detail@flyweights@boost@@@std@@@234@@detail@multi_index@boost@@_N@std@@QAE@$$QAV?$hashed_index_iterator@U?$hashed_index_node@U?$index_node_base@V?$refcounted_value@Vrep_type@?$optimized_key_value@NVass_synth_priv@@Uass_synth_priv_key@@@detail@flyweights@boost@@N@detail@flyweights@boost@@V?$allocator@V?$refcounted_value@Vrep_type@?$optimized_key_value@NVass_synth_priv@@Uass_synth_priv_key@@@detail@flyweights@boost@@N@detail@flyweights@boost@@@std@@@detail@multi_index@boost@@@detail@multi_index@boost@@V?$bucket_array@V?$allocator@V?$refcounted_value@Vrep_type@?$optimized_key_value@NVass_synth_priv@@Uass_synth_priv_key@@@detail@flyweights@boost@@N@detail@flyweights@boost@@@std@@@234@@detail@multi_index@boost@@AA_N@Z ; std::pair<boost::multi_index::detail::hashed_index_iterator<boost::multi_index::detail::hashed_index_node<boost::multi_index::detail::index_node_base<boost::flyweights::detail::refcounted_value<boost::flyweights::detail::optimized_key_value<double,ass_synth_priv,ass_synth_priv_key>::rep_type,double>,std::allocator<boost::flyweights::detail::refcounted_value<boost::flyweights::detail::optimized_key_value<double,ass_synth_priv,ass_synth_priv_key>::rep_type,double> > > >,boost::multi_index::detail::bucket_array<std::allocator<boost::flyweights::detail::refcounted_value<boost::flyweights::detail::optimized_key_value<double,ass_synth_priv,ass_synth_priv_key>::rep_type,double> > > >,bool>::pair<boost::multi_index::detail::hashed_index_iterator<boost::multi_index::detail::hashed_index_node<boost::multi_index::detail::index_node_base<boost::flyweights::detail::refcounted_value<boost::flyweights::detail::optimized_key_value<double,ass_synth_priv,ass_synth_priv_key>::rep_type,double>,std::allocator<boost::flyweights::detail::refcounted_value<boost::flyweights::detail::optimized_key_value<double,ass_synth_priv,ass_synth_priv_key>::rep_type,double> > > >,boost::multi_index::detail::bucket_array<std::allocator<boost::flyweights::detail::refcounted_value<boost::flyweights::detail::optimized_key_value<double,ass_synth_priv,ass_synth_priv_key>::rep_type,double> > > >,bool><boost::multi_index::detail::hashed_index_iterator<boost::multi_index::detail::hashed_index_node<boost::multi_index::detail::index_node_base<boost::flyweights::detail::refcounted_value<boost::flyweights::detail::optimized_key_value<double,ass_synth_priv,ass_synth_priv_key>::rep_type,double>,std::allocator<boost::flyweights::detail::refcounted_value<boost::flyweights::detail::optimized_key_value<double,ass_synth_priv,ass_synth_priv_key>::rep_type,double> > > >,boost::multi_index::detail::bucket_array<std::allocator<boost::flyweights::detail::refcounted_value<boost::flyweights::detail::optimized_key_value<double,ass_synth_priv,ass_synth_priv_key>::rep_type,double> > > >,bool &>
PUBLIC	?insert@?$hashed_index@U?$identity@V?$refcounted_value@Vrep_type@?$optimized_key_value@NVass_synth_priv@@Uass_synth_priv_key@@@detail@flyweights@boost@@N@detail@flyweights@boost@@@multi_index@boost@@U?$hash@N@3@U?$equal_to@N@std@@U?$nth_layer@$00V?$refcounted_value@Vrep_type@?$optimized_key_value@NVass_synth_priv@@Uass_synth_priv_key@@@detail@flyweights@boost@@N@detail@flyweights@boost@@Uindex_list@?$hashed_factory_class@V?$refcounted_value@Vrep_type@?$optimized_key_value@NVass_synth_priv@@Uass_synth_priv_key@@@detail@flyweights@boost@@N@detail@flyweights@boost@@NUna@mpl@4@U564@U564@@34@V?$allocator@V?$refcounted_value@Vrep_type@?$optimized_key_value@NVass_synth_priv@@Uass_synth_priv_key@@@detail@flyweights@boost@@N@detail@flyweights@boost@@@std@@@detail@23@U?$vector0@Una@mpl@boost@@@mpl@3@Uhashed_unique_tag@823@@detail@multi_index@boost@@QAE?AU?$pair@V?$hashed_index_iterator@U?$hashed_index_node@U?$index_node_base@V?$refcounted_value@Vrep_type@?$optimized_key_value@NVass_synth_priv@@Uass_synth_priv_key@@@detail@flyweights@boost@@N@detail@flyweights@boost@@V?$allocator@V?$refcounted_value@Vrep_type@?$optimized_key_value@NVass_synth_priv@@Uass_synth_priv_key@@@detail@flyweights@boost@@N@detail@flyweights@boost@@@std@@@detail@multi_index@boost@@@detail@multi_index@boost@@V?$bucket_array@V?$allocator@V?$refcounted_value@Vrep_type@?$optimized_key_value@NVass_synth_priv@@Uass_synth_priv_key@@@detail@flyweights@boost@@N@detail@flyweights@boost@@@std@@@234@@detail@multi_index@boost@@_N@std@@ABV?$refcounted_value@Vrep_type@?$optimized_key_value@NVass_synth_priv@@Uass_synth_priv_key@@@detail@flyweights@boost@@N@2flyweights@4@@Z ; boost::multi_index::detail::hashed_index<boost::multi_index::identity<boost::flyweights::detail::refcounted_value<boost::flyweights::detail::optimized_key_value<double,ass_synth_priv,ass_synth_priv_key>::rep_type,double> >,boost::hash<double>,std::equal_to<double>,boost::multi_index::detail::nth_layer<1,boost::flyweights::detail::refcounted_value<boost::flyweights::detail::optimized_key_value<double,ass_synth_priv,ass_synth_priv_key>::rep_type,double>,boost::flyweights::hashed_factory_class<boost::flyweights::detail::refcounted_value<boost::flyweights::detail::optimized_key_value<double,ass_synth_priv,ass_synth_priv_key>::rep_type,double>,double,boost::mpl::na,boost::mpl::na,boost::mpl::na>::index_list,std::allocator<boost::flyweights::detail::refcounted_value<boost::flyweights::detail::optimized_key_value<double,ass_synth_priv,ass_synth_priv_key>::rep_type,double> > >,boost::mpl::vector0<boost::mpl::na>,boost::multi_index::detail::hashed_unique_tag>::insert
PUBLIC	??D?$hashed_index_iterator@U?$hashed_index_node@U?$index_node_base@V?$refcounted_value@Vrep_type@?$optimized_key_value@NVass_synth_priv@@Uass_synth_priv_key@@@detail@flyweights@boost@@N@detail@flyweights@boost@@V?$allocator@V?$refcounted_value@Vrep_type@?$optimized_key_value@NVass_synth_priv@@Uass_synth_priv_key@@@detail@flyweights@boost@@N@detail@flyweights@boost@@@std@@@detail@multi_index@boost@@@detail@multi_index@boost@@V?$bucket_array@V?$allocator@V?$refcounted_value@Vrep_type@?$optimized_key_value@NVass_synth_priv@@Uass_synth_priv_key@@@detail@flyweights@boost@@N@detail@flyweights@boost@@@std@@@234@@detail@multi_index@boost@@QBEABV?$refcounted_value@Vrep_type@?$optimized_key_value@NVass_synth_priv@@Uass_synth_priv_key@@@detail@flyweights@boost@@N@1flyweights@3@XZ ; boost::multi_index::detail::hashed_index_iterator<boost::multi_index::detail::hashed_index_node<boost::multi_index::detail::index_node_base<boost::flyweights::detail::refcounted_value<boost::flyweights::detail::optimized_key_value<double,ass_synth_priv,ass_synth_priv_key>::rep_type,double>,std::allocator<boost::flyweights::detail::refcounted_value<boost::flyweights::detail::optimized_key_value<double,ass_synth_priv,ass_synth_priv_key>::rep_type,double> > > >,boost::multi_index::detail::bucket_array<std::allocator<boost::flyweights::detail::refcounted_value<boost::flyweights::detail::optimized_key_value<double,ass_synth_priv,ass_synth_priv_key>::rep_type,double> > > >::operator*
PUBLIC	?insert@?$hashed_factory_class@V?$refcounted_value@Vrep_type@?$optimized_key_value@NVass_synth_priv@@Uass_synth_priv_key@@@detail@flyweights@boost@@N@detail@flyweights@boost@@NUna@mpl@4@U564@U564@@flyweights@boost@@QAEPBV?$refcounted_value@Vrep_type@?$optimized_key_value@NVass_synth_priv@@Uass_synth_priv_key@@@detail@flyweights@boost@@N@detail@23@ABV4523@@Z ; boost::flyweights::hashed_factory_class<boost::flyweights::detail::refcounted_value<boost::flyweights::detail::optimized_key_value<double,ass_synth_priv,ass_synth_priv_key>::rep_type,double>,double,boost::mpl::na,boost::mpl::na,boost::mpl::na>::insert
PUBLIC	??0rep_type@?$optimized_key_value@NVass_synth_priv@@Uass_synth_priv_key@@@detail@flyweights@boost@@QAE@ABV01234@@Z ; boost::flyweights::detail::optimized_key_value<double,ass_synth_priv,ass_synth_priv_key>::rep_type::rep_type
PUBLIC	??0?$refcounted_value@Vrep_type@?$optimized_key_value@NVass_synth_priv@@Uass_synth_priv_key@@@detail@flyweights@boost@@N@detail@flyweights@boost@@QAE@ABVrep_type@?$optimized_key_value@NVass_synth_priv@@Uass_synth_priv_key@@@123@@Z ; boost::flyweights::detail::refcounted_value<boost::flyweights::detail::optimized_key_value<double,ass_synth_priv,ass_synth_priv_key>::rep_type,double>::refcounted_value<boost::flyweights::detail::optimized_key_value<double,ass_synth_priv,ass_synth_priv_key>::rep_type,double>
PUBLIC	??B?$refcounted_value@Vrep_type@?$optimized_key_value@NVass_synth_priv@@Uass_synth_priv_key@@@detail@flyweights@boost@@N@detail@flyweights@boost@@QBEABVrep_type@?$optimized_key_value@NVass_synth_priv@@Uass_synth_priv_key@@@123@XZ ; boost::flyweights::detail::refcounted_value<boost::flyweights::detail::optimized_key_value<double,ass_synth_priv,ass_synth_priv_key>::rep_type,double>::operator boost::flyweights::detail::optimized_key_value<double,ass_synth_priv,ass_synth_priv_key>::rep_type const &
PUBLIC	?add_ref@?$refcounted_value@Vrep_type@?$optimized_key_value@NVass_synth_priv@@Uass_synth_priv_key@@@detail@flyweights@boost@@N@detail@flyweights@boost@@ABEJXZ ; boost::flyweights::detail::refcounted_value<boost::flyweights::detail::optimized_key_value<double,ass_synth_priv,ass_synth_priv_key>::rep_type,double>::add_ref
PUBLIC	?add_deleter@?$refcounted_value@Vrep_type@?$optimized_key_value@NVass_synth_priv@@Uass_synth_priv_key@@@detail@flyweights@boost@@N@detail@flyweights@boost@@ABEXXZ ; boost::flyweights::detail::refcounted_value<boost::flyweights::detail::optimized_key_value<double,ass_synth_priv,ass_synth_priv_key>::rep_type,double>::add_deleter
PUBLIC	??0?$refcounted_handle@PBV?$refcounted_value@Vrep_type@?$optimized_key_value@NVass_synth_priv@@Uass_synth_priv_key@@@detail@flyweights@boost@@N@detail@flyweights@boost@@U?$flyweight_core_tracking_helper@U?$key_value@NVass_synth_priv@@Uass_synth_priv_key@@@flyweights@boost@@Una@mpl@3@Urefcounted@23@U?$hashed_factory@Una@mpl@boost@@U123@U123@$0A@@23@Uno_locking@23@Ustatic_holder@23@@234@@detail@flyweights@boost@@QAE@ABQBV?$refcounted_value@Vrep_type@?$optimized_key_value@NVass_synth_priv@@Uass_synth_priv_key@@@detail@flyweights@boost@@N@123@@Z ; boost::flyweights::detail::refcounted_handle<boost::flyweights::detail::refcounted_value<boost::flyweights::detail::optimized_key_value<double,ass_synth_priv,ass_synth_priv_key>::rep_type,double> const *,boost::flyweights::detail::flyweight_core_tracking_helper<boost::flyweights::key_value<double,ass_synth_priv,ass_synth_priv_key>,boost::mpl::na,boost::flyweights::refcounted,boost::flyweights::hashed_factory<boost::mpl::na,boost::mpl::na,boost::mpl::na,0>,boost::flyweights::no_locking,boost::flyweights::static_holder> >::refcounted_handle<boost::flyweights::detail::refcounted_value<boost::flyweights::detail::optimized_key_value<double,ass_synth_priv,ass_synth_priv_key>::rep_type,double> const *,boost::flyweights::detail::flyweight_core_tracking_helper<boost::flyweights::key_value<double,ass_synth_priv,ass_synth_priv_key>,boost::mpl::na,boost::flyweights::refcounted,boost::flyweights::hashed_factory<boost::mpl::na,boost::mpl::na,boost::mpl::na,0>,boost::flyweights::no_locking,boost::flyweights::static_holder> >
PUBLIC	?insert_rep@?$flyweight_core@U?$key_value@NVass_synth_priv@@Uass_synth_priv_key@@@flyweights@boost@@Una@mpl@3@Urefcounted@23@U?$hashed_factory@Una@mpl@boost@@U123@U123@$0A@@23@Uno_locking@23@Ustatic_holder@23@@detail@flyweights@boost@@CA?AV?$refcounted_handle@PBV?$refcounted_value@Vrep_type@?$optimized_key_value@NVass_synth_priv@@Uass_synth_priv_key@@@detail@flyweights@boost@@N@detail@flyweights@boost@@U?$flyweight_core_tracking_helper@U?$key_value@NVass_synth_priv@@Uass_synth_priv_key@@@flyweights@boost@@Una@mpl@3@Urefcounted@23@U?$hashed_factory@Una@mpl@boost@@U123@U123@$0A@@23@Uno_locking@23@Ustatic_holder@23@@234@@234@ABVrep_type@?$optimized_key_value@NVass_synth_priv@@Uass_synth_priv_key@@@234@@Z ; boost::flyweights::detail::flyweight_core<boost::flyweights::key_value<double,ass_synth_priv,ass_synth_priv_key>,boost::mpl::na,boost::flyweights::refcounted,boost::flyweights::hashed_factory<boost::mpl::na,boost::mpl::na,boost::mpl::na,0>,boost::flyweights::no_locking,boost::flyweights::static_holder>::insert_rep
PUBLIC	?release@?$refcounted_value@Vrep_type@?$optimized_key_value@NVass_synth_priv@@Uass_synth_priv_key@@@detail@flyweights@boost@@N@detail@flyweights@boost@@ABE_NXZ ; boost::flyweights::detail::refcounted_value<boost::flyweights::detail::optimized_key_value<double,ass_synth_priv,ass_synth_priv_key>::rep_type,double>::release
PUBLIC	?release_deleter@?$refcounted_value@Vrep_type@?$optimized_key_value@NVass_synth_priv@@Uass_synth_priv_key@@@detail@flyweights@boost@@N@detail@flyweights@boost@@ABE_NXZ ; boost::flyweights::detail::refcounted_value<boost::flyweights::detail::optimized_key_value<double,ass_synth_priv,ass_synth_priv_key>::rep_type,double>::release_deleter
PUBLIC	?check_erase@?$refcounted_handle@PBV?$refcounted_value@Vrep_type@?$optimized_key_value@NVass_synth_priv@@Uass_synth_priv_key@@@detail@flyweights@boost@@N@detail@flyweights@boost@@U?$flyweight_core_tracking_helper@U?$key_value@NVass_synth_priv@@Uass_synth_priv_key@@@flyweights@boost@@Una@mpl@3@Urefcounted@23@U?$hashed_factory@Una@mpl@boost@@U123@U123@$0A@@23@Uno_locking@23@Ustatic_holder@23@@234@@detail@flyweights@boost@@CA_NABV1234@@Z ; boost::flyweights::detail::refcounted_handle<boost::flyweights::detail::refcounted_value<boost::flyweights::detail::optimized_key_value<double,ass_synth_priv,ass_synth_priv_key>::rep_type,double> const *,boost::flyweights::detail::flyweight_core_tracking_helper<boost::flyweights::key_value<double,ass_synth_priv,ass_synth_priv_key>,boost::mpl::na,boost::flyweights::refcounted,boost::flyweights::hashed_factory<boost::mpl::na,boost::mpl::na,boost::mpl::na,0>,boost::flyweights::no_locking,boost::flyweights::static_holder> >::check_erase
PUBLIC	?entry@?$hashed_factory_class@V?$refcounted_value@Vrep_type@?$optimized_key_value@NVass_synth_priv@@Uass_synth_priv_key@@@detail@flyweights@boost@@N@detail@flyweights@boost@@NUna@mpl@4@U564@U564@@flyweights@boost@@SAABV?$refcounted_value@Vrep_type@?$optimized_key_value@NVass_synth_priv@@Uass_synth_priv_key@@@detail@flyweights@boost@@N@detail@23@PBV4523@@Z ; boost::flyweights::hashed_factory_class<boost::flyweights::detail::refcounted_value<boost::flyweights::detail::optimized_key_value<double,ass_synth_priv,ass_synth_priv_key>::rep_type,double>,double,boost::mpl::na,boost::mpl::na,boost::mpl::na>::entry
PUBLIC	?entry@?$flyweight_core@U?$key_value@NVass_synth_priv@@Uass_synth_priv_key@@@flyweights@boost@@Una@mpl@3@Urefcounted@23@U?$hashed_factory@Una@mpl@boost@@U123@U123@$0A@@23@Uno_locking@23@Ustatic_holder@23@@detail@flyweights@boost@@SAABV?$refcounted_value@Vrep_type@?$optimized_key_value@NVass_synth_priv@@Uass_synth_priv_key@@@detail@flyweights@boost@@N@234@ABQBV5234@@Z ; boost::flyweights::detail::flyweight_core<boost::flyweights::key_value<double,ass_synth_priv,ass_synth_priv_key>,boost::mpl::na,boost::flyweights::refcounted,boost::flyweights::hashed_factory<boost::mpl::na,boost::mpl::na,boost::mpl::na,0>,boost::flyweights::no_locking,boost::flyweights::static_holder>::entry
PUBLIC	?entry@?$flyweight_core_tracking_helper@U?$key_value@NVass_synth_priv@@Uass_synth_priv_key@@@flyweights@boost@@Una@mpl@3@Urefcounted@23@U?$hashed_factory@Una@mpl@boost@@U123@U123@$0A@@23@Uno_locking@23@Ustatic_holder@23@@detail@flyweights@boost@@SAABV?$refcounted_value@Vrep_type@?$optimized_key_value@NVass_synth_priv@@Uass_synth_priv_key@@@detail@flyweights@boost@@N@234@ABV?$refcounted_handle@PBV?$refcounted_value@Vrep_type@?$optimized_key_value@NVass_synth_priv@@Uass_synth_priv_key@@@detail@flyweights@boost@@N@detail@flyweights@boost@@U?$flyweight_core_tracking_helper@U?$key_value@NVass_synth_priv@@Uass_synth_priv_key@@@flyweights@boost@@Una@mpl@3@Urefcounted@23@U?$hashed_factory@Una@mpl@boost@@U123@U123@$0A@@23@Uno_locking@23@Ustatic_holder@23@@234@@234@@Z ; boost::flyweights::detail::flyweight_core_tracking_helper<boost::flyweights::key_value<double,ass_synth_priv,ass_synth_priv_key>,boost::mpl::na,boost::flyweights::refcounted,boost::flyweights::hashed_factory<boost::mpl::na,boost::mpl::na,boost::mpl::na,0>,boost::flyweights::no_locking,boost::flyweights::static_holder>::entry
PUBLIC	??0?$hashed_index_iterator@U?$hashed_index_node@U?$index_node_base@V?$refcounted_value@Vrep_type@?$optimized_key_value@NVass_synth_priv@@Uass_synth_priv_key@@@detail@flyweights@boost@@N@detail@flyweights@boost@@V?$allocator@V?$refcounted_value@Vrep_type@?$optimized_key_value@NVass_synth_priv@@Uass_synth_priv_key@@@detail@flyweights@boost@@N@detail@flyweights@boost@@@std@@@detail@multi_index@boost@@@detail@multi_index@boost@@V?$bucket_array@V?$allocator@V?$refcounted_value@Vrep_type@?$optimized_key_value@NVass_synth_priv@@Uass_synth_priv_key@@@detail@flyweights@boost@@N@detail@flyweights@boost@@@std@@@234@@detail@multi_index@boost@@QAE@PAU?$hashed_index_node@U?$index_node_base@V?$refcounted_value@Vrep_type@?$optimized_key_value@NVass_synth_priv@@Uass_synth_priv_key@@@detail@flyweights@boost@@N@detail@flyweights@boost@@V?$allocator@V?$refcounted_value@Vrep_type@?$optimized_key_value@NVass_synth_priv@@Uass_synth_priv_key@@@detail@flyweights@boost@@N@detail@flyweights@boost@@@std@@@detail@multi_index@boost@@@123@PAV?$bucket_array@V?$allocator@V?$refcounted_value@Vrep_type@?$optimized_key_value@NVass_synth_priv@@Uass_synth_priv_key@@@detail@flyweights@boost@@N@detail@flyweights@boost@@@std@@@123@@Z ; boost::multi_index::detail::hashed_index_iterator<boost::multi_index::detail::hashed_index_node<boost::multi_index::detail::index_node_base<boost::flyweights::detail::refcounted_value<boost::flyweights::detail::optimized_key_value<double,ass_synth_priv,ass_synth_priv_key>::rep_type,double>,std::allocator<boost::flyweights::detail::refcounted_value<boost::flyweights::detail::optimized_key_value<double,ass_synth_priv,ass_synth_priv_key>::rep_type,double> > > >,boost::multi_index::detail::bucket_array<std::allocator<boost::flyweights::detail::refcounted_value<boost::flyweights::detail::optimized_key_value<double,ass_synth_priv,ass_synth_priv_key>::rep_type,double> > > >::hashed_index_iterator<boost::multi_index::detail::hashed_index_node<boost::multi_index::detail::index_node_base<boost::flyweights::detail::refcounted_value<boost::flyweights::detail::optimized_key_value<double,ass_synth_priv,ass_synth_priv_key>::rep_type,double>,std::allocator<boost::flyweights::detail::refcounted_value<boost::flyweights::detail::optimized_key_value<double,ass_synth_priv,ass_synth_priv_key>::rep_type,double> > > >,boost::multi_index::detail::bucket_array<std::allocator<boost::flyweights::detail::refcounted_value<boost::flyweights::detail::optimized_key_value<double,ass_synth_priv,ass_synth_priv_key>::rep_type,double> > > >
PUBLIC	?make_iterator@?$hashed_index@U?$identity@V?$refcounted_value@Vrep_type@?$optimized_key_value@NVass_synth_priv@@Uass_synth_priv_key@@@detail@flyweights@boost@@N@detail@flyweights@boost@@@multi_index@boost@@U?$hash@N@3@U?$equal_to@N@std@@U?$nth_layer@$00V?$refcounted_value@Vrep_type@?$optimized_key_value@NVass_synth_priv@@Uass_synth_priv_key@@@detail@flyweights@boost@@N@detail@flyweights@boost@@Uindex_list@?$hashed_factory_class@V?$refcounted_value@Vrep_type@?$optimized_key_value@NVass_synth_priv@@Uass_synth_priv_key@@@detail@flyweights@boost@@N@detail@flyweights@boost@@NUna@mpl@4@U564@U564@@34@V?$allocator@V?$refcounted_value@Vrep_type@?$optimized_key_value@NVass_synth_priv@@Uass_synth_priv_key@@@detail@flyweights@boost@@N@detail@flyweights@boost@@@std@@@detail@23@U?$vector0@Una@mpl@boost@@@mpl@3@Uhashed_unique_tag@823@@detail@multi_index@boost@@IAE?AV?$hashed_index_iterator@U?$hashed_index_node@U?$index_node_base@V?$refcounted_value@Vrep_type@?$optimized_key_value@NVass_synth_priv@@Uass_synth_priv_key@@@detail@flyweights@boost@@N@detail@flyweights@boost@@V?$allocator@V?$refcounted_value@Vrep_type@?$optimized_key_value@NVass_synth_priv@@Uass_synth_priv_key@@@detail@flyweights@boost@@N@detail@flyweights@boost@@@std@@@detail@multi_index@boost@@@detail@multi_index@boost@@V?$bucket_array@V?$allocator@V?$refcounted_value@Vrep_type@?$optimized_key_value@NVass_synth_priv@@Uass_synth_priv_key@@@detail@flyweights@boost@@N@detail@flyweights@boost@@@std@@@234@@234@PAU?$hashed_index_node@U?$index_node_base@V?$refcounted_value@Vrep_type@?$optimized_key_value@NVass_synth_priv@@Uass_synth_priv_key@@@detail@flyweights@boost@@N@detail@flyweights@boost@@V?$allocator@V?$refcounted_value@Vrep_type@?$optimized_key_value@NVass_synth_priv@@Uass_synth_priv_key@@@detail@flyweights@boost@@N@detail@flyweights@boost@@@std@@@detail@multi_index@boost@@@234@@Z ; boost::multi_index::detail::hashed_index<boost::multi_index::identity<boost::flyweights::detail::refcounted_value<boost::flyweights::detail::optimized_key_value<double,ass_synth_priv,ass_synth_priv_key>::rep_type,double> >,boost::hash<double>,std::equal_to<double>,boost::multi_index::detail::nth_layer<1,boost::flyweights::detail::refcounted_value<boost::flyweights::detail::optimized_key_value<double,ass_synth_priv,ass_synth_priv_key>::rep_type,double>,boost::flyweights::hashed_factory_class<boost::flyweights::detail::refcounted_value<boost::flyweights::detail::optimized_key_value<double,ass_synth_priv,ass_synth_priv_key>::rep_type,double>,double,boost::mpl::na,boost::mpl::na,boost::mpl::na>::index_list,std::allocator<boost::flyweights::detail::refcounted_value<boost::flyweights::detail::optimized_key_value<double,ass_synth_priv,ass_synth_priv_key>::rep_type,double> > >,boost::mpl::vector0<boost::mpl::na>,boost::multi_index::detail::hashed_unique_tag>::make_iterator
PUBLIC	?from_value@?$index_node_base@V?$refcounted_value@Vrep_type@?$optimized_key_value@NVass_synth_priv@@Uass_synth_priv_key@@@detail@flyweights@boost@@N@detail@flyweights@boost@@V?$allocator@V?$refcounted_value@Vrep_type@?$optimized_key_value@NVass_synth_priv@@Uass_synth_priv_key@@@detail@flyweights@boost@@N@detail@flyweights@boost@@@std@@@detail@multi_index@boost@@SAPAU1234@PBV?$refcounted_value@Vrep_type@?$optimized_key_value@NVass_synth_priv@@Uass_synth_priv_key@@@detail@flyweights@boost@@N@2flyweights@4@@Z ; boost::multi_index::detail::index_node_base<boost::flyweights::detail::refcounted_value<boost::flyweights::detail::optimized_key_value<double,ass_synth_priv,ass_synth_priv_key>::rep_type,double>,std::allocator<boost::flyweights::detail::refcounted_value<boost::flyweights::detail::optimized_key_value<double,ass_synth_priv,ass_synth_priv_key>::rep_type,double> > >::from_value
PUBLIC	??$node_from_value@U?$hashed_index_node@U?$index_node_base@V?$refcounted_value@Vrep_type@?$optimized_key_value@NVass_synth_priv@@Uass_synth_priv_key@@@detail@flyweights@boost@@N@detail@flyweights@boost@@V?$allocator@V?$refcounted_value@Vrep_type@?$optimized_key_value@NVass_synth_priv@@Uass_synth_priv_key@@@detail@flyweights@boost@@N@detail@flyweights@boost@@@std@@@detail@multi_index@boost@@@detail@multi_index@boost@@V?$refcounted_value@Vrep_type@?$optimized_key_value@NVass_synth_priv@@Uass_synth_priv_key@@@detail@flyweights@boost@@N@2flyweights@4@@detail@multi_index@boost@@YAPAU?$hashed_index_node@U?$index_node_base@V?$refcounted_value@Vrep_type@?$optimized_key_value@NVass_synth_priv@@Uass_synth_priv_key@@@detail@flyweights@boost@@N@detail@flyweights@boost@@V?$allocator@V?$refcounted_value@Vrep_type@?$optimized_key_value@NVass_synth_priv@@Uass_synth_priv_key@@@detail@flyweights@boost@@N@detail@flyweights@boost@@@std@@@detail@multi_index@boost@@@012@PBV?$refcounted_value@Vrep_type@?$optimized_key_value@NVass_synth_priv@@Uass_synth_priv_key@@@detail@flyweights@boost@@N@0flyweights@2@@Z ; boost::multi_index::detail::node_from_value<boost::multi_index::detail::hashed_index_node<boost::multi_index::detail::index_node_base<boost::flyweights::detail::refcounted_value<boost::flyweights::detail::optimized_key_value<double,ass_synth_priv,ass_synth_priv_key>::rep_type,double>,std::allocator<boost::flyweights::detail::refcounted_value<boost::flyweights::detail::optimized_key_value<double,ass_synth_priv,ass_synth_priv_key>::rep_type,double> > > >,boost::flyweights::detail::refcounted_value<boost::flyweights::detail::optimized_key_value<double,ass_synth_priv,ass_synth_priv_key>::rep_type,double> >
PUBLIC	?iterator_to@?$hashed_index@U?$identity@V?$refcounted_value@Vrep_type@?$optimized_key_value@NVass_synth_priv@@Uass_synth_priv_key@@@detail@flyweights@boost@@N@detail@flyweights@boost@@@multi_index@boost@@U?$hash@N@3@U?$equal_to@N@std@@U?$nth_layer@$00V?$refcounted_value@Vrep_type@?$optimized_key_value@NVass_synth_priv@@Uass_synth_priv_key@@@detail@flyweights@boost@@N@detail@flyweights@boost@@Uindex_list@?$hashed_factory_class@V?$refcounted_value@Vrep_type@?$optimized_key_value@NVass_synth_priv@@Uass_synth_priv_key@@@detail@flyweights@boost@@N@detail@flyweights@boost@@NUna@mpl@4@U564@U564@@34@V?$allocator@V?$refcounted_value@Vrep_type@?$optimized_key_value@NVass_synth_priv@@Uass_synth_priv_key@@@detail@flyweights@boost@@N@detail@flyweights@boost@@@std@@@detail@23@U?$vector0@Una@mpl@boost@@@mpl@3@Uhashed_unique_tag@823@@detail@multi_index@boost@@QAE?AV?$hashed_index_iterator@U?$hashed_index_node@U?$index_node_base@V?$refcounted_value@Vrep_type@?$optimized_key_value@NVass_synth_priv@@Uass_synth_priv_key@@@detail@flyweights@boost@@N@detail@flyweights@boost@@V?$allocator@V?$refcounted_value@Vrep_type@?$optimized_key_value@NVass_synth_priv@@Uass_synth_priv_key@@@detail@flyweights@boost@@N@detail@flyweights@boost@@@std@@@detail@multi_index@boost@@@detail@multi_index@boost@@V?$bucket_array@V?$allocator@V?$refcounted_value@Vrep_type@?$optimized_key_value@NVass_synth_priv@@Uass_synth_priv_key@@@detail@flyweights@boost@@N@detail@flyweights@boost@@@std@@@234@@234@ABV?$refcounted_value@Vrep_type@?$optimized_key_value@NVass_synth_priv@@Uass_synth_priv_key@@@detail@flyweights@boost@@N@2flyweights@4@@Z ; boost::multi_index::detail::hashed_index<boost::multi_index::identity<boost::flyweights::detail::refcounted_value<boost::flyweights::detail::optimized_key_value<double,ass_synth_priv,ass_synth_priv_key>::rep_type,double> >,boost::hash<double>,std::equal_to<double>,boost::multi_index::detail::nth_layer<1,boost::flyweights::detail::refcounted_value<boost::flyweights::detail::optimized_key_value<double,ass_synth_priv,ass_synth_priv_key>::rep_type,double>,boost::flyweights::hashed_factory_class<boost::flyweights::detail::refcounted_value<boost::flyweights::detail::optimized_key_value<double,ass_synth_priv,ass_synth_priv_key>::rep_type,double>,double,boost::mpl::na,boost::mpl::na,boost::mpl::na>::index_list,std::allocator<boost::flyweights::detail::refcounted_value<boost::flyweights::detail::optimized_key_value<double,ass_synth_priv,ass_synth_priv_key>::rep_type,double> > >,boost::mpl::vector0<boost::mpl::na>,boost::multi_index::detail::hashed_unique_tag>::iterator_to
PUBLIC	?erase_@?$index_base@V?$refcounted_value@Vrep_type@?$optimized_key_value@NVass_synth_priv@@Uass_synth_priv_key@@@detail@flyweights@boost@@N@detail@flyweights@boost@@Uindex_list@?$hashed_factory_class@V?$refcounted_value@Vrep_type@?$optimized_key_value@NVass_synth_priv@@Uass_synth_priv_key@@@detail@flyweights@boost@@N@detail@flyweights@boost@@NUna@mpl@4@U564@U564@@34@V?$allocator@V?$refcounted_value@Vrep_type@?$optimized_key_value@NVass_synth_priv@@Uass_synth_priv_key@@@detail@flyweights@boost@@N@detail@flyweights@boost@@@std@@@detail@multi_index@boost@@IAEXPAU?$index_node_base@V?$refcounted_value@Vrep_type@?$optimized_key_value@NVass_synth_priv@@Uass_synth_priv_key@@@detail@flyweights@boost@@N@detail@flyweights@boost@@V?$allocator@V?$refcounted_value@Vrep_type@?$optimized_key_value@NVass_synth_priv@@Uass_synth_priv_key@@@detail@flyweights@boost@@N@detail@flyweights@boost@@@std@@@234@@Z ; boost::multi_index::detail::index_base<boost::flyweights::detail::refcounted_value<boost::flyweights::detail::optimized_key_value<double,ass_synth_priv,ass_synth_priv_key>::rep_type,double>,boost::flyweights::hashed_factory_class<boost::flyweights::detail::refcounted_value<boost::flyweights::detail::optimized_key_value<double,ass_synth_priv,ass_synth_priv_key>::rep_type,double>,double,boost::mpl::na,boost::mpl::na,boost::mpl::na>::index_list,std::allocator<boost::flyweights::detail::refcounted_value<boost::flyweights::detail::optimized_key_value<double,ass_synth_priv,ass_synth_priv_key>::rep_type,double> > >::erase_
PUBLIC	?unlink@?$hashed_index@U?$identity@V?$refcounted_value@Vrep_type@?$optimized_key_value@NVass_synth_priv@@Uass_synth_priv_key@@@detail@flyweights@boost@@N@detail@flyweights@boost@@@multi_index@boost@@U?$hash@N@3@U?$equal_to@N@std@@U?$nth_layer@$00V?$refcounted_value@Vrep_type@?$optimized_key_value@NVass_synth_priv@@Uass_synth_priv_key@@@detail@flyweights@boost@@N@detail@flyweights@boost@@Uindex_list@?$hashed_factory_class@V?$refcounted_value@Vrep_type@?$optimized_key_value@NVass_synth_priv@@Uass_synth_priv_key@@@detail@flyweights@boost@@N@detail@flyweights@boost@@NUna@mpl@4@U564@U564@@34@V?$allocator@V?$refcounted_value@Vrep_type@?$optimized_key_value@NVass_synth_priv@@Uass_synth_priv_key@@@detail@flyweights@boost@@N@detail@flyweights@boost@@@std@@@detail@23@U?$vector0@Una@mpl@boost@@@mpl@3@Uhashed_unique_tag@823@@detail@multi_index@boost@@CAXPAU?$hashed_index_node@U?$index_node_base@V?$refcounted_value@Vrep_type@?$optimized_key_value@NVass_synth_priv@@Uass_synth_priv_key@@@detail@flyweights@boost@@N@detail@flyweights@boost@@V?$allocator@V?$refcounted_value@Vrep_type@?$optimized_key_value@NVass_synth_priv@@Uass_synth_priv_key@@@detail@flyweights@boost@@N@detail@flyweights@boost@@@std@@@detail@multi_index@boost@@@234@@Z ; boost::multi_index::detail::hashed_index<boost::multi_index::identity<boost::flyweights::detail::refcounted_value<boost::flyweights::detail::optimized_key_value<double,ass_synth_priv,ass_synth_priv_key>::rep_type,double> >,boost::hash<double>,std::equal_to<double>,boost::multi_index::detail::nth_layer<1,boost::flyweights::detail::refcounted_value<boost::flyweights::detail::optimized_key_value<double,ass_synth_priv,ass_synth_priv_key>::rep_type,double>,boost::flyweights::hashed_factory_class<boost::flyweights::detail::refcounted_value<boost::flyweights::detail::optimized_key_value<double,ass_synth_priv,ass_synth_priv_key>::rep_type,double>,double,boost::mpl::na,boost::mpl::na,boost::mpl::na>::index_list,std::allocator<boost::flyweights::detail::refcounted_value<boost::flyweights::detail::optimized_key_value<double,ass_synth_priv,ass_synth_priv_key>::rep_type,double> > >,boost::mpl::vector0<boost::mpl::na>,boost::multi_index::detail::hashed_unique_tag>::unlink
PUBLIC	?at@?$bucket_array@V?$allocator@V?$refcounted_value@Vrep_type@?$optimized_key_value@NVass_synth_priv@@Uass_synth_priv_key@@@detail@flyweights@boost@@N@detail@flyweights@boost@@@std@@@detail@multi_index@boost@@QBEPAU?$hashed_index_node_impl@V?$allocator@D@std@@@234@I@Z ; boost::multi_index::detail::bucket_array<std::allocator<boost::flyweights::detail::refcounted_value<boost::flyweights::detail::optimized_key_value<double,ass_synth_priv,ass_synth_priv_key>::rep_type,double> > >::at
PUBLIC	?first_nonempty@?$bucket_array@V?$allocator@V?$refcounted_value@Vrep_type@?$optimized_key_value@NVass_synth_priv@@Uass_synth_priv_key@@@detail@flyweights@boost@@N@detail@flyweights@boost@@@std@@@detail@multi_index@boost@@QBEII@Z ; boost::multi_index::detail::bucket_array<std::allocator<boost::flyweights::detail::refcounted_value<boost::flyweights::detail::optimized_key_value<double,ass_synth_priv,ass_synth_priv_key>::rep_type,double> > >::first_nonempty
PUBLIC	?erase_@?$hashed_index@U?$identity@V?$refcounted_value@Vrep_type@?$optimized_key_value@NVass_synth_priv@@Uass_synth_priv_key@@@detail@flyweights@boost@@N@detail@flyweights@boost@@@multi_index@boost@@U?$hash@N@3@U?$equal_to@N@std@@U?$nth_layer@$00V?$refcounted_value@Vrep_type@?$optimized_key_value@NVass_synth_priv@@Uass_synth_priv_key@@@detail@flyweights@boost@@N@detail@flyweights@boost@@Uindex_list@?$hashed_factory_class@V?$refcounted_value@Vrep_type@?$optimized_key_value@NVass_synth_priv@@Uass_synth_priv_key@@@detail@flyweights@boost@@N@detail@flyweights@boost@@NUna@mpl@4@U564@U564@@34@V?$allocator@V?$refcounted_value@Vrep_type@?$optimized_key_value@NVass_synth_priv@@Uass_synth_priv_key@@@detail@flyweights@boost@@N@detail@flyweights@boost@@@std@@@detail@23@U?$vector0@Una@mpl@boost@@@mpl@3@Uhashed_unique_tag@823@@detail@multi_index@boost@@IAEXPAU?$hashed_index_node@U?$index_node_base@V?$refcounted_value@Vrep_type@?$optimized_key_value@NVass_synth_priv@@Uass_synth_priv_key@@@detail@flyweights@boost@@N@detail@flyweights@boost@@V?$allocator@V?$refcounted_value@Vrep_type@?$optimized_key_value@NVass_synth_priv@@Uass_synth_priv_key@@@detail@flyweights@boost@@N@detail@flyweights@boost@@@std@@@detail@multi_index@boost@@@234@@Z ; boost::multi_index::detail::hashed_index<boost::multi_index::identity<boost::flyweights::detail::refcounted_value<boost::flyweights::detail::optimized_key_value<double,ass_synth_priv,ass_synth_priv_key>::rep_type,double> >,boost::hash<double>,std::equal_to<double>,boost::multi_index::detail::nth_layer<1,boost::flyweights::detail::refcounted_value<boost::flyweights::detail::optimized_key_value<double,ass_synth_priv,ass_synth_priv_key>::rep_type,double>,boost::flyweights::hashed_factory_class<boost::flyweights::detail::refcounted_value<boost::flyweights::detail::optimized_key_value<double,ass_synth_priv,ass_synth_priv_key>::rep_type,double>,double,boost::mpl::na,boost::mpl::na,boost::mpl::na>::index_list,std::allocator<boost::flyweights::detail::refcounted_value<boost::flyweights::detail::optimized_key_value<double,ass_synth_priv,ass_synth_priv_key>::rep_type,double> > >,boost::mpl::vector0<boost::mpl::na>,boost::multi_index::detail::hashed_unique_tag>::erase_
PUBLIC	?erase_@?$multi_index_container@V?$refcounted_value@Vrep_type@?$optimized_key_value@NVass_synth_priv@@Uass_synth_priv_key@@@detail@flyweights@boost@@N@detail@flyweights@boost@@Uindex_list@?$hashed_factory_class@V?$refcounted_value@Vrep_type@?$optimized_key_value@NVass_synth_priv@@Uass_synth_priv_key@@@detail@flyweights@boost@@N@detail@flyweights@boost@@NUna@mpl@4@U564@U564@@34@V?$allocator@V?$refcounted_value@Vrep_type@?$optimized_key_value@NVass_synth_priv@@Uass_synth_priv_key@@@detail@flyweights@boost@@N@detail@flyweights@boost@@@std@@@multi_index@boost@@IAEXPAU?$hashed_index_node@U?$index_node_base@V?$refcounted_value@Vrep_type@?$optimized_key_value@NVass_synth_priv@@Uass_synth_priv_key@@@detail@flyweights@boost@@N@detail@flyweights@boost@@V?$allocator@V?$refcounted_value@Vrep_type@?$optimized_key_value@NVass_synth_priv@@Uass_synth_priv_key@@@detail@flyweights@boost@@N@detail@flyweights@boost@@@std@@@detail@multi_index@boost@@@detail@23@@Z ; boost::multi_index::multi_index_container<boost::flyweights::detail::refcounted_value<boost::flyweights::detail::optimized_key_value<double,ass_synth_priv,ass_synth_priv_key>::rep_type,double>,boost::flyweights::hashed_factory_class<boost::flyweights::detail::refcounted_value<boost::flyweights::detail::optimized_key_value<double,ass_synth_priv,ass_synth_priv_key>::rep_type,double>,double,boost::mpl::na,boost::mpl::na,boost::mpl::na>::index_list,std::allocator<boost::flyweights::detail::refcounted_value<boost::flyweights::detail::optimized_key_value<double,ass_synth_priv,ass_synth_priv_key>::rep_type,double> > >::erase_
PUBLIC	?final_erase_@?$index_base@V?$refcounted_value@Vrep_type@?$optimized_key_value@NVass_synth_priv@@Uass_synth_priv_key@@@detail@flyweights@boost@@N@detail@flyweights@boost@@Uindex_list@?$hashed_factory_class@V?$refcounted_value@Vrep_type@?$optimized_key_value@NVass_synth_priv@@Uass_synth_priv_key@@@detail@flyweights@boost@@N@detail@flyweights@boost@@NUna@mpl@4@U564@U564@@34@V?$allocator@V?$refcounted_value@Vrep_type@?$optimized_key_value@NVass_synth_priv@@Uass_synth_priv_key@@@detail@flyweights@boost@@N@detail@flyweights@boost@@@std@@@detail@multi_index@boost@@IAEXPAU?$hashed_index_node@U?$index_node_base@V?$refcounted_value@Vrep_type@?$optimized_key_value@NVass_synth_priv@@Uass_synth_priv_key@@@detail@flyweights@boost@@N@detail@flyweights@boost@@V?$allocator@V?$refcounted_value@Vrep_type@?$optimized_key_value@NVass_synth_priv@@Uass_synth_priv_key@@@detail@flyweights@boost@@N@detail@flyweights@boost@@@std@@@detail@multi_index@boost@@@234@@Z ; boost::multi_index::detail::index_base<boost::flyweights::detail::refcounted_value<boost::flyweights::detail::optimized_key_value<double,ass_synth_priv,ass_synth_priv_key>::rep_type,double>,boost::flyweights::hashed_factory_class<boost::flyweights::detail::refcounted_value<boost::flyweights::detail::optimized_key_value<double,ass_synth_priv,ass_synth_priv_key>::rep_type,double>,double,boost::mpl::na,boost::mpl::na,boost::mpl::na>::index_list,std::allocator<boost::flyweights::detail::refcounted_value<boost::flyweights::detail::optimized_key_value<double,ass_synth_priv,ass_synth_priv_key>::rep_type,double> > >::final_erase_
PUBLIC	?increment@?$hashed_index_node@U?$index_node_base@V?$refcounted_value@Vrep_type@?$optimized_key_value@NVass_synth_priv@@Uass_synth_priv_key@@@detail@flyweights@boost@@N@detail@flyweights@boost@@V?$allocator@V?$refcounted_value@Vrep_type@?$optimized_key_value@NVass_synth_priv@@Uass_synth_priv_key@@@detail@flyweights@boost@@N@detail@flyweights@boost@@@std@@@detail@multi_index@boost@@@detail@multi_index@boost@@SAXAAPAU1234@PAU?$hashed_index_node_impl@V?$allocator@D@std@@@234@1@Z ; boost::multi_index::detail::hashed_index_node<boost::multi_index::detail::index_node_base<boost::flyweights::detail::refcounted_value<boost::flyweights::detail::optimized_key_value<double,ass_synth_priv,ass_synth_priv_key>::rep_type,double>,std::allocator<boost::flyweights::detail::refcounted_value<boost::flyweights::detail::optimized_key_value<double,ass_synth_priv,ass_synth_priv_key>::rep_type,double> > > >::increment
PUBLIC	??E?$hashed_index_iterator@U?$hashed_index_node@U?$index_node_base@V?$refcounted_value@Vrep_type@?$optimized_key_value@NVass_synth_priv@@Uass_synth_priv_key@@@detail@flyweights@boost@@N@detail@flyweights@boost@@V?$allocator@V?$refcounted_value@Vrep_type@?$optimized_key_value@NVass_synth_priv@@Uass_synth_priv_key@@@detail@flyweights@boost@@N@detail@flyweights@boost@@@std@@@detail@multi_index@boost@@@detail@multi_index@boost@@V?$bucket_array@V?$allocator@V?$refcounted_value@Vrep_type@?$optimized_key_value@NVass_synth_priv@@Uass_synth_priv_key@@@detail@flyweights@boost@@N@detail@flyweights@boost@@@std@@@234@@detail@multi_index@boost@@QAEAAV0123@XZ ; boost::multi_index::detail::hashed_index_iterator<boost::multi_index::detail::hashed_index_node<boost::multi_index::detail::index_node_base<boost::flyweights::detail::refcounted_value<boost::flyweights::detail::optimized_key_value<double,ass_synth_priv,ass_synth_priv_key>::rep_type,double>,std::allocator<boost::flyweights::detail::refcounted_value<boost::flyweights::detail::optimized_key_value<double,ass_synth_priv,ass_synth_priv_key>::rep_type,double> > > >,boost::multi_index::detail::bucket_array<std::allocator<boost::flyweights::detail::refcounted_value<boost::flyweights::detail::optimized_key_value<double,ass_synth_priv,ass_synth_priv_key>::rep_type,double> > > >::operator++
PUBLIC	??Eboost@@YA?AV?$hashed_index_iterator@U?$hashed_index_node@U?$index_node_base@V?$refcounted_value@Vrep_type@?$optimized_key_value@NVass_synth_priv@@Uass_synth_priv_key@@@detail@flyweights@boost@@N@detail@flyweights@boost@@V?$allocator@V?$refcounted_value@Vrep_type@?$optimized_key_value@NVass_synth_priv@@Uass_synth_priv_key@@@detail@flyweights@boost@@N@detail@flyweights@boost@@@std@@@detail@multi_index@boost@@@detail@multi_index@boost@@V?$bucket_array@V?$allocator@V?$refcounted_value@Vrep_type@?$optimized_key_value@NVass_synth_priv@@Uass_synth_priv_key@@@detail@flyweights@boost@@N@detail@flyweights@boost@@@std@@@234@@detail@multi_index@0@AAV1230@H@Z ; boost::operator++
PUBLIC	?get_node@?$hashed_index_iterator@U?$hashed_index_node@U?$index_node_base@V?$refcounted_value@Vrep_type@?$optimized_key_value@NVass_synth_priv@@Uass_synth_priv_key@@@detail@flyweights@boost@@N@detail@flyweights@boost@@V?$allocator@V?$refcounted_value@Vrep_type@?$optimized_key_value@NVass_synth_priv@@Uass_synth_priv_key@@@detail@flyweights@boost@@N@detail@flyweights@boost@@@std@@@detail@multi_index@boost@@@detail@multi_index@boost@@V?$bucket_array@V?$allocator@V?$refcounted_value@Vrep_type@?$optimized_key_value@NVass_synth_priv@@Uass_synth_priv_key@@@detail@flyweights@boost@@N@detail@flyweights@boost@@@std@@@234@@detail@multi_index@boost@@QBEPAU?$hashed_index_node@U?$index_node_base@V?$refcounted_value@Vrep_type@?$optimized_key_value@NVass_synth_priv@@Uass_synth_priv_key@@@detail@flyweights@boost@@N@detail@flyweights@boost@@V?$allocator@V?$refcounted_value@Vrep_type@?$optimized_key_value@NVass_synth_priv@@Uass_synth_priv_key@@@detail@flyweights@boost@@N@detail@flyweights@boost@@@std@@@detail@multi_index@boost@@@234@XZ ; boost::multi_index::detail::hashed_index_iterator<boost::multi_index::detail::hashed_index_node<boost::multi_index::detail::index_node_base<boost::flyweights::detail::refcounted_value<boost::flyweights::detail::optimized_key_value<double,ass_synth_priv,ass_synth_priv_key>::rep_type,double>,std::allocator<boost::flyweights::detail::refcounted_value<boost::flyweights::detail::optimized_key_value<double,ass_synth_priv,ass_synth_priv_key>::rep_type,double> > > >,boost::multi_index::detail::bucket_array<std::allocator<boost::flyweights::detail::refcounted_value<boost::flyweights::detail::optimized_key_value<double,ass_synth_priv,ass_synth_priv_key>::rep_type,double> > > >::get_node
PUBLIC	?erase@?$hashed_index@U?$identity@V?$refcounted_value@Vrep_type@?$optimized_key_value@NVass_synth_priv@@Uass_synth_priv_key@@@detail@flyweights@boost@@N@detail@flyweights@boost@@@multi_index@boost@@U?$hash@N@3@U?$equal_to@N@std@@U?$nth_layer@$00V?$refcounted_value@Vrep_type@?$optimized_key_value@NVass_synth_priv@@Uass_synth_priv_key@@@detail@flyweights@boost@@N@detail@flyweights@boost@@Uindex_list@?$hashed_factory_class@V?$refcounted_value@Vrep_type@?$optimized_key_value@NVass_synth_priv@@Uass_synth_priv_key@@@detail@flyweights@boost@@N@detail@flyweights@boost@@NUna@mpl@4@U564@U564@@34@V?$allocator@V?$refcounted_value@Vrep_type@?$optimized_key_value@NVass_synth_priv@@Uass_synth_priv_key@@@detail@flyweights@boost@@N@detail@flyweights@boost@@@std@@@detail@23@U?$vector0@Una@mpl@boost@@@mpl@3@Uhashed_unique_tag@823@@detail@multi_index@boost@@QAE?AV?$hashed_index_iterator@U?$hashed_index_node@U?$index_node_base@V?$refcounted_value@Vrep_type@?$optimized_key_value@NVass_synth_priv@@Uass_synth_priv_key@@@detail@flyweights@boost@@N@detail@flyweights@boost@@V?$allocator@V?$refcounted_value@Vrep_type@?$optimized_key_value@NVass_synth_priv@@Uass_synth_priv_key@@@detail@flyweights@boost@@N@detail@flyweights@boost@@@std@@@detail@multi_index@boost@@@detail@multi_index@boost@@V?$bucket_array@V?$allocator@V?$refcounted_value@Vrep_type@?$optimized_key_value@NVass_synth_priv@@Uass_synth_priv_key@@@detail@flyweights@boost@@N@detail@flyweights@boost@@@std@@@234@@234@V5234@@Z ; boost::multi_index::detail::hashed_index<boost::multi_index::identity<boost::flyweights::detail::refcounted_value<boost::flyweights::detail::optimized_key_value<double,ass_synth_priv,ass_synth_priv_key>::rep_type,double> >,boost::hash<double>,std::equal_to<double>,boost::multi_index::detail::nth_layer<1,boost::flyweights::detail::refcounted_value<boost::flyweights::detail::optimized_key_value<double,ass_synth_priv,ass_synth_priv_key>::rep_type,double>,boost::flyweights::hashed_factory_class<boost::flyweights::detail::refcounted_value<boost::flyweights::detail::optimized_key_value<double,ass_synth_priv,ass_synth_priv_key>::rep_type,double>,double,boost::mpl::na,boost::mpl::na,boost::mpl::na>::index_list,std::allocator<boost::flyweights::detail::refcounted_value<boost::flyweights::detail::optimized_key_value<double,ass_synth_priv,ass_synth_priv_key>::rep_type,double> > >,boost::mpl::vector0<boost::mpl::na>,boost::multi_index::detail::hashed_unique_tag>::erase
PUBLIC	?erase@?$hashed_factory_class@V?$refcounted_value@Vrep_type@?$optimized_key_value@NVass_synth_priv@@Uass_synth_priv_key@@@detail@flyweights@boost@@N@detail@flyweights@boost@@NUna@mpl@4@U564@U564@@flyweights@boost@@QAEXPBV?$refcounted_value@Vrep_type@?$optimized_key_value@NVass_synth_priv@@Uass_synth_priv_key@@@detail@flyweights@boost@@N@detail@23@@Z ; boost::flyweights::hashed_factory_class<boost::flyweights::detail::refcounted_value<boost::flyweights::detail::optimized_key_value<double,ass_synth_priv,ass_synth_priv_key>::rep_type,double>,double,boost::mpl::na,boost::mpl::na,boost::mpl::na>::erase
PUBLIC	?factory@?$flyweight_core@U?$key_value@NVass_synth_priv@@Uass_synth_priv_key@@@flyweights@boost@@Una@mpl@3@Urefcounted@23@U?$hashed_factory@Una@mpl@boost@@U123@U123@$0A@@23@Uno_locking@23@Ustatic_holder@23@@detail@flyweights@boost@@SAAAV?$hashed_factory_class@V?$refcounted_value@Vrep_type@?$optimized_key_value@NVass_synth_priv@@Uass_synth_priv_key@@@detail@flyweights@boost@@N@detail@flyweights@boost@@NUna@mpl@4@U564@U564@@34@XZ ; boost::flyweights::detail::flyweight_core<boost::flyweights::key_value<double,ass_synth_priv,ass_synth_priv_key>,boost::mpl::na,boost::flyweights::refcounted,boost::flyweights::hashed_factory<boost::mpl::na,boost::mpl::na,boost::mpl::na,0>,boost::flyweights::no_locking,boost::flyweights::static_holder>::factory
PUBLIC	?mutex@?$flyweight_core@U?$key_value@NVass_synth_priv@@Uass_synth_priv_key@@@flyweights@boost@@Una@mpl@3@Urefcounted@23@U?$hashed_factory@Una@mpl@boost@@U123@U123@$0A@@23@Uno_locking@23@Ustatic_holder@23@@detail@flyweights@boost@@SAAAUmutex_type@no_locking@34@XZ ; boost::flyweights::detail::flyweight_core<boost::flyweights::key_value<double,ass_synth_priv,ass_synth_priv_key>,boost::mpl::na,boost::flyweights::refcounted,boost::flyweights::hashed_factory<boost::mpl::na,boost::mpl::na,boost::mpl::na,0>,boost::flyweights::no_locking,boost::flyweights::static_holder>::mutex
PUBLIC	??B?$refcounted_handle@PBV?$refcounted_value@Vrep_type@?$optimized_key_value@NVass_synth_priv@@Uass_synth_priv_key@@@detail@flyweights@boost@@N@detail@flyweights@boost@@U?$flyweight_core_tracking_helper@U?$key_value@NVass_synth_priv@@Uass_synth_priv_key@@@flyweights@boost@@Una@mpl@3@Urefcounted@23@U?$hashed_factory@Una@mpl@boost@@U123@U123@$0A@@23@Uno_locking@23@Ustatic_holder@23@@234@@detail@flyweights@boost@@QBEABQBV?$refcounted_value@Vrep_type@?$optimized_key_value@NVass_synth_priv@@Uass_synth_priv_key@@@detail@flyweights@boost@@N@123@XZ ; boost::flyweights::detail::refcounted_handle<boost::flyweights::detail::refcounted_value<boost::flyweights::detail::optimized_key_value<double,ass_synth_priv,ass_synth_priv_key>::rep_type,double> const *,boost::flyweights::detail::flyweight_core_tracking_helper<boost::flyweights::key_value<double,ass_synth_priv,ass_synth_priv_key>,boost::mpl::na,boost::flyweights::refcounted,boost::flyweights::hashed_factory<boost::mpl::na,boost::mpl::na,boost::mpl::na,0>,boost::flyweights::no_locking,boost::flyweights::static_holder> >::operator boost::flyweights::detail::refcounted_value<boost::flyweights::detail::optimized_key_value<double,ass_synth_priv,ass_synth_priv_key>::rep_type,double> const * const &
PUBLIC	??$erase@P6A_NABV?$refcounted_handle@PBV?$refcounted_value@Vrep_type@?$optimized_key_value@NVass_synth_priv@@Uass_synth_priv_key@@@detail@flyweights@boost@@N@detail@flyweights@boost@@U?$flyweight_core_tracking_helper@U?$key_value@NVass_synth_priv@@Uass_synth_priv_key@@@flyweights@boost@@Una@mpl@3@Urefcounted@23@U?$hashed_factory@Una@mpl@boost@@U123@U123@$0A@@23@Uno_locking@23@Ustatic_holder@23@@234@@detail@flyweights@boost@@@Z@?$flyweight_core_tracking_helper@U?$key_value@NVass_synth_priv@@Uass_synth_priv_key@@@flyweights@boost@@Una@mpl@3@Urefcounted@23@U?$hashed_factory@Una@mpl@boost@@U123@U123@$0A@@23@Uno_locking@23@Ustatic_holder@23@@detail@flyweights@boost@@SAXABV?$refcounted_handle@PBV?$refcounted_value@Vrep_type@?$optimized_key_value@NVass_synth_priv@@Uass_synth_priv_key@@@detail@flyweights@boost@@N@detail@flyweights@boost@@U?$flyweight_core_tracking_helper@U?$key_value@NVass_synth_priv@@Uass_synth_priv_key@@@flyweights@boost@@Una@mpl@3@Urefcounted@23@U?$hashed_factory@Una@mpl@boost@@U123@U123@$0A@@23@Uno_locking@23@Ustatic_holder@23@@234@@123@P6A_N0@Z@Z ; boost::flyweights::detail::flyweight_core_tracking_helper<boost::flyweights::key_value<double,ass_synth_priv,ass_synth_priv_key>,boost::mpl::na,boost::flyweights::refcounted,boost::flyweights::hashed_factory<boost::mpl::na,boost::mpl::na,boost::mpl::na,0>,boost::flyweights::no_locking,boost::flyweights::static_holder>::erase<bool (__cdecl*)(boost::flyweights::detail::refcounted_handle<boost::flyweights::detail::refcounted_value<boost::flyweights::detail::optimized_key_value<double,ass_synth_priv,ass_synth_priv_key>::rep_type,double> const *,boost::flyweights::detail::flyweight_core_tracking_helper<boost::flyweights::key_value<double,ass_synth_priv,ass_synth_priv_key>,boost::mpl::na,boost::flyweights::refcounted,boost::flyweights::hashed_factory<boost::mpl::na,boost::mpl::na,boost::mpl::na,0>,boost::flyweights::no_locking,boost::flyweights::static_holder> > const &)>
PUBLIC	??1?$refcounted_handle@PBV?$refcounted_value@Vrep_type@?$optimized_key_value@NVass_synth_priv@@Uass_synth_priv_key@@@detail@flyweights@boost@@N@detail@flyweights@boost@@U?$flyweight_core_tracking_helper@U?$key_value@NVass_synth_priv@@Uass_synth_priv_key@@@flyweights@boost@@Una@mpl@3@Urefcounted@23@U?$hashed_factory@Una@mpl@boost@@U123@U123@$0A@@23@Uno_locking@23@Ustatic_holder@23@@234@@detail@flyweights@boost@@QAE@XZ ; boost::flyweights::detail::refcounted_handle<boost::flyweights::detail::refcounted_value<boost::flyweights::detail::optimized_key_value<double,ass_synth_priv,ass_synth_priv_key>::rep_type,double> const *,boost::flyweights::detail::flyweight_core_tracking_helper<boost::flyweights::key_value<double,ass_synth_priv,ass_synth_priv_key>,boost::mpl::na,boost::flyweights::refcounted,boost::flyweights::hashed_factory<boost::mpl::na,boost::mpl::na,boost::mpl::na,0>,boost::flyweights::no_locking,boost::flyweights::static_holder> >::~refcounted_handle<boost::flyweights::detail::refcounted_value<boost::flyweights::detail::optimized_key_value<double,ass_synth_priv,ass_synth_priv_key>::rep_type,double> const *,boost::flyweights::detail::flyweight_core_tracking_helper<boost::flyweights::key_value<double,ass_synth_priv,ass_synth_priv_key>,boost::mpl::na,boost::flyweights::refcounted,boost::flyweights::hashed_factory<boost::mpl::na,boost::mpl::na,boost::mpl::na,0>,boost::flyweights::no_locking,boost::flyweights::static_holder> >
PUBLIC	??$?0N@rep_type@?$optimized_key_value@NVass_synth_priv@@Uass_synth_priv_key@@@detail@flyweights@boost@@QAE@AAN@Z ; boost::flyweights::detail::optimized_key_value<double,ass_synth_priv,ass_synth_priv_key>::rep_type::rep_type<double>
PUBLIC	??$insert@N@?$flyweight_core@U?$key_value@NVass_synth_priv@@Uass_synth_priv_key@@@flyweights@boost@@Una@mpl@3@Urefcounted@23@U?$hashed_factory@Una@mpl@boost@@U123@U123@$0A@@23@Uno_locking@23@Ustatic_holder@23@@detail@flyweights@boost@@SA?AV?$refcounted_handle@PBV?$refcounted_value@Vrep_type@?$optimized_key_value@NVass_synth_priv@@Uass_synth_priv_key@@@detail@flyweights@boost@@N@detail@flyweights@boost@@U?$flyweight_core_tracking_helper@U?$key_value@NVass_synth_priv@@Uass_synth_priv_key@@@flyweights@boost@@Una@mpl@3@Urefcounted@23@U?$hashed_factory@Una@mpl@boost@@U123@U123@$0A@@23@Uno_locking@23@Ustatic_holder@23@@234@@123@AAN@Z ; boost::flyweights::detail::flyweight_core<boost::flyweights::key_value<double,ass_synth_priv,ass_synth_priv_key>,boost::mpl::na,boost::flyweights::refcounted,boost::flyweights::hashed_factory<boost::mpl::na,boost::mpl::na,boost::mpl::na,0>,boost::flyweights::no_locking,boost::flyweights::static_holder>::insert<double>
PUBLIC	??$?0N@?$flyweight@U?$key_value@NVass_synth_priv@@Uass_synth_priv_key@@@flyweights@boost@@Uno_locking@23@Uvoid_@parameter@3@U563@U563@U563@@flyweights@boost@@QAE@AAN@Z ; boost::flyweights::flyweight<boost::flyweights::key_value<double,ass_synth_priv,ass_synth_priv_key>,boost::flyweights::no_locking,boost::parameter::void_,boost::parameter::void_,boost::parameter::void_,boost::parameter::void_>::flyweight<boost::flyweights::key_value<double,ass_synth_priv,ass_synth_priv_key>,boost::flyweights::no_locking,boost::parameter::void_,boost::parameter::void_,boost::parameter::void_,boost::parameter::void_><double>
PUBLIC	??0?$shared_ptr@E@boost@@QAE@$$QAV01@@Z		; boost::shared_ptr<unsigned char>::shared_ptr<unsigned char>
PUBLIC	??B?$shared_ptr@E@boost@@QBEPQ01@PAEXZ		; boost::shared_ptr<unsigned char>::operator unsigned char * boost::shared_ptr<unsigned char>::*
PUBLIC	??7?$shared_ptr@E@boost@@QBE_NXZ		; boost::shared_ptr<unsigned char>::operator!
PUBLIC	??_GScanLineData@@UAEPAXI@Z			; ScanLineData::`scalar deleting destructor'
PUBLIC	??0CPoint@@QAE@UtagPOINT@@@Z			; CPoint::CPoint
PUBLIC	??9CPoint@@QBEHUtagPOINT@@@Z			; CPoint::operator!=
PUBLIC	??0?$vector@HV?$allocator@H@std@@@std@@QAE@XZ	; std::vector<int,std::allocator<int> >::vector<int,std::allocator<int> >
PUBLIC	?_Inside@?$vector@HV?$allocator@H@std@@@std@@IBE_NPBH@Z ; std::vector<int,std::allocator<int> >::_Inside
PUBLIC	?_Orphan_range@?$vector@HV?$allocator@H@std@@@std@@IBEXPAH0@Z ; std::vector<int,std::allocator<int> >::_Orphan_range
PUBLIC	??$addressof@$$CBH@std@@YAPBHABH@Z		; std::addressof<int const >
PUBLIC	??$forward@AAH@std@@YAAAHAAH@Z			; std::forward<int &>
PUBLIC	??$construct@AAH@?$allocator@H@std@@QAEXPAHAAH@Z ; std::allocator<int>::construct<int &>
PUBLIC	??$_Cons_val@V?$allocator@H@std@@HAAH@std@@YAXAAV?$allocator@H@0@PAHAAH@Z ; std::_Cons_val<std::allocator<int>,int,int &>
PUBLIC	??$_Construct@HABH@std@@YAXPAHABH@Z		; std::_Construct<int,int const &>
PUBLIC	?construct@?$allocator@H@std@@QAEXPAHABH@Z	; std::allocator<int>::construct
PUBLIC	??$forward@ABH@std@@YAABHABH@Z			; std::forward<int const &>
PUBLIC	??$_Cons_val@V?$allocator@H@std@@HABH@std@@YAXAAV?$allocator@H@0@PAHABH@Z ; std::_Cons_val<std::allocator<int>,int,int const &>
PUBLIC	?push_back@?$vector@HV?$allocator@H@std@@@std@@QAEXABH@Z ; std::vector<int,std::allocator<int> >::push_back
PUBLIC	?clear@?$vector@HV?$allocator@H@std@@@std@@QAEXXZ ; std::vector<int,std::allocator<int> >::clear
PUBLIC	??D?$_Vector_const_iterator@V?$_Vector_val@HV?$allocator@H@std@@@std@@@std@@QBEABHXZ ; std::_Vector_const_iterator<std::_Vector_val<int,std::allocator<int> > >::operator*
PUBLIC	??D?$_Vector_iterator@V?$_Vector_val@HV?$allocator@H@std@@@std@@@std@@QBEAAHXZ ; std::_Vector_iterator<std::_Vector_val<int,std::allocator<int> > >::operator*
PUBLIC	??E?$_Vector_const_iterator@V?$_Vector_val@HV?$allocator@H@std@@@std@@@std@@QAEAAV01@XZ ; std::_Vector_const_iterator<std::_Vector_val<int,std::allocator<int> > >::operator++
PUBLIC	??E?$_Vector_iterator@V?$_Vector_val@HV?$allocator@H@std@@@std@@@std@@QAEAAV01@XZ ; std::_Vector_iterator<std::_Vector_val<int,std::allocator<int> > >::operator++
PUBLIC	??0?$_Pair_base@_J_J@std@@QAE@$$QA_J0@Z		; std::_Pair_base<__int64,__int64>::_Pair_base<__int64,__int64>
PUBLIC	??$move@AA_J@std@@YA$$QA_JAA_J@Z		; std::move<__int64 &>
PUBLIC	??0?$pair@_J_J@std@@QAE@$$QA_J0@Z		; std::pair<__int64,__int64>::pair<__int64,__int64>
PUBLIC	??$forward@_J@std@@YA$$QA_JAA_J@Z		; std::forward<__int64>
PUBLIC	??$?0_J_J@?$_Pair_base@_K_K@std@@QAE@$$QA_J0@Z	; std::_Pair_base<unsigned __int64,unsigned __int64>::_Pair_base<unsigned __int64,unsigned __int64><__int64,__int64>
PUBLIC	??$?0_J_J@?$pair@_K_K@std@@QAE@$$QAU?$pair@_J_J@1@@Z ; std::pair<unsigned __int64,unsigned __int64>::pair<unsigned __int64,unsigned __int64><__int64,__int64>
PUBLIC	?begin@?$vector@U?$pair@_K_K@std@@V?$allocator@U?$pair@_K_K@std@@@2@@std@@QBE?AV?$_Vector_const_iterator@V?$_Vector_val@U?$pair@_K_K@std@@V?$allocator@U?$pair@_K_K@std@@@2@@std@@@2@XZ ; std::vector<std::pair<unsigned __int64,unsigned __int64>,std::allocator<std::pair<unsigned __int64,unsigned __int64> > >::begin
PUBLIC	?end@?$vector@U?$pair@_K_K@std@@V?$allocator@U?$pair@_K_K@std@@@2@@std@@QBE?AV?$_Vector_const_iterator@V?$_Vector_val@U?$pair@_K_K@std@@V?$allocator@U?$pair@_K_K@std@@@2@@std@@@2@XZ ; std::vector<std::pair<unsigned __int64,unsigned __int64>,std::allocator<std::pair<unsigned __int64,unsigned __int64> > >::end
PUBLIC	??$addressof@$$CBU?$pair@_K_K@std@@@std@@YAPBU?$pair@_K_K@0@ABU10@@Z ; std::addressof<std::pair<unsigned __int64,unsigned __int64> const >
PUBLIC	??$?0_K_K@?$pair@_K_K@std@@QAE@AAU01@@Z		; std::pair<unsigned __int64,unsigned __int64>::pair<unsigned __int64,unsigned __int64><unsigned __int64,unsigned __int64>
PUBLIC	??$forward@AAU?$pair@_K_K@std@@@std@@YAAAU?$pair@_K_K@0@AAU10@@Z ; std::forward<std::pair<unsigned __int64,unsigned __int64> &>
PUBLIC	??$construct@AAU?$pair@_K_K@std@@@?$allocator@U?$pair@_K_K@std@@@std@@QAEXPAU?$pair@_K_K@1@AAU21@@Z ; std::allocator<std::pair<unsigned __int64,unsigned __int64> >::construct<std::pair<unsigned __int64,unsigned __int64> &>
PUBLIC	??$_Cons_val@V?$allocator@U?$pair@_K_K@std@@@std@@U?$pair@_K_K@2@AAU32@@std@@YAXAAV?$allocator@U?$pair@_K_K@std@@@0@PAU?$pair@_K_K@0@AAU20@@Z ; std::_Cons_val<std::allocator<std::pair<unsigned __int64,unsigned __int64> >,std::pair<unsigned __int64,unsigned __int64>,std::pair<unsigned __int64,unsigned __int64> &>
PUBLIC	??0?$_Pair_base@_K_K@std@@QAE@ABU01@@Z		; std::_Pair_base<unsigned __int64,unsigned __int64>::_Pair_base<unsigned __int64,unsigned __int64>
PUBLIC	??0?$pair@_K_K@std@@QAE@ABU01@@Z		; std::pair<unsigned __int64,unsigned __int64>::pair<unsigned __int64,unsigned __int64>
PUBLIC	??$_Construct@U?$pair@_K_K@std@@ABU12@@std@@YAXPAU?$pair@_K_K@0@ABU10@@Z ; std::_Construct<std::pair<unsigned __int64,unsigned __int64>,std::pair<unsigned __int64,unsigned __int64> const &>
PUBLIC	?construct@?$allocator@U?$pair@_K_K@std@@@std@@QAEXPAU?$pair@_K_K@2@ABU32@@Z ; std::allocator<std::pair<unsigned __int64,unsigned __int64> >::construct
PUBLIC	??$forward@ABU?$pair@_K_K@std@@@std@@YAABU?$pair@_K_K@0@ABU10@@Z ; std::forward<std::pair<unsigned __int64,unsigned __int64> const &>
PUBLIC	??$_Cons_val@V?$allocator@U?$pair@_K_K@std@@@std@@U?$pair@_K_K@2@ABU32@@std@@YAXAAV?$allocator@U?$pair@_K_K@std@@@0@PAU?$pair@_K_K@0@ABU20@@Z ; std::_Cons_val<std::allocator<std::pair<unsigned __int64,unsigned __int64> >,std::pair<unsigned __int64,unsigned __int64>,std::pair<unsigned __int64,unsigned __int64> const &>
PUBLIC	?push_back@?$vector@U?$pair@_K_K@std@@V?$allocator@U?$pair@_K_K@std@@@2@@std@@QAEXABU?$pair@_K_K@2@@Z ; std::vector<std::pair<unsigned __int64,unsigned __int64>,std::allocator<std::pair<unsigned __int64,unsigned __int64> > >::push_back
PUBLIC	??0?$vector@U?$pair@_K_K@std@@V?$allocator@U?$pair@_K_K@std@@@2@@std@@QAE@$$QAV01@@Z ; std::vector<std::pair<unsigned __int64,unsigned __int64>,std::allocator<std::pair<unsigned __int64,unsigned __int64> > >::vector<std::pair<unsigned __int64,unsigned __int64>,std::allocator<std::pair<unsigned __int64,unsigned __int64> > >
PUBLIC	?_Swap_all@_Container_base0@std@@QAEXAAU12@@Z	; std::_Container_base0::_Swap_all
PUBLIC	?_Inside@?$vector@U?$pair@_K_K@std@@V?$allocator@U?$pair@_K_K@std@@@2@@std@@IBE_NPBU?$pair@_K_K@2@@Z ; std::vector<std::pair<unsigned __int64,unsigned __int64>,std::allocator<std::pair<unsigned __int64,unsigned __int64> > >::_Inside
PUBLIC	??$_Allocate@U?$pair@_K_K@std@@@std@@YAPAU?$pair@_K_K@0@IPAU10@@Z ; std::_Allocate<std::pair<unsigned __int64,unsigned __int64> >
PUBLIC	?allocate@?$allocator@U?$pair@_K_K@std@@@std@@QAEPAU?$pair@_K_K@2@I@Z ; std::allocator<std::pair<unsigned __int64,unsigned __int64> >::allocate
PUBLIC	??$_Val_type@PAU?$pair@_K_K@std@@@std@@YAPAU?$pair@_K_K@0@PAU10@@Z ; std::_Val_type<std::pair<unsigned __int64,unsigned __int64> *>
PUBLIC	??$_Uninit_move@PAU?$pair@_K_K@std@@PAU12@V?$allocator@U?$pair@_K_K@std@@@2@U12@@std@@YAPAU?$pair@_K_K@0@PAU10@00AAV?$allocator@U?$pair@_K_K@std@@@0@0U_Nonscalar_ptr_iterator_tag@0@@Z ; std::_Uninit_move<std::pair<unsigned __int64,unsigned __int64> *,std::pair<unsigned __int64,unsigned __int64> *,std::allocator<std::pair<unsigned __int64,unsigned __int64> >,std::pair<unsigned __int64,unsigned __int64> >
PUBLIC	??$_Uninitialized_move@PAU?$pair@_K_K@std@@PAU12@V?$allocator@U?$pair@_K_K@std@@@2@@std@@YAPAU?$pair@_K_K@0@PAU10@00AAV?$allocator@U?$pair@_K_K@std@@@0@@Z ; std::_Uninitialized_move<std::pair<unsigned __int64,unsigned __int64> *,std::pair<unsigned __int64,unsigned __int64> *,std::allocator<std::pair<unsigned __int64,unsigned __int64> > >
PUBLIC	??$_Umove@PAU?$pair@_K_K@std@@@?$vector@U?$pair@_K_K@std@@V?$allocator@U?$pair@_K_K@std@@@2@@std@@IAEPAU?$pair@_K_K@1@PAU21@00@Z ; std::vector<std::pair<unsigned __int64,unsigned __int64>,std::allocator<std::pair<unsigned __int64,unsigned __int64> > >::_Umove<std::pair<unsigned __int64,unsigned __int64> *>
PUBLIC	?reserve@?$vector@U?$pair@_K_K@std@@V?$allocator@U?$pair@_K_K@std@@@2@@std@@QAEXI@Z ; std::vector<std::pair<unsigned __int64,unsigned __int64>,std::allocator<std::pair<unsigned __int64,unsigned __int64> > >::reserve
PUBLIC	?size@?$vector@U?$pair@_K_K@std@@V?$allocator@U?$pair@_K_K@std@@@2@@std@@QBEIXZ ; std::vector<std::pair<unsigned __int64,unsigned __int64>,std::allocator<std::pair<unsigned __int64,unsigned __int64> > >::size
PUBLIC	?capacity@?$vector@U?$pair@_K_K@std@@V?$allocator@U?$pair@_K_K@std@@@2@@std@@QBEIXZ ; std::vector<std::pair<unsigned __int64,unsigned __int64>,std::allocator<std::pair<unsigned __int64,unsigned __int64> > >::capacity
PUBLIC	?max_size@?$allocator@U?$pair@_K_K@std@@@std@@QBEIXZ ; std::allocator<std::pair<unsigned __int64,unsigned __int64> >::max_size
PUBLIC	?max_size@?$vector@U?$pair@_K_K@std@@V?$allocator@U?$pair@_K_K@std@@@2@@std@@QBEIXZ ; std::vector<std::pair<unsigned __int64,unsigned __int64>,std::allocator<std::pair<unsigned __int64,unsigned __int64> > >::max_size
PUBLIC	?_Grow_to@?$vector@U?$pair@_K_K@std@@V?$allocator@U?$pair@_K_K@std@@@2@@std@@IBEII@Z ; std::vector<std::pair<unsigned __int64,unsigned __int64>,std::allocator<std::pair<unsigned __int64,unsigned __int64> > >::_Grow_to
PUBLIC	?_Xlen@?$vector@U?$pair@_K_K@std@@V?$allocator@U?$pair@_K_K@std@@@2@@std@@IBEXXZ ; std::vector<std::pair<unsigned __int64,unsigned __int64>,std::allocator<std::pair<unsigned __int64,unsigned __int64> > >::_Xlen
PUBLIC	?_Reserve@?$vector@U?$pair@_K_K@std@@V?$allocator@U?$pair@_K_K@std@@@2@@std@@IAEXI@Z ; std::vector<std::pair<unsigned __int64,unsigned __int64>,std::allocator<std::pair<unsigned __int64,unsigned __int64> > >::_Reserve
PUBLIC	?_Orphan_range@?$vector@U?$pair@_K_K@std@@V?$allocator@U?$pair@_K_K@std@@@2@@std@@IBEXPAU?$pair@_K_K@2@0@Z ; std::vector<std::pair<unsigned __int64,unsigned __int64>,std::allocator<std::pair<unsigned __int64,unsigned __int64> > >::_Orphan_range
PUBLIC	??$addressof@U?$pair@_K_K@std@@@std@@YAPAU?$pair@_K_K@0@AAU10@@Z ; std::addressof<std::pair<unsigned __int64,unsigned __int64> >
PUBLIC	??0?$_Pair_base@_K_K@std@@QAE@$$QA_K0@Z		; std::_Pair_base<unsigned __int64,unsigned __int64>::_Pair_base<unsigned __int64,unsigned __int64>
PUBLIC	??$forward@_K@std@@YA$$QA_KAA_K@Z		; std::forward<unsigned __int64>
PUBLIC	??$?0_K_K@?$pair@_K_K@std@@QAE@$$QAU01@@Z	; std::pair<unsigned __int64,unsigned __int64>::pair<unsigned __int64,unsigned __int64><unsigned __int64,unsigned __int64>
PUBLIC	?construct@?$allocator@U?$pair@_K_K@std@@@std@@QAEXPAU?$pair@_K_K@2@$$QAU32@@Z ; std::allocator<std::pair<unsigned __int64,unsigned __int64> >::construct
PUBLIC	??$_Cons_val@V?$allocator@U?$pair@_K_K@std@@@std@@U?$pair@_K_K@2@U32@@std@@YAXAAV?$allocator@U?$pair@_K_K@std@@@0@PAU?$pair@_K_K@0@$$QAU20@@Z ; std::_Cons_val<std::allocator<std::pair<unsigned __int64,unsigned __int64> >,std::pair<unsigned __int64,unsigned __int64>,std::pair<unsigned __int64,unsigned __int64> >
PUBLIC	?push_back@?$vector@U?$pair@_K_K@std@@V?$allocator@U?$pair@_K_K@std@@@2@@std@@QAEX$$QAU?$pair@_K_K@2@@Z ; std::vector<std::pair<unsigned __int64,unsigned __int64>,std::allocator<std::pair<unsigned __int64,unsigned __int64> > >::push_back
PUBLIC	?get_allocator@?$vector@U?$pair@_K_K@std@@V?$allocator@U?$pair@_K_K@std@@@2@@std@@QBE?AV?$allocator@U?$pair@_K_K@std@@@2@XZ ; std::vector<std::pair<unsigned __int64,unsigned __int64>,std::allocator<std::pair<unsigned __int64,unsigned __int64> > >::get_allocator
PUBLIC	??$forward@U?$pair@_K_K@std@@@std@@YA$$QAU?$pair@_K_K@0@AAU10@@Z ; std::forward<std::pair<unsigned __int64,unsigned __int64> >
PUBLIC	??$?9U?$pair@_K_K@std@@U01@@std@@YA_NABV?$allocator@U?$pair@_K_K@std@@@0@0@Z ; std::operator!=<std::pair<unsigned __int64,unsigned __int64>,std::pair<unsigned __int64,unsigned __int64> >
PUBLIC	?_Assign_rv@?$vector@U?$pair@_K_K@std@@V?$allocator@U?$pair@_K_K@std@@@2@@std@@QAEX$$QAV12@@Z ; std::vector<std::pair<unsigned __int64,unsigned __int64>,std::allocator<std::pair<unsigned __int64,unsigned __int64> > >::_Assign_rv
PUBLIC	??$forward@V?$vector@U?$pair@_K_K@std@@V?$allocator@U?$pair@_K_K@std@@@2@@std@@@std@@YA$$QAV?$vector@U?$pair@_K_K@std@@V?$allocator@U?$pair@_K_K@std@@@2@@0@AAV10@@Z ; std::forward<std::vector<std::pair<unsigned __int64,unsigned __int64>,std::allocator<std::pair<unsigned __int64,unsigned __int64> > > >
PUBLIC	??4?$vector@U?$pair@_K_K@std@@V?$allocator@U?$pair@_K_K@std@@@2@@std@@QAEAAV01@$$QAV01@@Z ; std::vector<std::pair<unsigned __int64,unsigned __int64>,std::allocator<std::pair<unsigned __int64,unsigned __int64> > >::operator=
PUBLIC	??$?8U?$pair@_K_K@std@@U01@@std@@YA_NABV?$allocator@U?$pair@_K_K@std@@@0@0@Z ; std::operator==<std::pair<unsigned __int64,unsigned __int64>,std::pair<unsigned __int64,unsigned __int64> >
PUBLIC	??$_Move@AAPAU?$pair@_K_K@std@@@std@@YA$$QAPAU?$pair@_K_K@0@AAPAU10@@Z ; std::_Move<std::pair<unsigned __int64,unsigned __int64> * &>
PUBLIC	??$swap@PAU?$pair@_K_K@std@@@std@@YAXAAPAU?$pair@_K_K@0@0@Z ; std::swap<std::pair<unsigned __int64,unsigned __int64> *>
PUBLIC	??$_Move@AAV?$vector@U?$pair@_K_K@std@@V?$allocator@U?$pair@_K_K@std@@@2@@std@@@std@@YA$$QAV?$vector@U?$pair@_K_K@std@@V?$allocator@U?$pair@_K_K@std@@@2@@0@AAV10@@Z ; std::_Move<std::vector<std::pair<unsigned __int64,unsigned __int64>,std::allocator<std::pair<unsigned __int64,unsigned __int64> > > &>
PUBLIC	?swap@?$vector@U?$pair@_K_K@std@@V?$allocator@U?$pair@_K_K@std@@@2@@std@@QAEXAAV12@@Z ; std::vector<std::pair<unsigned __int64,unsigned __int64>,std::allocator<std::pair<unsigned __int64,unsigned __int64> > >::swap
PUBLIC	??E?$_Vector_const_iterator@V?$_Vector_val@U?$pair@_K_K@std@@V?$allocator@U?$pair@_K_K@std@@@2@@std@@@std@@QAE?AV01@H@Z ; std::_Vector_const_iterator<std::_Vector_val<std::pair<unsigned __int64,unsigned __int64>,std::allocator<std::pair<unsigned __int64,unsigned __int64> > > >::operator++
PUBLIC	??D?$_Vector_const_iterator@V?$_Vector_val@U?$pair@_K_K@std@@V?$allocator@U?$pair@_K_K@std@@@2@@std@@@std@@QBEABU?$pair@_K_K@1@XZ ; std::_Vector_const_iterator<std::_Vector_val<std::pair<unsigned __int64,unsigned __int64>,std::allocator<std::pair<unsigned __int64,unsigned __int64> > > >::operator*
PUBLIC	??D?$_Vector_iterator@V?$_Vector_val@U?$pair@_K_K@std@@V?$allocator@U?$pair@_K_K@std@@@2@@std@@@std@@QBEAAU?$pair@_K_K@1@XZ ; std::_Vector_iterator<std::_Vector_val<std::pair<unsigned __int64,unsigned __int64>,std::allocator<std::pair<unsigned __int64,unsigned __int64> > > >::operator*
PUBLIC	??E?$_Vector_const_iterator@V?$_Vector_val@U?$pair@_K_K@std@@V?$allocator@U?$pair@_K_K@std@@@2@@std@@@std@@QAEAAV01@XZ ; std::_Vector_const_iterator<std::_Vector_val<std::pair<unsigned __int64,unsigned __int64>,std::allocator<std::pair<unsigned __int64,unsigned __int64> > > >::operator++
PUBLIC	??E?$_Vector_iterator@V?$_Vector_val@U?$pair@_K_K@std@@V?$allocator@U?$pair@_K_K@std@@@2@@std@@@std@@QAEAAV01@XZ ; std::_Vector_iterator<std::_Vector_val<std::pair<unsigned __int64,unsigned __int64>,std::allocator<std::pair<unsigned __int64,unsigned __int64> > > >::operator++
PUBLIC	??E?$_Vector_iterator@V?$_Vector_val@U?$pair@_K_K@std@@V?$allocator@U?$pair@_K_K@std@@@2@@std@@@std@@QAE?AV01@H@Z ; std::_Vector_iterator<std::_Vector_val<std::pair<unsigned __int64,unsigned __int64>,std::allocator<std::pair<unsigned __int64,unsigned __int64> > > >::operator++
PUBLIC	??$max@_K@std@@YAAB_KAB_K0@Z			; std::max<unsigned __int64>
PUBLIC	??$forward@AA_K@std@@YAAA_KAA_K@Z		; std::forward<unsigned __int64 &>
PUBLIC	??$?0AA_KAA_K@?$_Pair_base@_K_K@std@@QAE@AA_K0@Z ; std::_Pair_base<unsigned __int64,unsigned __int64>::_Pair_base<unsigned __int64,unsigned __int64><unsigned __int64 &,unsigned __int64 &>
PUBLIC	??$?0AA_KAA_K@?$pair@_K_K@std@@QAE@AA_K0@Z	; std::pair<unsigned __int64,unsigned __int64>::pair<unsigned __int64,unsigned __int64><unsigned __int64 &,unsigned __int64 &>
PUBLIC	??$forward@$$CB_K@std@@YA$$QB_KAB_K@Z		; std::forward<unsigned __int64 const >
PUBLIC	??$?0$$CB_K$$CB_K@?$_Pair_base@_K_K@std@@QAE@$$QB_K0@Z ; std::_Pair_base<unsigned __int64,unsigned __int64>::_Pair_base<unsigned __int64,unsigned __int64><unsigned __int64 const ,unsigned __int64 const >
PUBLIC	??$?0$$CB_K$$CB_K@?$pair@_K_K@std@@QAE@$$QB_K0@Z ; std::pair<unsigned __int64,unsigned __int64>::pair<unsigned __int64,unsigned __int64><unsigned __int64 const ,unsigned __int64 const >
PUBLIC	_sqrtf
PUBLIC	?sqrt@@YAMM@Z					; sqrt
PUBLIC	?begin@?$vector@U?$pair@_K_K@std@@V?$allocator@U?$pair@_K_K@std@@@2@@std@@QAE?AV?$_Vector_iterator@V?$_Vector_val@U?$pair@_K_K@std@@V?$allocator@U?$pair@_K_K@std@@@2@@std@@@2@XZ ; std::vector<std::pair<unsigned __int64,unsigned __int64>,std::allocator<std::pair<unsigned __int64,unsigned __int64> > >::begin
PUBLIC	?end@?$vector@U?$pair@_K_K@std@@V?$allocator@U?$pair@_K_K@std@@@2@@std@@QAE?AV?$_Vector_iterator@V?$_Vector_val@U?$pair@_K_K@std@@V?$allocator@U?$pair@_K_K@std@@@2@@std@@@2@XZ ; std::vector<std::pair<unsigned __int64,unsigned __int64>,std::allocator<std::pair<unsigned __int64,unsigned __int64> > >::end
PUBLIC	??0?$_Vector_const_iterator@V?$_Vector_val@U?$pair@_K_K@std@@V?$allocator@U?$pair@_K_K@std@@@2@@std@@@std@@QAE@PAU?$pair@_K_K@1@PBU_Container_base0@1@@Z ; std::_Vector_const_iterator<std::_Vector_val<std::pair<unsigned __int64,unsigned __int64>,std::allocator<std::pair<unsigned __int64,unsigned __int64> > > >::_Vector_const_iterator<std::_Vector_val<std::pair<unsigned __int64,unsigned __int64>,std::allocator<std::pair<unsigned __int64,unsigned __int64> > > >
PUBLIC	??0?$_Vector_iterator@V?$_Vector_val@U?$pair@_K_K@std@@V?$allocator@U?$pair@_K_K@std@@@2@@std@@@std@@QAE@PAU?$pair@_K_K@1@PBU_Container_base0@1@@Z ; std::_Vector_iterator<std::_Vector_val<std::pair<unsigned __int64,unsigned __int64>,std::allocator<std::pair<unsigned __int64,unsigned __int64> > > >::_Vector_iterator<std::_Vector_val<std::pair<unsigned __int64,unsigned __int64>,std::allocator<std::pair<unsigned __int64,unsigned __int64> > > >
PUBLIC	?_Make_iter@?$vector@U?$pair@_K_K@std@@V?$allocator@U?$pair@_K_K@std@@@2@@std@@QBE?AV?$_Vector_iterator@V?$_Vector_val@U?$pair@_K_K@std@@V?$allocator@U?$pair@_K_K@std@@@2@@std@@@2@V?$_Vector_const_iterator@V?$_Vector_val@U?$pair@_K_K@std@@V?$allocator@U?$pair@_K_K@std@@@2@@std@@@2@@Z ; std::vector<std::pair<unsigned __int64,unsigned __int64>,std::allocator<std::pair<unsigned __int64,unsigned __int64> > >::_Make_iter
PUBLIC	?_Compat@?$_Vector_const_iterator@V?$_Vector_val@U?$pair@_K_K@std@@V?$allocator@U?$pair@_K_K@std@@@2@@std@@@std@@QBEXABV12@@Z ; std::_Vector_const_iterator<std::_Vector_val<std::pair<unsigned __int64,unsigned __int64>,std::allocator<std::pair<unsigned __int64,unsigned __int64> > > >::_Compat
PUBLIC	??8?$_Vector_const_iterator@V?$_Vector_val@U?$pair@_K_K@std@@V?$allocator@U?$pair@_K_K@std@@@2@@std@@@std@@QBE_NABV01@@Z ; std::_Vector_const_iterator<std::_Vector_val<std::pair<unsigned __int64,unsigned __int64>,std::allocator<std::pair<unsigned __int64,unsigned __int64> > > >::operator==
PUBLIC	??9?$_Vector_const_iterator@V?$_Vector_val@U?$pair@_K_K@std@@V?$allocator@U?$pair@_K_K@std@@@2@@std@@@std@@QBE_NABV01@@Z ; std::_Vector_const_iterator<std::_Vector_val<std::pair<unsigned __int64,unsigned __int64>,std::allocator<std::pair<unsigned __int64,unsigned __int64> > > >::operator!=
PUBLIC	??$move@AA_K@std@@YA$$QA_KAA_K@Z		; std::move<unsigned __int64 &>
PUBLIC	??4?$pair@_K_K@std@@QAEAAU01@$$QAU01@@Z		; std::pair<unsigned __int64,unsigned __int64>::operator=
PUBLIC	??$move@AAU?$pair@_K_K@std@@@std@@YA$$QAU?$pair@_K_K@0@AAU10@@Z ; std::move<std::pair<unsigned __int64,unsigned __int64> &>
PUBLIC	??$_Move@PAU?$pair@_K_K@std@@PAU12@@std@@YAPAU?$pair@_K_K@0@PAU10@00U_Nonscalar_ptr_iterator_tag@0@@Z ; std::_Move<std::pair<unsigned __int64,unsigned __int64> *,std::pair<unsigned __int64,unsigned __int64> *>
PUBLIC	??$_Move@PAU?$pair@_K_K@std@@PAU12@@std@@YAPAU?$pair@_K_K@0@PAU10@00@Z ; std::_Move<std::pair<unsigned __int64,unsigned __int64> *,std::pair<unsigned __int64,unsigned __int64> *>
PUBLIC	?erase@?$vector@U?$pair@_K_K@std@@V?$allocator@U?$pair@_K_K@std@@@2@@std@@QAE?AV?$_Vector_iterator@V?$_Vector_val@U?$pair@_K_K@std@@V?$allocator@U?$pair@_K_K@std@@@2@@std@@@2@V?$_Vector_const_iterator@V?$_Vector_val@U?$pair@_K_K@std@@V?$allocator@U?$pair@_K_K@std@@@2@@std@@@2@0@Z ; std::vector<std::pair<unsigned __int64,unsigned __int64>,std::allocator<std::pair<unsigned __int64,unsigned __int64> > >::erase
PUBLIC	?clear@?$vector@U?$pair@_K_K@std@@V?$allocator@U?$pair@_K_K@std@@@2@@std@@QAEXXZ ; std::vector<std::pair<unsigned __int64,unsigned __int64>,std::allocator<std::pair<unsigned __int64,unsigned __int64> > >::clear
PUBLIC	??C?$shared_ptr@$$CBVScanLineData@@@boost@@QBEPBVScanLineData@@XZ ; boost::shared_ptr<ScanLineData const >::operator->
PUBLIC	??0?$allocator@V?$refcounted_value@Vrep_type@?$optimized_key_value@NVass_synth_priv@@Uass_synth_priv_key@@@detail@flyweights@boost@@N@detail@flyweights@boost@@@std@@QAE@XZ ; std::allocator<boost::flyweights::detail::refcounted_value<boost::flyweights::detail::optimized_key_value<double,ass_synth_priv,ass_synth_priv_key>::rep_type,double> >::allocator<boost::flyweights::detail::refcounted_value<boost::flyweights::detail::optimized_key_value<double,ass_synth_priv,ass_synth_priv_key>::rep_type,double> >
PUBLIC	??0?$allocator@V?$refcounted_value@Vrep_type@?$optimized_key_value@NVass_synth_priv@@Uass_synth_priv_key@@@detail@flyweights@boost@@N@detail@flyweights@boost@@@std@@QAE@ABV01@@Z ; std::allocator<boost::flyweights::detail::refcounted_value<boost::flyweights::detail::optimized_key_value<double,ass_synth_priv,ass_synth_priv_key>::rep_type,double> >::allocator<boost::flyweights::detail::refcounted_value<boost::flyweights::detail::optimized_key_value<double,ass_synth_priv,ass_synth_priv_key>::rep_type,double> >
PUBLIC	??$_Allocate@U?$hashed_index_node@U?$index_node_base@V?$refcounted_value@Vrep_type@?$optimized_key_value@NVass_synth_priv@@Uass_synth_priv_key@@@detail@flyweights@boost@@N@detail@flyweights@boost@@V?$allocator@V?$refcounted_value@Vrep_type@?$optimized_key_value@NVass_synth_priv@@Uass_synth_priv_key@@@detail@flyweights@boost@@N@detail@flyweights@boost@@@std@@@detail@multi_index@boost@@@detail@multi_index@boost@@@std@@YAPAU?$hashed_index_node@U?$index_node_base@V?$refcounted_value@Vrep_type@?$optimized_key_value@NVass_synth_priv@@Uass_synth_priv_key@@@detail@flyweights@boost@@N@detail@flyweights@boost@@V?$allocator@V?$refcounted_value@Vrep_type@?$optimized_key_value@NVass_synth_priv@@Uass_synth_priv_key@@@detail@flyweights@boost@@N@detail@flyweights@boost@@@std@@@detail@multi_index@boost@@@detail@multi_index@boost@@IPAU1234@@Z ; std::_Allocate<boost::multi_index::detail::hashed_index_node<boost::multi_index::detail::index_node_base<boost::flyweights::detail::refcounted_value<boost::flyweights::detail::optimized_key_value<double,ass_synth_priv,ass_synth_priv_key>::rep_type,double>,std::allocator<boost::flyweights::detail::refcounted_value<boost::flyweights::detail::optimized_key_value<double,ass_synth_priv,ass_synth_priv_key>::rep_type,double> > > > >
PUBLIC	?allocate@?$allocator@U?$hashed_index_node@U?$index_node_base@V?$refcounted_value@Vrep_type@?$optimized_key_value@NVass_synth_priv@@Uass_synth_priv_key@@@detail@flyweights@boost@@N@detail@flyweights@boost@@V?$allocator@V?$refcounted_value@Vrep_type@?$optimized_key_value@NVass_synth_priv@@Uass_synth_priv_key@@@detail@flyweights@boost@@N@detail@flyweights@boost@@@std@@@detail@multi_index@boost@@@detail@multi_index@boost@@@std@@QAEPAU?$hashed_index_node@U?$index_node_base@V?$refcounted_value@Vrep_type@?$optimized_key_value@NVass_synth_priv@@Uass_synth_priv_key@@@detail@flyweights@boost@@N@detail@flyweights@boost@@V?$allocator@V?$refcounted_value@Vrep_type@?$optimized_key_value@NVass_synth_priv@@Uass_synth_priv_key@@@detail@flyweights@boost@@N@detail@flyweights@boost@@@std@@@detail@multi_index@boost@@@detail@multi_index@boost@@I@Z ; std::allocator<boost::multi_index::detail::hashed_index_node<boost::multi_index::detail::index_node_base<boost::flyweights::detail::refcounted_value<boost::flyweights::detail::optimized_key_value<double,ass_synth_priv,ass_synth_priv_key>::rep_type,double>,std::allocator<boost::flyweights::detail::refcounted_value<boost::flyweights::detail::optimized_key_value<double,ass_synth_priv,ass_synth_priv_key>::rep_type,double> > > > >::allocate
PUBLIC	?allocate_node@?$multi_index_container@V?$refcounted_value@Vrep_type@?$optimized_key_value@NVass_synth_priv@@Uass_synth_priv_key@@@detail@flyweights@boost@@N@detail@flyweights@boost@@Uindex_list@?$hashed_factory_class@V?$refcounted_value@Vrep_type@?$optimized_key_value@NVass_synth_priv@@Uass_synth_priv_key@@@detail@flyweights@boost@@N@detail@flyweights@boost@@NUna@mpl@4@U564@U564@@34@V?$allocator@V?$refcounted_value@Vrep_type@?$optimized_key_value@NVass_synth_priv@@Uass_synth_priv_key@@@detail@flyweights@boost@@N@detail@flyweights@boost@@@std@@@multi_index@boost@@IAEPAU?$hashed_index_node@U?$index_node_base@V?$refcounted_value@Vrep_type@?$optimized_key_value@NVass_synth_priv@@Uass_synth_priv_key@@@detail@flyweights@boost@@N@detail@flyweights@boost@@V?$allocator@V?$refcounted_value@Vrep_type@?$optimized_key_value@NVass_synth_priv@@Uass_synth_priv_key@@@detail@flyweights@boost@@N@detail@flyweights@boost@@@std@@@detail@multi_index@boost@@@detail@23@XZ ; boost::multi_index::multi_index_container<boost::flyweights::detail::refcounted_value<boost::flyweights::detail::optimized_key_value<double,ass_synth_priv,ass_synth_priv_key>::rep_type,double>,boost::flyweights::hashed_factory_class<boost::flyweights::detail::refcounted_value<boost::flyweights::detail::optimized_key_value<double,ass_synth_priv,ass_synth_priv_key>::rep_type,double>,double,boost::mpl::na,boost::mpl::na,boost::mpl::na>::index_list,std::allocator<boost::flyweights::detail::refcounted_value<boost::flyweights::detail::optimized_key_value<double,ass_synth_priv,ass_synth_priv_key>::rep_type,double> > >::allocate_node
PUBLIC	??0?$header_holder@PAU?$hashed_index_node@U?$index_node_base@V?$refcounted_value@Vrep_type@?$optimized_key_value@NVass_synth_priv@@Uass_synth_priv_key@@@detail@flyweights@boost@@N@detail@flyweights@boost@@V?$allocator@V?$refcounted_value@Vrep_type@?$optimized_key_value@NVass_synth_priv@@Uass_synth_priv_key@@@detail@flyweights@boost@@N@detail@flyweights@boost@@@std@@@detail@multi_index@boost@@@detail@multi_index@boost@@V?$multi_index_container@V?$refcounted_value@Vrep_type@?$optimized_key_value@NVass_synth_priv@@Uass_synth_priv_key@@@detail@flyweights@boost@@N@detail@flyweights@boost@@Uindex_list@?$hashed_factory_class@V?$refcounted_value@Vrep_type@?$optimized_key_value@NVass_synth_priv@@Uass_synth_priv_key@@@detail@flyweights@boost@@N@detail@flyweights@boost@@NUna@mpl@4@U564@U564@@34@V?$allocator@V?$refcounted_value@Vrep_type@?$optimized_key_value@NVass_synth_priv@@Uass_synth_priv_key@@@detail@flyweights@boost@@N@detail@flyweights@boost@@@std@@@34@@detail@multi_index@boost@@QAE@XZ ; boost::multi_index::detail::header_holder<boost::multi_index::detail::hashed_index_node<boost::multi_index::detail::index_node_base<boost::flyweights::detail::refcounted_value<boost::flyweights::detail::optimized_key_value<double,ass_synth_priv,ass_synth_priv_key>::rep_type,double>,std::allocator<boost::flyweights::detail::refcounted_value<boost::flyweights::detail::optimized_key_value<double,ass_synth_priv,ass_synth_priv_key>::rep_type,double> > > > *,boost::multi_index::multi_index_container<boost::flyweights::detail::refcounted_value<boost::flyweights::detail::optimized_key_value<double,ass_synth_priv,ass_synth_priv_key>::rep_type,double>,boost::flyweights::hashed_factory_class<boost::flyweights::detail::refcounted_value<boost::flyweights::detail::optimized_key_value<double,ass_synth_priv,ass_synth_priv_key>::rep_type,double>,double,boost::mpl::na,boost::mpl::na,boost::mpl::na>::index_list,std::allocator<boost::flyweights::detail::refcounted_value<boost::flyweights::detail::optimized_key_value<double,ass_synth_priv,ass_synth_priv_key>::rep_type,double> > > >::header_holder<boost::multi_index::detail::hashed_index_node<boost::multi_index::detail::index_node_base<boost::flyweights::detail::refcounted_value<boost::flyweights::detail::optimized_key_value<double,ass_synth_priv,ass_synth_priv_key>::rep_type,double>,std::allocator<boost::flyweights::detail::refcounted_value<boost::flyweights::detail::optimized_key_value<double,ass_synth_priv,ass_synth_priv_key>::rep_type,double> > > > *,boost::multi_index::multi_index_container<boost::flyweights::detail::refcounted_value<boost::flyweights::detail::optimized_key_value<double,ass_synth_priv,ass_synth_priv_key>::rep_type,double>,boost::flyweights::hashed_factory_class<boost::flyweights::detail::refcounted_value<boost::flyweights::detail::optimized_key_value<double,ass_synth_priv,ass_synth_priv_key>::rep_type,double>,double,boost::mpl::na,boost::mpl::na,boost::mpl::na>::index_list,std::allocator<boost::flyweights::detail::refcounted_value<boost::flyweights::detail::optimized_key_value<double,ass_synth_priv,ass_synth_priv_key>::rep_type,double> > > >
PUBLIC	??0?$index_base@V?$refcounted_value@Vrep_type@?$optimized_key_value@NVass_synth_priv@@Uass_synth_priv_key@@@detail@flyweights@boost@@N@detail@flyweights@boost@@Uindex_list@?$hashed_factory_class@V?$refcounted_value@Vrep_type@?$optimized_key_value@NVass_synth_priv@@Uass_synth_priv_key@@@detail@flyweights@boost@@N@detail@flyweights@boost@@NUna@mpl@4@U564@U564@@34@V?$allocator@V?$refcounted_value@Vrep_type@?$optimized_key_value@NVass_synth_priv@@Uass_synth_priv_key@@@detail@flyweights@boost@@N@detail@flyweights@boost@@@std@@@detail@multi_index@boost@@IAE@ABUnull_type@tuples@3@ABV?$allocator@V?$refcounted_value@Vrep_type@?$optimized_key_value@NVass_synth_priv@@Uass_synth_priv_key@@@detail@flyweights@boost@@N@detail@flyweights@boost@@@std@@@Z ; boost::multi_index::detail::index_base<boost::flyweights::detail::refcounted_value<boost::flyweights::detail::optimized_key_value<double,ass_synth_priv,ass_synth_priv_key>::rep_type,double>,boost::flyweights::hashed_factory_class<boost::flyweights::detail::refcounted_value<boost::flyweights::detail::optimized_key_value<double,ass_synth_priv,ass_synth_priv_key>::rep_type,double>,double,boost::mpl::na,boost::mpl::na,boost::mpl::na>::index_list,std::allocator<boost::flyweights::detail::refcounted_value<boost::flyweights::detail::optimized_key_value<double,ass_synth_priv,ass_synth_priv_key>::rep_type,double> > >::index_base<boost::flyweights::detail::refcounted_value<boost::flyweights::detail::optimized_key_value<double,ass_synth_priv,ass_synth_priv_key>::rep_type,double>,boost::flyweights::hashed_factory_class<boost::flyweights::detail::refcounted_value<boost::flyweights::detail::optimized_key_value<double,ass_synth_priv,ass_synth_priv_key>::rep_type,double>,double,boost::mpl::na,boost::mpl::na,boost::mpl::na>::index_list,std::allocator<boost::flyweights::detail::refcounted_value<boost::flyweights::detail::optimized_key_value<double,ass_synth_priv,ass_synth_priv_key>::rep_type,double> > >
PUBLIC	?impl@?$hashed_index_node@U?$index_node_base@V?$refcounted_value@Vrep_type@?$optimized_key_value@NVass_synth_priv@@Uass_synth_priv_key@@@detail@flyweights@boost@@N@detail@flyweights@boost@@V?$allocator@V?$refcounted_value@Vrep_type@?$optimized_key_value@NVass_synth_priv@@Uass_synth_priv_key@@@detail@flyweights@boost@@N@detail@flyweights@boost@@@std@@@detail@multi_index@boost@@@detail@multi_index@boost@@QAEPAU?$hashed_index_node_impl@V?$allocator@D@std@@@234@XZ ; boost::multi_index::detail::hashed_index_node<boost::multi_index::detail::index_node_base<boost::flyweights::detail::refcounted_value<boost::flyweights::detail::optimized_key_value<double,ass_synth_priv,ass_synth_priv_key>::rep_type,double>,std::allocator<boost::flyweights::detail::refcounted_value<boost::flyweights::detail::optimized_key_value<double,ass_synth_priv,ass_synth_priv_key>::rep_type,double> > > >::impl
PUBLIC	?final@?$index_base@V?$refcounted_value@Vrep_type@?$optimized_key_value@NVass_synth_priv@@Uass_synth_priv_key@@@detail@flyweights@boost@@N@detail@flyweights@boost@@Uindex_list@?$hashed_factory_class@V?$refcounted_value@Vrep_type@?$optimized_key_value@NVass_synth_priv@@Uass_synth_priv_key@@@detail@flyweights@boost@@N@detail@flyweights@boost@@NUna@mpl@4@U564@U564@@34@V?$allocator@V?$refcounted_value@Vrep_type@?$optimized_key_value@NVass_synth_priv@@Uass_synth_priv_key@@@detail@flyweights@boost@@N@detail@flyweights@boost@@@std@@@detail@multi_index@boost@@IBEABV?$multi_index_container@V?$refcounted_value@Vrep_type@?$optimized_key_value@NVass_synth_priv@@Uass_synth_priv_key@@@detail@flyweights@boost@@N@detail@flyweights@boost@@Uindex_list@?$hashed_factory_class@V?$refcounted_value@Vrep_type@?$optimized_key_value@NVass_synth_priv@@Uass_synth_priv_key@@@detail@flyweights@boost@@N@detail@flyweights@boost@@NUna@mpl@4@U564@U564@@34@V?$allocator@V?$refcounted_value@Vrep_type@?$optimized_key_value@NVass_synth_priv@@Uass_synth_priv_key@@@detail@flyweights@boost@@N@detail@flyweights@boost@@@std@@@34@XZ ; boost::multi_index::detail::index_base<boost::flyweights::detail::refcounted_value<boost::flyweights::detail::optimized_key_value<double,ass_synth_priv,ass_synth_priv_key>::rep_type,double>,boost::flyweights::hashed_factory_class<boost::flyweights::detail::refcounted_value<boost::flyweights::detail::optimized_key_value<double,ass_synth_priv,ass_synth_priv_key>::rep_type,double>,double,boost::mpl::na,boost::mpl::na,boost::mpl::na>::index_list,std::allocator<boost::flyweights::detail::refcounted_value<boost::flyweights::detail::optimized_key_value<double,ass_synth_priv,ass_synth_priv_key>::rep_type,double> > >::final
PUBLIC	?header@?$multi_index_container@V?$refcounted_value@Vrep_type@?$optimized_key_value@NVass_synth_priv@@Uass_synth_priv_key@@@detail@flyweights@boost@@N@detail@flyweights@boost@@Uindex_list@?$hashed_factory_class@V?$refcounted_value@Vrep_type@?$optimized_key_value@NVass_synth_priv@@Uass_synth_priv_key@@@detail@flyweights@boost@@N@detail@flyweights@boost@@NUna@mpl@4@U564@U564@@34@V?$allocator@V?$refcounted_value@Vrep_type@?$optimized_key_value@NVass_synth_priv@@Uass_synth_priv_key@@@detail@flyweights@boost@@N@detail@flyweights@boost@@@std@@@multi_index@boost@@IBEPAU?$hashed_index_node@U?$index_node_base@V?$refcounted_value@Vrep_type@?$optimized_key_value@NVass_synth_priv@@Uass_synth_priv_key@@@detail@flyweights@boost@@N@detail@flyweights@boost@@V?$allocator@V?$refcounted_value@Vrep_type@?$optimized_key_value@NVass_synth_priv@@Uass_synth_priv_key@@@detail@flyweights@boost@@N@detail@flyweights@boost@@@std@@@detail@multi_index@boost@@@detail@23@XZ ; boost::multi_index::multi_index_container<boost::flyweights::detail::refcounted_value<boost::flyweights::detail::optimized_key_value<double,ass_synth_priv,ass_synth_priv_key>::rep_type,double>,boost::flyweights::hashed_factory_class<boost::flyweights::detail::refcounted_value<boost::flyweights::detail::optimized_key_value<double,ass_synth_priv,ass_synth_priv_key>::rep_type,double>,double,boost::mpl::na,boost::mpl::na,boost::mpl::na>::index_list,std::allocator<boost::flyweights::detail::refcounted_value<boost::flyweights::detail::optimized_key_value<double,ass_synth_priv,ass_synth_priv_key>::rep_type,double> > >::header
PUBLIC	?final_header@?$index_base@V?$refcounted_value@Vrep_type@?$optimized_key_value@NVass_synth_priv@@Uass_synth_priv_key@@@detail@flyweights@boost@@N@detail@flyweights@boost@@Uindex_list@?$hashed_factory_class@V?$refcounted_value@Vrep_type@?$optimized_key_value@NVass_synth_priv@@Uass_synth_priv_key@@@detail@flyweights@boost@@N@detail@flyweights@boost@@NUna@mpl@4@U564@U564@@34@V?$allocator@V?$refcounted_value@Vrep_type@?$optimized_key_value@NVass_synth_priv@@Uass_synth_priv_key@@@detail@flyweights@boost@@N@detail@flyweights@boost@@@std@@@detail@multi_index@boost@@IBEPAU?$hashed_index_node@U?$index_node_base@V?$refcounted_value@Vrep_type@?$optimized_key_value@NVass_synth_priv@@Uass_synth_priv_key@@@detail@flyweights@boost@@N@detail@flyweights@boost@@V?$allocator@V?$refcounted_value@Vrep_type@?$optimized_key_value@NVass_synth_priv@@Uass_synth_priv_key@@@detail@flyweights@boost@@N@detail@flyweights@boost@@@std@@@detail@multi_index@boost@@@234@XZ ; boost::multi_index::detail::index_base<boost::flyweights::detail::refcounted_value<boost::flyweights::detail::optimized_key_value<double,ass_synth_priv,ass_synth_priv_key>::rep_type,double>,boost::flyweights::hashed_factory_class<boost::flyweights::detail::refcounted_value<boost::flyweights::detail::optimized_key_value<double,ass_synth_priv,ass_synth_priv_key>::rep_type,double>,double,boost::mpl::na,boost::mpl::na,boost::mpl::na>::index_list,std::allocator<boost::flyweights::detail::refcounted_value<boost::flyweights::detail::optimized_key_value<double,ass_synth_priv,ass_synth_priv_key>::rep_type,double> > >::final_header
PUBLIC	?header@?$hashed_index@U?$identity@V?$refcounted_value@Vrep_type@?$optimized_key_value@NVass_synth_priv@@Uass_synth_priv_key@@@detail@flyweights@boost@@N@detail@flyweights@boost@@@multi_index@boost@@U?$hash@N@3@U?$equal_to@N@std@@U?$nth_layer@$00V?$refcounted_value@Vrep_type@?$optimized_key_value@NVass_synth_priv@@Uass_synth_priv_key@@@detail@flyweights@boost@@N@detail@flyweights@boost@@Uindex_list@?$hashed_factory_class@V?$refcounted_value@Vrep_type@?$optimized_key_value@NVass_synth_priv@@Uass_synth_priv_key@@@detail@flyweights@boost@@N@detail@flyweights@boost@@NUna@mpl@4@U564@U564@@34@V?$allocator@V?$refcounted_value@Vrep_type@?$optimized_key_value@NVass_synth_priv@@Uass_synth_priv_key@@@detail@flyweights@boost@@N@detail@flyweights@boost@@@std@@@detail@23@U?$vector0@Una@mpl@boost@@@mpl@3@Uhashed_unique_tag@823@@detail@multi_index@boost@@ABEPAU?$hashed_index_node@U?$index_node_base@V?$refcounted_value@Vrep_type@?$optimized_key_value@NVass_synth_priv@@Uass_synth_priv_key@@@detail@flyweights@boost@@N@detail@flyweights@boost@@V?$allocator@V?$refcounted_value@Vrep_type@?$optimized_key_value@NVass_synth_priv@@Uass_synth_priv_key@@@detail@flyweights@boost@@N@detail@flyweights@boost@@@std@@@detail@multi_index@boost@@@234@XZ ; boost::multi_index::detail::hashed_index<boost::multi_index::identity<boost::flyweights::detail::refcounted_value<boost::flyweights::detail::optimized_key_value<double,ass_synth_priv,ass_synth_priv_key>::rep_type,double> >,boost::hash<double>,std::equal_to<double>,boost::multi_index::detail::nth_layer<1,boost::flyweights::detail::refcounted_value<boost::flyweights::detail::optimized_key_value<double,ass_synth_priv,ass_synth_priv_key>::rep_type,double>,boost::flyweights::hashed_factory_class<boost::flyweights::detail::refcounted_value<boost::flyweights::detail::optimized_key_value<double,ass_synth_priv,ass_synth_priv_key>::rep_type,double>,double,boost::mpl::na,boost::mpl::na,boost::mpl::na>::index_list,std::allocator<boost::flyweights::detail::refcounted_value<boost::flyweights::detail::optimized_key_value<double,ass_synth_priv,ass_synth_priv_key>::rep_type,double> > >,boost::mpl::vector0<boost::mpl::na>,boost::multi_index::detail::hashed_unique_tag>::header
PUBLIC	?bucket_count@?$hashed_index@U?$identity@V?$refcounted_value@Vrep_type@?$optimized_key_value@NVass_synth_priv@@Uass_synth_priv_key@@@detail@flyweights@boost@@N@detail@flyweights@boost@@@multi_index@boost@@U?$hash@N@3@U?$equal_to@N@std@@U?$nth_layer@$00V?$refcounted_value@Vrep_type@?$optimized_key_value@NVass_synth_priv@@Uass_synth_priv_key@@@detail@flyweights@boost@@N@detail@flyweights@boost@@Uindex_list@?$hashed_factory_class@V?$refcounted_value@Vrep_type@?$optimized_key_value@NVass_synth_priv@@Uass_synth_priv_key@@@detail@flyweights@boost@@N@detail@flyweights@boost@@NUna@mpl@4@U564@U564@@34@V?$allocator@V?$refcounted_value@Vrep_type@?$optimized_key_value@NVass_synth_priv@@Uass_synth_priv_key@@@detail@flyweights@boost@@N@detail@flyweights@boost@@@std@@@detail@23@U?$vector0@Una@mpl@boost@@@mpl@3@Uhashed_unique_tag@823@@detail@multi_index@boost@@QBEIXZ ; boost::multi_index::detail::hashed_index<boost::multi_index::identity<boost::flyweights::detail::refcounted_value<boost::flyweights::detail::optimized_key_value<double,ass_synth_priv,ass_synth_priv_key>::rep_type,double> >,boost::hash<double>,std::equal_to<double>,boost::multi_index::detail::nth_layer<1,boost::flyweights::detail::refcounted_value<boost::flyweights::detail::optimized_key_value<double,ass_synth_priv,ass_synth_priv_key>::rep_type,double>,boost::flyweights::hashed_factory_class<boost::flyweights::detail::refcounted_value<boost::flyweights::detail::optimized_key_value<double,ass_synth_priv,ass_synth_priv_key>::rep_type,double>,double,boost::mpl::na,boost::mpl::na,boost::mpl::na>::index_list,std::allocator<boost::flyweights::detail::refcounted_value<boost::flyweights::detail::optimized_key_value<double,ass_synth_priv,ass_synth_priv_key>::rep_type,double> > >,boost::mpl::vector0<boost::mpl::na>,boost::multi_index::detail::hashed_unique_tag>::bucket_count
PUBLIC	?calculate_max_load@?$hashed_index@U?$identity@V?$refcounted_value@Vrep_type@?$optimized_key_value@NVass_synth_priv@@Uass_synth_priv_key@@@detail@flyweights@boost@@N@detail@flyweights@boost@@@multi_index@boost@@U?$hash@N@3@U?$equal_to@N@std@@U?$nth_layer@$00V?$refcounted_value@Vrep_type@?$optimized_key_value@NVass_synth_priv@@Uass_synth_priv_key@@@detail@flyweights@boost@@N@detail@flyweights@boost@@Uindex_list@?$hashed_factory_class@V?$refcounted_value@Vrep_type@?$optimized_key_value@NVass_synth_priv@@Uass_synth_priv_key@@@detail@flyweights@boost@@N@detail@flyweights@boost@@NUna@mpl@4@U564@U564@@34@V?$allocator@V?$refcounted_value@Vrep_type@?$optimized_key_value@NVass_synth_priv@@Uass_synth_priv_key@@@detail@flyweights@boost@@N@detail@flyweights@boost@@@std@@@detail@23@U?$vector0@Una@mpl@boost@@@mpl@3@Uhashed_unique_tag@823@@detail@multi_index@boost@@AAEXXZ ; boost::multi_index::detail::hashed_index<boost::multi_index::identity<boost::flyweights::detail::refcounted_value<boost::flyweights::detail::optimized_key_value<double,ass_synth_priv,ass_synth_priv_key>::rep_type,double> >,boost::hash<double>,std::equal_to<double>,boost::multi_index::detail::nth_layer<1,boost::flyweights::detail::refcounted_value<boost::flyweights::detail::optimized_key_value<double,ass_synth_priv,ass_synth_priv_key>::rep_type,double>,boost::flyweights::hashed_factory_class<boost::flyweights::detail::refcounted_value<boost::flyweights::detail::optimized_key_value<double,ass_synth_priv,ass_synth_priv_key>::rep_type,double>,double,boost::mpl::na,boost::mpl::na,boost::mpl::na>::index_list,std::allocator<boost::flyweights::detail::refcounted_value<boost::flyweights::detail::optimized_key_value<double,ass_synth_priv,ass_synth_priv_key>::rep_type,double> > >,boost::mpl::vector0<boost::mpl::na>,boost::multi_index::detail::hashed_unique_tag>::calculate_max_load
PUBLIC	?clear@?$bucket_array@V?$allocator@V?$refcounted_value@Vrep_type@?$optimized_key_value@NVass_synth_priv@@Uass_synth_priv_key@@@detail@flyweights@boost@@N@detail@flyweights@boost@@@std@@@detail@multi_index@boost@@QAEXXZ ; boost::multi_index::detail::bucket_array<std::allocator<boost::flyweights::detail::refcounted_value<boost::flyweights::detail::optimized_key_value<double,ass_synth_priv,ass_synth_priv_key>::rep_type,double> > >::clear
PUBLIC	??$?0V?$refcounted_value@Vrep_type@?$optimized_key_value@NVass_synth_priv@@Uass_synth_priv_key@@@detail@flyweights@boost@@N@detail@flyweights@boost@@@?$allocator@U?$hashed_index_node_impl@V?$allocator@D@std@@@detail@multi_index@boost@@@std@@QAE@ABV?$allocator@V?$refcounted_value@Vrep_type@?$optimized_key_value@NVass_synth_priv@@Uass_synth_priv_key@@@detail@flyweights@boost@@N@detail@flyweights@boost@@@1@@Z ; std::allocator<boost::multi_index::detail::hashed_index_node_impl<std::allocator<char> > >::allocator<boost::multi_index::detail::hashed_index_node_impl<std::allocator<char> > ><boost::flyweights::detail::refcounted_value<boost::flyweights::detail::optimized_key_value<double,ass_synth_priv,ass_synth_priv_key>::rep_type,double> >
PUBLIC	??0?$auto_space@U?$hashed_index_node_impl@V?$allocator@D@std@@@detail@multi_index@boost@@V?$allocator@V?$refcounted_value@Vrep_type@?$optimized_key_value@NVass_synth_priv@@Uass_synth_priv_key@@@detail@flyweights@boost@@N@detail@flyweights@boost@@@std@@@detail@multi_index@boost@@QAE@ABV?$allocator@V?$refcounted_value@Vrep_type@?$optimized_key_value@NVass_synth_priv@@Uass_synth_priv_key@@@detail@flyweights@boost@@N@detail@flyweights@boost@@@std@@I@Z ; boost::multi_index::detail::auto_space<boost::multi_index::detail::hashed_index_node_impl<std::allocator<char> >,std::allocator<boost::flyweights::detail::refcounted_value<boost::flyweights::detail::optimized_key_value<double,ass_synth_priv,ass_synth_priv_key>::rep_type,double> > >::auto_space<boost::multi_index::detail::hashed_index_node_impl<std::allocator<char> >,std::allocator<boost::flyweights::detail::refcounted_value<boost::flyweights::detail::optimized_key_value<double,ass_synth_priv,ass_synth_priv_key>::rep_type,double> > >
PUBLIC	??0?$bucket_array@V?$allocator@V?$refcounted_value@Vrep_type@?$optimized_key_value@NVass_synth_priv@@Uass_synth_priv_key@@@detail@flyweights@boost@@N@detail@flyweights@boost@@@std@@@detail@multi_index@boost@@QAE@ABV?$allocator@V?$refcounted_value@Vrep_type@?$optimized_key_value@NVass_synth_priv@@Uass_synth_priv_key@@@detail@flyweights@boost@@N@detail@flyweights@boost@@@std@@PAU?$hashed_index_node_impl@V?$allocator@D@std@@@123@I@Z ; boost::multi_index::detail::bucket_array<std::allocator<boost::flyweights::detail::refcounted_value<boost::flyweights::detail::optimized_key_value<double,ass_synth_priv,ass_synth_priv_key>::rep_type,double> > >::bucket_array<std::allocator<boost::flyweights::detail::refcounted_value<boost::flyweights::detail::optimized_key_value<double,ass_synth_priv,ass_synth_priv_key>::rep_type,double> > >
PUBLIC	?size@?$bucket_array@V?$allocator@V?$refcounted_value@Vrep_type@?$optimized_key_value@NVass_synth_priv@@Uass_synth_priv_key@@@detail@flyweights@boost@@N@detail@flyweights@boost@@@std@@@detail@multi_index@boost@@QBEIXZ ; boost::multi_index::detail::bucket_array<std::allocator<boost::flyweights::detail::refcounted_value<boost::flyweights::detail::optimized_key_value<double,ass_synth_priv,ass_synth_priv_key>::rep_type,double> > >::size
PUBLIC	?get_head@?$cons@V?$tuple@IU?$identity@V?$refcounted_value@Vrep_type@?$optimized_key_value@NVass_synth_priv@@Uass_synth_priv_key@@@detail@flyweights@boost@@N@detail@flyweights@boost@@@multi_index@boost@@U?$hash@N@3@U?$equal_to@N@std@@Unull_type@tuples@3@U783@U783@U783@U783@U783@@tuples@boost@@Unull_type@23@@tuples@boost@@QBEABV?$tuple@IU?$identity@V?$refcounted_value@Vrep_type@?$optimized_key_value@NVass_synth_priv@@Uass_synth_priv_key@@@detail@flyweights@boost@@N@detail@flyweights@boost@@@multi_index@boost@@U?$hash@N@3@U?$equal_to@N@std@@Unull_type@tuples@3@U783@U783@U783@U783@U783@@23@XZ ; boost::tuples::cons<boost::tuples::tuple<unsigned int,boost::multi_index::identity<boost::flyweights::detail::refcounted_value<boost::flyweights::detail::optimized_key_value<double,ass_synth_priv,ass_synth_priv_key>::rep_type,double> >,boost::hash<double>,std::equal_to<double>,boost::tuples::null_type,boost::tuples::null_type,boost::tuples::null_type,boost::tuples::null_type,boost::tuples::null_type,boost::tuples::null_type>,boost::tuples::null_type>::get_head
PUBLIC	?get_tail@?$cons@V?$tuple@IU?$identity@V?$refcounted_value@Vrep_type@?$optimized_key_value@NVass_synth_priv@@Uass_synth_priv_key@@@detail@flyweights@boost@@N@detail@flyweights@boost@@@multi_index@boost@@U?$hash@N@3@U?$equal_to@N@std@@Unull_type@tuples@3@U783@U783@U783@U783@U783@@tuples@boost@@Unull_type@23@@tuples@boost@@QBE?BUnull_type@23@XZ ; boost::tuples::cons<boost::tuples::tuple<unsigned int,boost::multi_index::identity<boost::flyweights::detail::refcounted_value<boost::flyweights::detail::optimized_key_value<double,ass_synth_priv,ass_synth_priv_key>::rep_type,double> >,boost::hash<double>,std::equal_to<double>,boost::tuples::null_type,boost::tuples::null_type,boost::tuples::null_type,boost::tuples::null_type,boost::tuples::null_type,boost::tuples::null_type>,boost::tuples::null_type>::get_tail
PUBLIC	??$get@$00IU?$cons@U?$identity@V?$refcounted_value@Vrep_type@?$optimized_key_value@NVass_synth_priv@@Uass_synth_priv_key@@@detail@flyweights@boost@@N@detail@flyweights@boost@@@multi_index@boost@@U?$cons@U?$hash@N@boost@@U?$cons@U?$equal_to@N@std@@Unull_type@tuples@boost@@@tuples@2@@tuples@3@@tuples@boost@@@tuples@boost@@YAABU?$identity@V?$refcounted_value@Vrep_type@?$optimized_key_value@NVass_synth_priv@@Uass_synth_priv_key@@@detail@flyweights@boost@@N@detail@flyweights@boost@@@multi_index@1@ABU?$cons@IU?$cons@U?$identity@V?$refcounted_value@Vrep_type@?$optimized_key_value@NVass_synth_priv@@Uass_synth_priv_key@@@detail@flyweights@boost@@N@detail@flyweights@boost@@@multi_index@boost@@U?$cons@U?$hash@N@boost@@U?$cons@U?$equal_to@N@std@@Unull_type@tuples@boost@@@tuples@2@@tuples@3@@tuples@boost@@@01@@Z ; boost::tuples::get<1,unsigned int,boost::tuples::cons<boost::multi_index::identity<boost::flyweights::detail::refcounted_value<boost::flyweights::detail::optimized_key_value<double,ass_synth_priv,ass_synth_priv_key>::rep_type,double> >,boost::tuples::cons<boost::hash<double>,boost::tuples::cons<std::equal_to<double>,boost::tuples::null_type> > > >
PUBLIC	??$get@$01IU?$cons@U?$identity@V?$refcounted_value@Vrep_type@?$optimized_key_value@NVass_synth_priv@@Uass_synth_priv_key@@@detail@flyweights@boost@@N@detail@flyweights@boost@@@multi_index@boost@@U?$cons@U?$hash@N@boost@@U?$cons@U?$equal_to@N@std@@Unull_type@tuples@boost@@@tuples@2@@tuples@3@@tuples@boost@@@tuples@boost@@YAABU?$hash@N@1@ABU?$cons@IU?$cons@U?$identity@V?$refcounted_value@Vrep_type@?$optimized_key_value@NVass_synth_priv@@Uass_synth_priv_key@@@detail@flyweights@boost@@N@detail@flyweights@boost@@@multi_index@boost@@U?$cons@U?$hash@N@boost@@U?$cons@U?$equal_to@N@std@@Unull_type@tuples@boost@@@tuples@2@@tuples@3@@tuples@boost@@@01@@Z ; boost::tuples::get<2,unsigned int,boost::tuples::cons<boost::multi_index::identity<boost::flyweights::detail::refcounted_value<boost::flyweights::detail::optimized_key_value<double,ass_synth_priv,ass_synth_priv_key>::rep_type,double> >,boost::tuples::cons<boost::hash<double>,boost::tuples::cons<std::equal_to<double>,boost::tuples::null_type> > > >
PUBLIC	?call@?$apply@U?$cons@IU?$cons@U?$identity@V?$refcounted_value@Vrep_type@?$optimized_key_value@NVass_synth_priv@@Uass_synth_priv_key@@@detail@flyweights@boost@@N@detail@flyweights@boost@@@multi_index@boost@@U?$cons@U?$hash@N@boost@@U?$cons@U?$equal_to@N@std@@Unull_type@tuples@boost@@@tuples@2@@tuples@3@@tuples@boost@@@tuples@boost@@@?$drop_front@$00@detail@tuples@boost@@SAABU?$cons@U?$identity@V?$refcounted_value@Vrep_type@?$optimized_key_value@NVass_synth_priv@@Uass_synth_priv_key@@@detail@flyweights@boost@@N@detail@flyweights@boost@@@multi_index@boost@@U?$cons@U?$hash@N@boost@@U?$cons@U?$equal_to@N@std@@Unull_type@tuples@boost@@@tuples@2@@tuples@3@@45@ABU?$cons@IU?$cons@U?$identity@V?$refcounted_value@Vrep_type@?$optimized_key_value@NVass_synth_priv@@Uass_synth_priv_key@@@detail@flyweights@boost@@N@detail@flyweights@boost@@@multi_index@boost@@U?$cons@U?$hash@N@boost@@U?$cons@U?$equal_to@N@std@@Unull_type@tuples@boost@@@tuples@2@@tuples@3@@tuples@boost@@@45@@Z ; boost::tuples::detail::drop_front<1>::apply<boost::tuples::cons<unsigned int,boost::tuples::cons<boost::multi_index::identity<boost::flyweights::detail::refcounted_value<boost::flyweights::detail::optimized_key_value<double,ass_synth_priv,ass_synth_priv_key>::rep_type,double> >,boost::tuples::cons<boost::hash<double>,boost::tuples::cons<std::equal_to<double>,boost::tuples::null_type> > > > >::call
PUBLIC	?call@?$apply@U?$cons@IU?$cons@U?$identity@V?$refcounted_value@Vrep_type@?$optimized_key_value@NVass_synth_priv@@Uass_synth_priv_key@@@detail@flyweights@boost@@N@detail@flyweights@boost@@@multi_index@boost@@U?$cons@U?$hash@N@boost@@U?$cons@U?$equal_to@N@std@@Unull_type@tuples@boost@@@tuples@2@@tuples@3@@tuples@boost@@@tuples@boost@@@?$drop_front@$01@detail@tuples@boost@@SAABU?$cons@U?$hash@N@boost@@U?$cons@U?$equal_to@N@std@@Unull_type@tuples@boost@@@tuples@2@@45@ABU?$cons@IU?$cons@U?$identity@V?$refcounted_value@Vrep_type@?$optimized_key_value@NVass_synth_priv@@Uass_synth_priv_key@@@detail@flyweights@boost@@N@detail@flyweights@boost@@@multi_index@boost@@U?$cons@U?$hash@N@boost@@U?$cons@U?$equal_to@N@std@@Unull_type@tuples@boost@@@tuples@2@@tuples@3@@tuples@boost@@@45@@Z ; boost::tuples::detail::drop_front<2>::apply<boost::tuples::cons<unsigned int,boost::tuples::cons<boost::multi_index::identity<boost::flyweights::detail::refcounted_value<boost::flyweights::detail::optimized_key_value<double,ass_synth_priv,ass_synth_priv_key>::rep_type,double> >,boost::tuples::cons<boost::hash<double>,boost::tuples::cons<std::equal_to<double>,boost::tuples::null_type> > > > >::call
PUBLIC	?call@?$apply@U?$cons@IU?$cons@U?$identity@V?$refcounted_value@Vrep_type@?$optimized_key_value@NVass_synth_priv@@Uass_synth_priv_key@@@detail@flyweights@boost@@N@detail@flyweights@boost@@@multi_index@boost@@U?$cons@U?$hash@N@boost@@U?$cons@U?$equal_to@N@std@@Unull_type@tuples@boost@@@tuples@2@@tuples@3@@tuples@boost@@@tuples@boost@@@?$drop_front@$02@detail@tuples@boost@@SAABU?$cons@U?$equal_to@N@std@@Unull_type@tuples@boost@@@45@ABU?$cons@IU?$cons@U?$identity@V?$refcounted_value@Vrep_type@?$optimized_key_value@NVass_synth_priv@@Uass_synth_priv_key@@@detail@flyweights@boost@@N@detail@flyweights@boost@@@multi_index@boost@@U?$cons@U?$hash@N@boost@@U?$cons@U?$equal_to@N@std@@Unull_type@tuples@boost@@@tuples@2@@tuples@3@@tuples@boost@@@45@@Z ; boost::tuples::detail::drop_front<3>::apply<boost::tuples::cons<unsigned int,boost::tuples::cons<boost::multi_index::identity<boost::flyweights::detail::refcounted_value<boost::flyweights::detail::optimized_key_value<double,ass_synth_priv,ass_synth_priv_key>::rep_type,double> >,boost::tuples::cons<boost::hash<double>,boost::tuples::cons<std::equal_to<double>,boost::tuples::null_type> > > > >::call
PUBLIC	??$get@$02IU?$cons@U?$identity@V?$refcounted_value@Vrep_type@?$optimized_key_value@NVass_synth_priv@@Uass_synth_priv_key@@@detail@flyweights@boost@@N@detail@flyweights@boost@@@multi_index@boost@@U?$cons@U?$hash@N@boost@@U?$cons@U?$equal_to@N@std@@Unull_type@tuples@boost@@@tuples@2@@tuples@3@@tuples@boost@@@tuples@boost@@YAABU?$equal_to@N@std@@ABU?$cons@IU?$cons@U?$identity@V?$refcounted_value@Vrep_type@?$optimized_key_value@NVass_synth_priv@@Uass_synth_priv_key@@@detail@flyweights@boost@@N@detail@flyweights@boost@@@multi_index@boost@@U?$cons@U?$hash@N@boost@@U?$cons@U?$equal_to@N@std@@Unull_type@tuples@boost@@@tuples@2@@tuples@3@@tuples@boost@@@01@@Z ; boost::tuples::get<3,unsigned int,boost::tuples::cons<boost::multi_index::identity<boost::flyweights::detail::refcounted_value<boost::flyweights::detail::optimized_key_value<double,ass_synth_priv,ass_synth_priv_key>::rep_type,double> >,boost::tuples::cons<boost::hash<double>,boost::tuples::cons<std::equal_to<double>,boost::tuples::null_type> > > >
PUBLIC	?call@?$apply@U?$cons@IU?$cons@U?$identity@V?$refcounted_value@Vrep_type@?$optimized_key_value@NVass_synth_priv@@Uass_synth_priv_key@@@detail@flyweights@boost@@N@detail@flyweights@boost@@@multi_index@boost@@U?$cons@U?$hash@N@boost@@U?$cons@U?$equal_to@N@std@@Unull_type@tuples@boost@@@tuples@2@@tuples@3@@tuples@boost@@@tuples@boost@@@?$drop_front@$0A@@detail@tuples@boost@@SAABU?$cons@IU?$cons@U?$identity@V?$refcounted_value@Vrep_type@?$optimized_key_value@NVass_synth_priv@@Uass_synth_priv_key@@@detail@flyweights@boost@@N@detail@flyweights@boost@@@multi_index@boost@@U?$cons@U?$hash@N@boost@@U?$cons@U?$equal_to@N@std@@Unull_type@tuples@boost@@@tuples@2@@tuples@3@@tuples@boost@@@45@ABU645@@Z ; boost::tuples::detail::drop_front<0>::apply<boost::tuples::cons<unsigned int,boost::tuples::cons<boost::multi_index::identity<boost::flyweights::detail::refcounted_value<boost::flyweights::detail::optimized_key_value<double,ass_synth_priv,ass_synth_priv_key>::rep_type,double> >,boost::tuples::cons<boost::hash<double>,boost::tuples::cons<std::equal_to<double>,boost::tuples::null_type> > > > >::call
PUBLIC	??$get@$0A@IU?$cons@U?$identity@V?$refcounted_value@Vrep_type@?$optimized_key_value@NVass_synth_priv@@Uass_synth_priv_key@@@detail@flyweights@boost@@N@detail@flyweights@boost@@@multi_index@boost@@U?$cons@U?$hash@N@boost@@U?$cons@U?$equal_to@N@std@@Unull_type@tuples@boost@@@tuples@2@@tuples@3@@tuples@boost@@@tuples@boost@@YAABIABU?$cons@IU?$cons@U?$identity@V?$refcounted_value@Vrep_type@?$optimized_key_value@NVass_synth_priv@@Uass_synth_priv_key@@@detail@flyweights@boost@@N@detail@flyweights@boost@@@multi_index@boost@@U?$cons@U?$hash@N@boost@@U?$cons@U?$equal_to@N@std@@Unull_type@tuples@boost@@@tuples@2@@tuples@3@@tuples@boost@@@01@@Z ; boost::tuples::get<0,unsigned int,boost::tuples::cons<boost::multi_index::identity<boost::flyweights::detail::refcounted_value<boost::flyweights::detail::optimized_key_value<double,ass_synth_priv,ass_synth_priv_key>::rep_type,double> >,boost::tuples::cons<boost::hash<double>,boost::tuples::cons<std::equal_to<double>,boost::tuples::null_type> > > >
PUBLIC	??0?$hashed_index@U?$identity@V?$refcounted_value@Vrep_type@?$optimized_key_value@NVass_synth_priv@@Uass_synth_priv_key@@@detail@flyweights@boost@@N@detail@flyweights@boost@@@multi_index@boost@@U?$hash@N@3@U?$equal_to@N@std@@U?$nth_layer@$00V?$refcounted_value@Vrep_type@?$optimized_key_value@NVass_synth_priv@@Uass_synth_priv_key@@@detail@flyweights@boost@@N@detail@flyweights@boost@@Uindex_list@?$hashed_factory_class@V?$refcounted_value@Vrep_type@?$optimized_key_value@NVass_synth_priv@@Uass_synth_priv_key@@@detail@flyweights@boost@@N@detail@flyweights@boost@@NUna@mpl@4@U564@U564@@34@V?$allocator@V?$refcounted_value@Vrep_type@?$optimized_key_value@NVass_synth_priv@@Uass_synth_priv_key@@@detail@flyweights@boost@@N@detail@flyweights@boost@@@std@@@detail@23@U?$vector0@Una@mpl@boost@@@mpl@3@Uhashed_unique_tag@823@@detail@multi_index@boost@@IAE@ABU?$cons@V?$tuple@IU?$identity@V?$refcounted_value@Vrep_type@?$optimized_key_value@NVass_synth_priv@@Uass_synth_priv_key@@@detail@flyweights@boost@@N@detail@flyweights@boost@@@multi_index@boost@@U?$hash@N@3@U?$equal_to@N@std@@Unull_type@tuples@3@U783@U783@U783@U783@U783@@tuples@boost@@Unull_type@23@@tuples@3@ABV?$allocator@V?$refcounted_value@Vrep_type@?$optimized_key_value@NVass_synth_priv@@Uass_synth_priv_key@@@detail@flyweights@boost@@N@detail@flyweights@boost@@@std@@@Z ; boost::multi_index::detail::hashed_index<boost::multi_index::identity<boost::flyweights::detail::refcounted_value<boost::flyweights::detail::optimized_key_value<double,ass_synth_priv,ass_synth_priv_key>::rep_type,double> >,boost::hash<double>,std::equal_to<double>,boost::multi_index::detail::nth_layer<1,boost::flyweights::detail::refcounted_value<boost::flyweights::detail::optimized_key_value<double,ass_synth_priv,ass_synth_priv_key>::rep_type,double>,boost::flyweights::hashed_factory_class<boost::flyweights::detail::refcounted_value<boost::flyweights::detail::optimized_key_value<double,ass_synth_priv,ass_synth_priv_key>::rep_type,double>,double,boost::mpl::na,boost::mpl::na,boost::mpl::na>::index_list,std::allocator<boost::flyweights::detail::refcounted_value<boost::flyweights::detail::optimized_key_value<double,ass_synth_priv,ass_synth_priv_key>::rep_type,double> > >,boost::mpl::vector0<boost::mpl::na>,boost::multi_index::detail::hashed_unique_tag>::hashed_index<boost::multi_index::identity<boost::flyweights::detail::refcounted_value<boost::flyweights::detail::optimized_key_value<double,ass_synth_priv,ass_synth_priv_key>::rep_type,double> >,boost::hash<double>,std::equal_to<double>,boost::multi_index::detail::nth_layer<1,boost::flyweights::detail::refcounted_value<boost::flyweights::detail::optimized_key_value<double,ass_synth_priv,ass_synth_priv_key>::rep_type,double>,boost::flyweights::hashed_factory_class<boost::flyweights::detail::refcounted_value<boost::flyweights::detail::optimized_key_value<double,ass_synth_priv,ass_synth_priv_key>::rep_type,double>,double,boost::mpl::na,boost::mpl::na,boost::mpl::na>::index_list,std::allocator<boost::flyweights::detail::refcounted_value<boost::flyweights::detail::optimized_key_value<double,ass_synth_priv,ass_synth_priv_key>::rep_type,double> > >,boost::mpl::vector0<boost::mpl::na>,boost::multi_index::detail::hashed_unique_tag>
PUBLIC	??$?0V?$refcounted_value@Vrep_type@?$optimized_key_value@NVass_synth_priv@@Uass_synth_priv_key@@@detail@flyweights@boost@@N@detail@flyweights@boost@@@?$allocator@U?$hashed_index_node@U?$index_node_base@V?$refcounted_value@Vrep_type@?$optimized_key_value@NVass_synth_priv@@Uass_synth_priv_key@@@detail@flyweights@boost@@N@detail@flyweights@boost@@V?$allocator@V?$refcounted_value@Vrep_type@?$optimized_key_value@NVass_synth_priv@@Uass_synth_priv_key@@@detail@flyweights@boost@@N@detail@flyweights@boost@@@std@@@detail@multi_index@boost@@@detail@multi_index@boost@@@std@@QAE@ABV?$allocator@V?$refcounted_value@Vrep_type@?$optimized_key_value@NVass_synth_priv@@Uass_synth_priv_key@@@detail@flyweights@boost@@N@detail@flyweights@boost@@@1@@Z ; std::allocator<boost::multi_index::detail::hashed_index_node<boost::multi_index::detail::index_node_base<boost::flyweights::detail::refcounted_value<boost::flyweights::detail::optimized_key_value<double,ass_synth_priv,ass_synth_priv_key>::rep_type,double>,std::allocator<boost::flyweights::detail::refcounted_value<boost::flyweights::detail::optimized_key_value<double,ass_synth_priv,ass_synth_priv_key>::rep_type,double> > > > >::allocator<boost::multi_index::detail::hashed_index_node<boost::multi_index::detail::index_node_base<boost::flyweights::detail::refcounted_value<boost::flyweights::detail::optimized_key_value<double,ass_synth_priv,ass_synth_priv_key>::rep_type,double>,std::allocator<boost::flyweights::detail::refcounted_value<boost::flyweights::detail::optimized_key_value<double,ass_synth_priv,ass_synth_priv_key>::rep_type,double> > > > ><boost::flyweights::detail::refcounted_value<boost::flyweights::detail::optimized_key_value<double,ass_synth_priv,ass_synth_priv_key>::rep_type,double> >
PUBLIC	??$?0V?$allocator@V?$refcounted_value@Vrep_type@?$optimized_key_value@NVass_synth_priv@@Uass_synth_priv_key@@@detail@flyweights@boost@@N@detail@flyweights@boost@@@std@@@?$base_from_member@V?$allocator@U?$hashed_index_node@U?$index_node_base@V?$refcounted_value@Vrep_type@?$optimized_key_value@NVass_synth_priv@@Uass_synth_priv_key@@@detail@flyweights@boost@@N@detail@flyweights@boost@@V?$allocator@V?$refcounted_value@Vrep_type@?$optimized_key_value@NVass_synth_priv@@Uass_synth_priv_key@@@detail@flyweights@boost@@N@detail@flyweights@boost@@@std@@@detail@multi_index@boost@@@detail@multi_index@boost@@@std@@$0A@@boost@@IAE@V?$allocator@V?$refcounted_value@Vrep_type@?$optimized_key_value@NVass_synth_priv@@Uass_synth_priv_key@@@detail@flyweights@boost@@N@detail@flyweights@boost@@@std@@@Z ; boost::base_from_member<std::allocator<boost::multi_index::detail::hashed_index_node<boost::multi_index::detail::index_node_base<boost::flyweights::detail::refcounted_value<boost::flyweights::detail::optimized_key_value<double,ass_synth_priv,ass_synth_priv_key>::rep_type,double>,std::allocator<boost::flyweights::detail::refcounted_value<boost::flyweights::detail::optimized_key_value<double,ass_synth_priv,ass_synth_priv_key>::rep_type,double> > > > >,0>::base_from_member<std::allocator<boost::multi_index::detail::hashed_index_node<boost::multi_index::detail::index_node_base<boost::flyweights::detail::refcounted_value<boost::flyweights::detail::optimized_key_value<double,ass_synth_priv,ass_synth_priv_key>::rep_type,double>,std::allocator<boost::flyweights::detail::refcounted_value<boost::flyweights::detail::optimized_key_value<double,ass_synth_priv,ass_synth_priv_key>::rep_type,double> > > > >,0><std::allocator<boost::flyweights::detail::refcounted_value<boost::flyweights::detail::optimized_key_value<double,ass_synth_priv,ass_synth_priv_key>::rep_type,double> > >
PUBLIC	??$?0U?$hashed_index_node@U?$index_node_base@V?$refcounted_value@Vrep_type@?$optimized_key_value@NVass_synth_priv@@Uass_synth_priv_key@@@detail@flyweights@boost@@N@detail@flyweights@boost@@V?$allocator@V?$refcounted_value@Vrep_type@?$optimized_key_value@NVass_synth_priv@@Uass_synth_priv_key@@@detail@flyweights@boost@@N@detail@flyweights@boost@@@std@@@detail@multi_index@boost@@@detail@multi_index@boost@@@?$allocator@V?$refcounted_value@Vrep_type@?$optimized_key_value@NVass_synth_priv@@Uass_synth_priv_key@@@detail@flyweights@boost@@N@detail@flyweights@boost@@@std@@QAE@ABV?$allocator@U?$hashed_index_node@U?$index_node_base@V?$refcounted_value@Vrep_type@?$optimized_key_value@NVass_synth_priv@@Uass_synth_priv_key@@@detail@flyweights@boost@@N@detail@flyweights@boost@@V?$allocator@V?$refcounted_value@Vrep_type@?$optimized_key_value@NVass_synth_priv@@Uass_synth_priv_key@@@detail@flyweights@boost@@N@detail@flyweights@boost@@@std@@@detail@multi_index@boost@@@detail@multi_index@boost@@@1@@Z ; std::allocator<boost::flyweights::detail::refcounted_value<boost::flyweights::detail::optimized_key_value<double,ass_synth_priv,ass_synth_priv_key>::rep_type,double> >::allocator<boost::flyweights::detail::refcounted_value<boost::flyweights::detail::optimized_key_value<double,ass_synth_priv,ass_synth_priv_key>::rep_type,double> ><boost::multi_index::detail::hashed_index_node<boost::multi_index::detail::index_node_base<boost::flyweights::detail::refcounted_value<boost::flyweights::detail::optimized_key_value<double,ass_synth_priv,ass_synth_priv_key>::rep_type,double>,std::allocator<boost::flyweights::detail::refcounted_value<boost::flyweights::detail::optimized_key_value<double,ass_synth_priv,ass_synth_priv_key>::rep_type,double> > > > >
PUBLIC	??0?$multi_index_container@V?$refcounted_value@Vrep_type@?$optimized_key_value@NVass_synth_priv@@Uass_synth_priv_key@@@detail@flyweights@boost@@N@detail@flyweights@boost@@Uindex_list@?$hashed_factory_class@V?$refcounted_value@Vrep_type@?$optimized_key_value@NVass_synth_priv@@Uass_synth_priv_key@@@detail@flyweights@boost@@N@detail@flyweights@boost@@NUna@mpl@4@U564@U564@@34@V?$allocator@V?$refcounted_value@Vrep_type@?$optimized_key_value@NVass_synth_priv@@Uass_synth_priv_key@@@detail@flyweights@boost@@N@detail@flyweights@boost@@@std@@@multi_index@boost@@QAE@ABU?$cons@V?$tuple@IU?$identity@V?$refcounted_value@Vrep_type@?$optimized_key_value@NVass_synth_priv@@Uass_synth_priv_key@@@detail@flyweights@boost@@N@detail@flyweights@boost@@@multi_index@boost@@U?$hash@N@3@U?$equal_to@N@std@@Unull_type@tuples@3@U783@U783@U783@U783@U783@@tuples@boost@@Unull_type@23@@tuples@2@ABV?$allocator@V?$refcounted_value@Vrep_type@?$optimized_key_value@NVass_synth_priv@@Uass_synth_priv_key@@@detail@flyweights@boost@@N@detail@flyweights@boost@@@std@@@Z ; boost::multi_index::multi_index_container<boost::flyweights::detail::refcounted_value<boost::flyweights::detail::optimized_key_value<double,ass_synth_priv,ass_synth_priv_key>::rep_type,double>,boost::flyweights::hashed_factory_class<boost::flyweights::detail::refcounted_value<boost::flyweights::detail::optimized_key_value<double,ass_synth_priv,ass_synth_priv_key>::rep_type,double>,double,boost::mpl::na,boost::mpl::na,boost::mpl::na>::index_list,std::allocator<boost::flyweights::detail::refcounted_value<boost::flyweights::detail::optimized_key_value<double,ass_synth_priv,ass_synth_priv_key>::rep_type,double> > >::multi_index_container<boost::flyweights::detail::refcounted_value<boost::flyweights::detail::optimized_key_value<double,ass_synth_priv,ass_synth_priv_key>::rep_type,double>,boost::flyweights::hashed_factory_class<boost::flyweights::detail::refcounted_value<boost::flyweights::detail::optimized_key_value<double,ass_synth_priv,ass_synth_priv_key>::rep_type,double>,double,boost::mpl::na,boost::mpl::na,boost::mpl::na>::index_list,std::allocator<boost::flyweights::detail::refcounted_value<boost::flyweights::detail::optimized_key_value<double,ass_synth_priv,ass_synth_priv_key>::rep_type,double> > >
PUBLIC	??0?$cons@U?$equal_to@N@std@@Unull_type@tuples@boost@@@tuples@boost@@QAE@XZ ; boost::tuples::cons<std::equal_to<double>,boost::tuples::null_type>::cons<std::equal_to<double>,boost::tuples::null_type>
PUBLIC	??0?$cons@U?$hash@N@boost@@U?$cons@U?$equal_to@N@std@@Unull_type@tuples@boost@@@tuples@2@@tuples@boost@@QAE@XZ ; boost::tuples::cons<boost::hash<double>,boost::tuples::cons<std::equal_to<double>,boost::tuples::null_type> >::cons<boost::hash<double>,boost::tuples::cons<std::equal_to<double>,boost::tuples::null_type> >
PUBLIC	??0?$cons@U?$identity@V?$refcounted_value@Vrep_type@?$optimized_key_value@NVass_synth_priv@@Uass_synth_priv_key@@@detail@flyweights@boost@@N@detail@flyweights@boost@@@multi_index@boost@@U?$cons@U?$hash@N@boost@@U?$cons@U?$equal_to@N@std@@Unull_type@tuples@boost@@@tuples@2@@tuples@3@@tuples@boost@@QAE@XZ ; boost::tuples::cons<boost::multi_index::identity<boost::flyweights::detail::refcounted_value<boost::flyweights::detail::optimized_key_value<double,ass_synth_priv,ass_synth_priv_key>::rep_type,double> >,boost::tuples::cons<boost::hash<double>,boost::tuples::cons<std::equal_to<double>,boost::tuples::null_type> > >::cons<boost::multi_index::identity<boost::flyweights::detail::refcounted_value<boost::flyweights::detail::optimized_key_value<double,ass_synth_priv,ass_synth_priv_key>::rep_type,double> >,boost::tuples::cons<boost::hash<double>,boost::tuples::cons<std::equal_to<double>,boost::tuples::null_type> > >
PUBLIC	??0?$cons@IU?$cons@U?$identity@V?$refcounted_value@Vrep_type@?$optimized_key_value@NVass_synth_priv@@Uass_synth_priv_key@@@detail@flyweights@boost@@N@detail@flyweights@boost@@@multi_index@boost@@U?$cons@U?$hash@N@boost@@U?$cons@U?$equal_to@N@std@@Unull_type@tuples@boost@@@tuples@2@@tuples@3@@tuples@boost@@@tuples@boost@@QAE@XZ ; boost::tuples::cons<unsigned int,boost::tuples::cons<boost::multi_index::identity<boost::flyweights::detail::refcounted_value<boost::flyweights::detail::optimized_key_value<double,ass_synth_priv,ass_synth_priv_key>::rep_type,double> >,boost::tuples::cons<boost::hash<double>,boost::tuples::cons<std::equal_to<double>,boost::tuples::null_type> > > >::cons<unsigned int,boost::tuples::cons<boost::multi_index::identity<boost::flyweights::detail::refcounted_value<boost::flyweights::detail::optimized_key_value<double,ass_synth_priv,ass_synth_priv_key>::rep_type,double> >,boost::tuples::cons<boost::hash<double>,boost::tuples::cons<std::equal_to<double>,boost::tuples::null_type> > > >
PUBLIC	??0?$tuple@IU?$identity@V?$refcounted_value@Vrep_type@?$optimized_key_value@NVass_synth_priv@@Uass_synth_priv_key@@@detail@flyweights@boost@@N@detail@flyweights@boost@@@multi_index@boost@@U?$hash@N@3@U?$equal_to@N@std@@Unull_type@tuples@3@U783@U783@U783@U783@U783@@tuples@boost@@QAE@XZ ; boost::tuples::tuple<unsigned int,boost::multi_index::identity<boost::flyweights::detail::refcounted_value<boost::flyweights::detail::optimized_key_value<double,ass_synth_priv,ass_synth_priv_key>::rep_type,double> >,boost::hash<double>,std::equal_to<double>,boost::tuples::null_type,boost::tuples::null_type,boost::tuples::null_type,boost::tuples::null_type,boost::tuples::null_type,boost::tuples::null_type>::tuple<unsigned int,boost::multi_index::identity<boost::flyweights::detail::refcounted_value<boost::flyweights::detail::optimized_key_value<double,ass_synth_priv,ass_synth_priv_key>::rep_type,double> >,boost::hash<double>,std::equal_to<double>,boost::tuples::null_type,boost::tuples::null_type,boost::tuples::null_type,boost::tuples::null_type,boost::tuples::null_type,boost::tuples::null_type>
PUBLIC	??0?$cons@V?$tuple@IU?$identity@V?$refcounted_value@Vrep_type@?$optimized_key_value@NVass_synth_priv@@Uass_synth_priv_key@@@detail@flyweights@boost@@N@detail@flyweights@boost@@@multi_index@boost@@U?$hash@N@3@U?$equal_to@N@std@@Unull_type@tuples@3@U783@U783@U783@U783@U783@@tuples@boost@@Unull_type@23@@tuples@boost@@QAE@XZ ; boost::tuples::cons<boost::tuples::tuple<unsigned int,boost::multi_index::identity<boost::flyweights::detail::refcounted_value<boost::flyweights::detail::optimized_key_value<double,ass_synth_priv,ass_synth_priv_key>::rep_type,double> >,boost::hash<double>,std::equal_to<double>,boost::tuples::null_type,boost::tuples::null_type,boost::tuples::null_type,boost::tuples::null_type,boost::tuples::null_type,boost::tuples::null_type>,boost::tuples::null_type>::cons<boost::tuples::tuple<unsigned int,boost::multi_index::identity<boost::flyweights::detail::refcounted_value<boost::flyweights::detail::optimized_key_value<double,ass_synth_priv,ass_synth_priv_key>::rep_type,double> >,boost::hash<double>,std::equal_to<double>,boost::tuples::null_type,boost::tuples::null_type,boost::tuples::null_type,boost::tuples::null_type,boost::tuples::null_type,boost::tuples::null_type>,boost::tuples::null_type>
PUBLIC	??0?$hashed_factory_class@V?$refcounted_value@Vrep_type@?$optimized_key_value@NVass_synth_priv@@Uass_synth_priv_key@@@detail@flyweights@boost@@N@detail@flyweights@boost@@NUna@mpl@4@U564@U564@@flyweights@boost@@QAE@XZ ; boost::flyweights::hashed_factory_class<boost::flyweights::detail::refcounted_value<boost::flyweights::detail::optimized_key_value<double,ass_synth_priv,ass_synth_priv_key>::rep_type,double>,double,boost::mpl::na,boost::mpl::na,boost::mpl::na>::hashed_factory_class<boost::flyweights::detail::refcounted_value<boost::flyweights::detail::optimized_key_value<double,ass_synth_priv,ass_synth_priv_key>::rep_type,double>,double,boost::mpl::na,boost::mpl::na,boost::mpl::na>
PUBLIC	??0holder_arg@?$flyweight_core@U?$key_value@NVass_synth_priv@@Uass_synth_priv_key@@@flyweights@boost@@Una@mpl@3@Urefcounted@23@U?$hashed_factory@Una@mpl@boost@@U123@U123@$0A@@23@Uno_locking@23@Ustatic_holder@23@@detail@flyweights@boost@@QAE@XZ ; boost::flyweights::detail::flyweight_core<boost::flyweights::key_value<double,ass_synth_priv,ass_synth_priv_key>,boost::mpl::na,boost::flyweights::refcounted,boost::flyweights::hashed_factory<boost::mpl::na,boost::mpl::na,boost::mpl::na,0>,boost::flyweights::no_locking,boost::flyweights::static_holder>::holder_arg::holder_arg
PUBLIC	?final@?$header_holder@PAU?$hashed_index_node@U?$index_node_base@V?$refcounted_value@Vrep_type@?$optimized_key_value@NVass_synth_priv@@Uass_synth_priv_key@@@detail@flyweights@boost@@N@detail@flyweights@boost@@V?$allocator@V?$refcounted_value@Vrep_type@?$optimized_key_value@NVass_synth_priv@@Uass_synth_priv_key@@@detail@flyweights@boost@@N@detail@flyweights@boost@@@std@@@detail@multi_index@boost@@@detail@multi_index@boost@@V?$multi_index_container@V?$refcounted_value@Vrep_type@?$optimized_key_value@NVass_synth_priv@@Uass_synth_priv_key@@@detail@flyweights@boost@@N@detail@flyweights@boost@@Uindex_list@?$hashed_factory_class@V?$refcounted_value@Vrep_type@?$optimized_key_value@NVass_synth_priv@@Uass_synth_priv_key@@@detail@flyweights@boost@@N@detail@flyweights@boost@@NUna@mpl@4@U564@U564@@34@V?$allocator@V?$refcounted_value@Vrep_type@?$optimized_key_value@NVass_synth_priv@@Uass_synth_priv_key@@@detail@flyweights@boost@@N@detail@flyweights@boost@@@std@@@34@@detail@multi_index@boost@@AAEAAV?$multi_index_container@V?$refcounted_value@Vrep_type@?$optimized_key_value@NVass_synth_priv@@Uass_synth_priv_key@@@detail@flyweights@boost@@N@detail@flyweights@boost@@Uindex_list@?$hashed_factory_class@V?$refcounted_value@Vrep_type@?$optimized_key_value@NVass_synth_priv@@Uass_synth_priv_key@@@detail@flyweights@boost@@N@detail@flyweights@boost@@NUna@mpl@4@U564@U564@@34@V?$allocator@V?$refcounted_value@Vrep_type@?$optimized_key_value@NVass_synth_priv@@Uass_synth_priv_key@@@detail@flyweights@boost@@N@detail@flyweights@boost@@@std@@@34@XZ ; boost::multi_index::detail::header_holder<boost::multi_index::detail::hashed_index_node<boost::multi_index::detail::index_node_base<boost::flyweights::detail::refcounted_value<boost::flyweights::detail::optimized_key_value<double,ass_synth_priv,ass_synth_priv_key>::rep_type,double>,std::allocator<boost::flyweights::detail::refcounted_value<boost::flyweights::detail::optimized_key_value<double,ass_synth_priv,ass_synth_priv_key>::rep_type,double> > > > *,boost::multi_index::multi_index_container<boost::flyweights::detail::refcounted_value<boost::flyweights::detail::optimized_key_value<double,ass_synth_priv,ass_synth_priv_key>::rep_type,double>,boost::flyweights::hashed_factory_class<boost::flyweights::detail::refcounted_value<boost::flyweights::detail::optimized_key_value<double,ass_synth_priv,ass_synth_priv_key>::rep_type,double>,double,boost::mpl::na,boost::mpl::na,boost::mpl::na>::index_list,std::allocator<boost::flyweights::detail::refcounted_value<boost::flyweights::detail::optimized_key_value<double,ass_synth_priv,ass_synth_priv_key>::rep_type,double> > > >::final
PUBLIC	??1?$header_holder@PAU?$hashed_index_node@U?$index_node_base@V?$refcounted_value@Vrep_type@?$optimized_key_value@NVass_synth_priv@@Uass_synth_priv_key@@@detail@flyweights@boost@@N@detail@flyweights@boost@@V?$allocator@V?$refcounted_value@Vrep_type@?$optimized_key_value@NVass_synth_priv@@Uass_synth_priv_key@@@detail@flyweights@boost@@N@detail@flyweights@boost@@@std@@@detail@multi_index@boost@@@detail@multi_index@boost@@V?$multi_index_container@V?$refcounted_value@Vrep_type@?$optimized_key_value@NVass_synth_priv@@Uass_synth_priv_key@@@detail@flyweights@boost@@N@detail@flyweights@boost@@Uindex_list@?$hashed_factory_class@V?$refcounted_value@Vrep_type@?$optimized_key_value@NVass_synth_priv@@Uass_synth_priv_key@@@detail@flyweights@boost@@N@detail@flyweights@boost@@NUna@mpl@4@U564@U564@@34@V?$allocator@V?$refcounted_value@Vrep_type@?$optimized_key_value@NVass_synth_priv@@Uass_synth_priv_key@@@detail@flyweights@boost@@N@detail@flyweights@boost@@@std@@@34@@detail@multi_index@boost@@QAE@XZ ; boost::multi_index::detail::header_holder<boost::multi_index::detail::hashed_index_node<boost::multi_index::detail::index_node_base<boost::flyweights::detail::refcounted_value<boost::flyweights::detail::optimized_key_value<double,ass_synth_priv,ass_synth_priv_key>::rep_type,double>,std::allocator<boost::flyweights::detail::refcounted_value<boost::flyweights::detail::optimized_key_value<double,ass_synth_priv,ass_synth_priv_key>::rep_type,double> > > > *,boost::multi_index::multi_index_container<boost::flyweights::detail::refcounted_value<boost::flyweights::detail::optimized_key_value<double,ass_synth_priv,ass_synth_priv_key>::rep_type,double>,boost::flyweights::hashed_factory_class<boost::flyweights::detail::refcounted_value<boost::flyweights::detail::optimized_key_value<double,ass_synth_priv,ass_synth_priv_key>::rep_type,double>,double,boost::mpl::na,boost::mpl::na,boost::mpl::na>::index_list,std::allocator<boost::flyweights::detail::refcounted_value<boost::flyweights::detail::optimized_key_value<double,ass_synth_priv,ass_synth_priv_key>::rep_type,double> > > >::~header_holder<boost::multi_index::detail::hashed_index_node<boost::multi_index::detail::index_node_base<boost::flyweights::detail::refcounted_value<boost::flyweights::detail::optimized_key_value<double,ass_synth_priv,ass_synth_priv_key>::rep_type,double>,std::allocator<boost::flyweights::detail::refcounted_value<boost::flyweights::detail::optimized_key_value<double,ass_synth_priv,ass_synth_priv_key>::rep_type,double> > > > *,boost::multi_index::multi_index_container<boost::flyweights::detail::refcounted_value<boost::flyweights::detail::optimized_key_value<double,ass_synth_priv,ass_synth_priv_key>::rep_type,double>,boost::flyweights::hashed_factory_class<boost::flyweights::detail::refcounted_value<boost::flyweights::detail::optimized_key_value<double,ass_synth_priv,ass_synth_priv_key>::rep_type,double>,double,boost::mpl::na,boost::mpl::na,boost::mpl::na>::index_list,std::allocator<boost::flyweights::detail::refcounted_value<boost::flyweights::detail::optimized_key_value<double,ass_synth_priv,ass_synth_priv_key>::rep_type,double> > > >
PUBLIC	??1?$auto_space@U?$hashed_index_node_impl@V?$allocator@D@std@@@detail@multi_index@boost@@V?$allocator@V?$refcounted_value@Vrep_type@?$optimized_key_value@NVass_synth_priv@@Uass_synth_priv_key@@@detail@flyweights@boost@@N@detail@flyweights@boost@@@std@@@detail@multi_index@boost@@QAE@XZ ; boost::multi_index::detail::auto_space<boost::multi_index::detail::hashed_index_node_impl<std::allocator<char> >,std::allocator<boost::flyweights::detail::refcounted_value<boost::flyweights::detail::optimized_key_value<double,ass_synth_priv,ass_synth_priv_key>::rep_type,double> > >::~auto_space<boost::multi_index::detail::hashed_index_node_impl<std::allocator<char> >,std::allocator<boost::flyweights::detail::refcounted_value<boost::flyweights::detail::optimized_key_value<double,ass_synth_priv,ass_synth_priv_key>::rep_type,double> > >
PUBLIC	??1?$bucket_array@V?$allocator@V?$refcounted_value@Vrep_type@?$optimized_key_value@NVass_synth_priv@@Uass_synth_priv_key@@@detail@flyweights@boost@@N@detail@flyweights@boost@@@std@@@detail@multi_index@boost@@QAE@XZ ; boost::multi_index::detail::bucket_array<std::allocator<boost::flyweights::detail::refcounted_value<boost::flyweights::detail::optimized_key_value<double,ass_synth_priv,ass_synth_priv_key>::rep_type,double> > >::~bucket_array<std::allocator<boost::flyweights::detail::refcounted_value<boost::flyweights::detail::optimized_key_value<double,ass_synth_priv,ass_synth_priv_key>::rep_type,double> > >
PUBLIC	??1?$hashed_index@U?$identity@V?$refcounted_value@Vrep_type@?$optimized_key_value@NVass_synth_priv@@Uass_synth_priv_key@@@detail@flyweights@boost@@N@detail@flyweights@boost@@@multi_index@boost@@U?$hash@N@3@U?$equal_to@N@std@@U?$nth_layer@$00V?$refcounted_value@Vrep_type@?$optimized_key_value@NVass_synth_priv@@Uass_synth_priv_key@@@detail@flyweights@boost@@N@detail@flyweights@boost@@Uindex_list@?$hashed_factory_class@V?$refcounted_value@Vrep_type@?$optimized_key_value@NVass_synth_priv@@Uass_synth_priv_key@@@detail@flyweights@boost@@N@detail@flyweights@boost@@NUna@mpl@4@U564@U564@@34@V?$allocator@V?$refcounted_value@Vrep_type@?$optimized_key_value@NVass_synth_priv@@Uass_synth_priv_key@@@detail@flyweights@boost@@N@detail@flyweights@boost@@@std@@@detail@23@U?$vector0@Una@mpl@boost@@@mpl@3@Uhashed_unique_tag@823@@detail@multi_index@boost@@IAE@XZ ; boost::multi_index::detail::hashed_index<boost::multi_index::identity<boost::flyweights::detail::refcounted_value<boost::flyweights::detail::optimized_key_value<double,ass_synth_priv,ass_synth_priv_key>::rep_type,double> >,boost::hash<double>,std::equal_to<double>,boost::multi_index::detail::nth_layer<1,boost::flyweights::detail::refcounted_value<boost::flyweights::detail::optimized_key_value<double,ass_synth_priv,ass_synth_priv_key>::rep_type,double>,boost::flyweights::hashed_factory_class<boost::flyweights::detail::refcounted_value<boost::flyweights::detail::optimized_key_value<double,ass_synth_priv,ass_synth_priv_key>::rep_type,double>,double,boost::mpl::na,boost::mpl::na,boost::mpl::na>::index_list,std::allocator<boost::flyweights::detail::refcounted_value<boost::flyweights::detail::optimized_key_value<double,ass_synth_priv,ass_synth_priv_key>::rep_type,double> > >,boost::mpl::vector0<boost::mpl::na>,boost::multi_index::detail::hashed_unique_tag>::~hashed_index<boost::multi_index::identity<boost::flyweights::detail::refcounted_value<boost::flyweights::detail::optimized_key_value<double,ass_synth_priv,ass_synth_priv_key>::rep_type,double> >,boost::hash<double>,std::equal_to<double>,boost::multi_index::detail::nth_layer<1,boost::flyweights::detail::refcounted_value<boost::flyweights::detail::optimized_key_value<double,ass_synth_priv,ass_synth_priv_key>::rep_type,double>,boost::flyweights::hashed_factory_class<boost::flyweights::detail::refcounted_value<boost::flyweights::detail::optimized_key_value<double,ass_synth_priv,ass_synth_priv_key>::rep_type,double>,double,boost::mpl::na,boost::mpl::na,boost::mpl::na>::index_list,std::allocator<boost::flyweights::detail::refcounted_value<boost::flyweights::detail::optimized_key_value<double,ass_synth_priv,ass_synth_priv_key>::rep_type,double> > >,boost::mpl::vector0<boost::mpl::na>,boost::multi_index::detail::hashed_unique_tag>
PUBLIC	?final@?$index_base@V?$refcounted_value@Vrep_type@?$optimized_key_value@NVass_synth_priv@@Uass_synth_priv_key@@@detail@flyweights@boost@@N@detail@flyweights@boost@@Uindex_list@?$hashed_factory_class@V?$refcounted_value@Vrep_type@?$optimized_key_value@NVass_synth_priv@@Uass_synth_priv_key@@@detail@flyweights@boost@@N@detail@flyweights@boost@@NUna@mpl@4@U564@U564@@34@V?$allocator@V?$refcounted_value@Vrep_type@?$optimized_key_value@NVass_synth_priv@@Uass_synth_priv_key@@@detail@flyweights@boost@@N@detail@flyweights@boost@@@std@@@detail@multi_index@boost@@IAEAAV?$multi_index_container@V?$refcounted_value@Vrep_type@?$optimized_key_value@NVass_synth_priv@@Uass_synth_priv_key@@@detail@flyweights@boost@@N@detail@flyweights@boost@@Uindex_list@?$hashed_factory_class@V?$refcounted_value@Vrep_type@?$optimized_key_value@NVass_synth_priv@@Uass_synth_priv_key@@@detail@flyweights@boost@@N@detail@flyweights@boost@@NUna@mpl@4@U564@U564@@34@V?$allocator@V?$refcounted_value@Vrep_type@?$optimized_key_value@NVass_synth_priv@@Uass_synth_priv_key@@@detail@flyweights@boost@@N@detail@flyweights@boost@@@std@@@34@XZ ; boost::multi_index::detail::index_base<boost::flyweights::detail::refcounted_value<boost::flyweights::detail::optimized_key_value<double,ass_synth_priv,ass_synth_priv_key>::rep_type,double>,boost::flyweights::hashed_factory_class<boost::flyweights::detail::refcounted_value<boost::flyweights::detail::optimized_key_value<double,ass_synth_priv,ass_synth_priv_key>::rep_type,double>,double,boost::mpl::na,boost::mpl::na,boost::mpl::na>::index_list,std::allocator<boost::flyweights::detail::refcounted_value<boost::flyweights::detail::optimized_key_value<double,ass_synth_priv,ass_synth_priv_key>::rep_type,double> > >::final
PUBLIC	?value@?$index_node_base@V?$refcounted_value@Vrep_type@?$optimized_key_value@NVass_synth_priv@@Uass_synth_priv_key@@@detail@flyweights@boost@@N@detail@flyweights@boost@@V?$allocator@V?$refcounted_value@Vrep_type@?$optimized_key_value@NVass_synth_priv@@Uass_synth_priv_key@@@detail@flyweights@boost@@N@detail@flyweights@boost@@@std@@@detail@multi_index@boost@@QAEAAV?$refcounted_value@Vrep_type@?$optimized_key_value@NVass_synth_priv@@Uass_synth_priv_key@@@detail@flyweights@boost@@N@2flyweights@4@XZ ; boost::multi_index::detail::index_node_base<boost::flyweights::detail::refcounted_value<boost::flyweights::detail::optimized_key_value<double,ass_synth_priv,ass_synth_priv_key>::rep_type,double>,std::allocator<boost::flyweights::detail::refcounted_value<boost::flyweights::detail::optimized_key_value<double,ass_synth_priv,ass_synth_priv_key>::rep_type,double> > >::value
PUBLIC	??_Gass_synth_priv@@QAEPAXI@Z			; ass_synth_priv::`scalar deleting destructor'
PUBLIC	?spc_ptr@rep_type@?$optimized_key_value@NVass_synth_priv@@Uass_synth_priv_key@@@detail@flyweights@boost@@ABEPAXXZ ; boost::flyweights::detail::optimized_key_value<double,ass_synth_priv,ass_synth_priv_key>::rep_type::spc_ptr
PUBLIC	?value_cted@rep_type@?$optimized_key_value@NVass_synth_priv@@Uass_synth_priv_key@@@detail@flyweights@boost@@ABE_NXZ ; boost::flyweights::detail::optimized_key_value<double,ass_synth_priv,ass_synth_priv_key>::rep_type::value_cted
PUBLIC	?key_ptr@rep_type@?$optimized_key_value@NVass_synth_priv@@Uass_synth_priv_key@@@detail@flyweights@boost@@ABEPANXZ ; boost::flyweights::detail::optimized_key_value<double,ass_synth_priv,ass_synth_priv_key>::rep_type::key_ptr
PUBLIC	??1rep_type@?$optimized_key_value@NVass_synth_priv@@Uass_synth_priv_key@@@detail@flyweights@boost@@QAE@XZ ; boost::flyweights::detail::optimized_key_value<double,ass_synth_priv,ass_synth_priv_key>::rep_type::~rep_type
PUBLIC	??1?$refcounted_value@Vrep_type@?$optimized_key_value@NVass_synth_priv@@Uass_synth_priv_key@@@detail@flyweights@boost@@N@detail@flyweights@boost@@QAE@XZ ; boost::flyweights::detail::refcounted_value<boost::flyweights::detail::optimized_key_value<double,ass_synth_priv,ass_synth_priv_key>::rep_type,double>::~refcounted_value<boost::flyweights::detail::optimized_key_value<double,ass_synth_priv,ass_synth_priv_key>::rep_type,double>
PUBLIC	??_G?$refcounted_value@Vrep_type@?$optimized_key_value@NVass_synth_priv@@Uass_synth_priv_key@@@detail@flyweights@boost@@N@detail@flyweights@boost@@QAEPAXI@Z ; boost::flyweights::detail::refcounted_value<boost::flyweights::detail::optimized_key_value<double,ass_synth_priv,ass_synth_priv_key>::rep_type,double>::`scalar deleting destructor'
PUBLIC	??$destroy@V?$refcounted_value@Vrep_type@?$optimized_key_value@NVass_synth_priv@@Uass_synth_priv_key@@@detail@flyweights@boost@@N@detail@flyweights@boost@@@allocator@detail@boost@@YAXPBV?$refcounted_value@Vrep_type@?$optimized_key_value@NVass_synth_priv@@Uass_synth_priv_key@@@detail@flyweights@boost@@N@1flyweights@2@@Z ; boost::detail::allocator::destroy<boost::flyweights::detail::refcounted_value<boost::flyweights::detail::optimized_key_value<double,ass_synth_priv,ass_synth_priv_key>::rep_type,double> >
PUBLIC	?delete_node_@?$index_base@V?$refcounted_value@Vrep_type@?$optimized_key_value@NVass_synth_priv@@Uass_synth_priv_key@@@detail@flyweights@boost@@N@detail@flyweights@boost@@Uindex_list@?$hashed_factory_class@V?$refcounted_value@Vrep_type@?$optimized_key_value@NVass_synth_priv@@Uass_synth_priv_key@@@detail@flyweights@boost@@N@detail@flyweights@boost@@NUna@mpl@4@U564@U564@@34@V?$allocator@V?$refcounted_value@Vrep_type@?$optimized_key_value@NVass_synth_priv@@Uass_synth_priv_key@@@detail@flyweights@boost@@N@detail@flyweights@boost@@@std@@@detail@multi_index@boost@@IAEXPAU?$index_node_base@V?$refcounted_value@Vrep_type@?$optimized_key_value@NVass_synth_priv@@Uass_synth_priv_key@@@detail@flyweights@boost@@N@detail@flyweights@boost@@V?$allocator@V?$refcounted_value@Vrep_type@?$optimized_key_value@NVass_synth_priv@@Uass_synth_priv_key@@@detail@flyweights@boost@@N@detail@flyweights@boost@@@std@@@234@@Z ; boost::multi_index::detail::index_base<boost::flyweights::detail::refcounted_value<boost::flyweights::detail::optimized_key_value<double,ass_synth_priv,ass_synth_priv_key>::rep_type,double>,boost::flyweights::hashed_factory_class<boost::flyweights::detail::refcounted_value<boost::flyweights::detail::optimized_key_value<double,ass_synth_priv,ass_synth_priv_key>::rep_type,double>,double,boost::mpl::na,boost::mpl::na,boost::mpl::na>::index_list,std::allocator<boost::flyweights::detail::refcounted_value<boost::flyweights::detail::optimized_key_value<double,ass_synth_priv,ass_synth_priv_key>::rep_type,double> > >::delete_node_
PUBLIC	?deallocate@?$allocator@U?$hashed_index_node@U?$index_node_base@V?$refcounted_value@Vrep_type@?$optimized_key_value@NVass_synth_priv@@Uass_synth_priv_key@@@detail@flyweights@boost@@N@detail@flyweights@boost@@V?$allocator@V?$refcounted_value@Vrep_type@?$optimized_key_value@NVass_synth_priv@@Uass_synth_priv_key@@@detail@flyweights@boost@@N@detail@flyweights@boost@@@std@@@detail@multi_index@boost@@@detail@multi_index@boost@@@std@@QAEXPAU?$hashed_index_node@U?$index_node_base@V?$refcounted_value@Vrep_type@?$optimized_key_value@NVass_synth_priv@@Uass_synth_priv_key@@@detail@flyweights@boost@@N@detail@flyweights@boost@@V?$allocator@V?$refcounted_value@Vrep_type@?$optimized_key_value@NVass_synth_priv@@Uass_synth_priv_key@@@detail@flyweights@boost@@N@detail@flyweights@boost@@@std@@@detail@multi_index@boost@@@detail@multi_index@boost@@I@Z ; std::allocator<boost::multi_index::detail::hashed_index_node<boost::multi_index::detail::index_node_base<boost::flyweights::detail::refcounted_value<boost::flyweights::detail::optimized_key_value<double,ass_synth_priv,ass_synth_priv_key>::rep_type,double>,std::allocator<boost::flyweights::detail::refcounted_value<boost::flyweights::detail::optimized_key_value<double,ass_synth_priv,ass_synth_priv_key>::rep_type,double> > > > >::deallocate
PUBLIC	?deallocate_node@?$multi_index_container@V?$refcounted_value@Vrep_type@?$optimized_key_value@NVass_synth_priv@@Uass_synth_priv_key@@@detail@flyweights@boost@@N@detail@flyweights@boost@@Uindex_list@?$hashed_factory_class@V?$refcounted_value@Vrep_type@?$optimized_key_value@NVass_synth_priv@@Uass_synth_priv_key@@@detail@flyweights@boost@@N@detail@flyweights@boost@@NUna@mpl@4@U564@U564@@34@V?$allocator@V?$refcounted_value@Vrep_type@?$optimized_key_value@NVass_synth_priv@@Uass_synth_priv_key@@@detail@flyweights@boost@@N@detail@flyweights@boost@@@std@@@multi_index@boost@@IAEXPAU?$hashed_index_node@U?$index_node_base@V?$refcounted_value@Vrep_type@?$optimized_key_value@NVass_synth_priv@@Uass_synth_priv_key@@@detail@flyweights@boost@@N@detail@flyweights@boost@@V?$allocator@V?$refcounted_value@Vrep_type@?$optimized_key_value@NVass_synth_priv@@Uass_synth_priv_key@@@detail@flyweights@boost@@N@detail@flyweights@boost@@@std@@@detail@multi_index@boost@@@detail@23@@Z ; boost::multi_index::multi_index_container<boost::flyweights::detail::refcounted_value<boost::flyweights::detail::optimized_key_value<double,ass_synth_priv,ass_synth_priv_key>::rep_type,double>,boost::flyweights::hashed_factory_class<boost::flyweights::detail::refcounted_value<boost::flyweights::detail::optimized_key_value<double,ass_synth_priv,ass_synth_priv_key>::rep_type,double>,double,boost::mpl::na,boost::mpl::na,boost::mpl::na>::index_list,std::allocator<boost::flyweights::detail::refcounted_value<boost::flyweights::detail::optimized_key_value<double,ass_synth_priv,ass_synth_priv_key>::rep_type,double> > >::deallocate_node
PUBLIC	?delete_node_@?$multi_index_container@V?$refcounted_value@Vrep_type@?$optimized_key_value@NVass_synth_priv@@Uass_synth_priv_key@@@detail@flyweights@boost@@N@detail@flyweights@boost@@Uindex_list@?$hashed_factory_class@V?$refcounted_value@Vrep_type@?$optimized_key_value@NVass_synth_priv@@Uass_synth_priv_key@@@detail@flyweights@boost@@N@detail@flyweights@boost@@NUna@mpl@4@U564@U564@@34@V?$allocator@V?$refcounted_value@Vrep_type@?$optimized_key_value@NVass_synth_priv@@Uass_synth_priv_key@@@detail@flyweights@boost@@N@detail@flyweights@boost@@@std@@@multi_index@boost@@IAEXPAU?$hashed_index_node@U?$index_node_base@V?$refcounted_value@Vrep_type@?$optimized_key_value@NVass_synth_priv@@Uass_synth_priv_key@@@detail@flyweights@boost@@N@detail@flyweights@boost@@V?$allocator@V?$refcounted_value@Vrep_type@?$optimized_key_value@NVass_synth_priv@@Uass_synth_priv_key@@@detail@flyweights@boost@@N@detail@flyweights@boost@@@std@@@detail@multi_index@boost@@@detail@23@@Z ; boost::multi_index::multi_index_container<boost::flyweights::detail::refcounted_value<boost::flyweights::detail::optimized_key_value<double,ass_synth_priv,ass_synth_priv_key>::rep_type,double>,boost::flyweights::hashed_factory_class<boost::flyweights::detail::refcounted_value<boost::flyweights::detail::optimized_key_value<double,ass_synth_priv,ass_synth_priv_key>::rep_type,double>,double,boost::mpl::na,boost::mpl::na,boost::mpl::na>::index_list,std::allocator<boost::flyweights::detail::refcounted_value<boost::flyweights::detail::optimized_key_value<double,ass_synth_priv,ass_synth_priv_key>::rep_type,double> > >::delete_node_
PUBLIC	?final_delete_node_@?$index_base@V?$refcounted_value@Vrep_type@?$optimized_key_value@NVass_synth_priv@@Uass_synth_priv_key@@@detail@flyweights@boost@@N@detail@flyweights@boost@@Uindex_list@?$hashed_factory_class@V?$refcounted_value@Vrep_type@?$optimized_key_value@NVass_synth_priv@@Uass_synth_priv_key@@@detail@flyweights@boost@@N@detail@flyweights@boost@@NUna@mpl@4@U564@U564@@34@V?$allocator@V?$refcounted_value@Vrep_type@?$optimized_key_value@NVass_synth_priv@@Uass_synth_priv_key@@@detail@flyweights@boost@@N@detail@flyweights@boost@@@std@@@detail@multi_index@boost@@IAEXPAU?$hashed_index_node@U?$index_node_base@V?$refcounted_value@Vrep_type@?$optimized_key_value@NVass_synth_priv@@Uass_synth_priv_key@@@detail@flyweights@boost@@N@detail@flyweights@boost@@V?$allocator@V?$refcounted_value@Vrep_type@?$optimized_key_value@NVass_synth_priv@@Uass_synth_priv_key@@@detail@flyweights@boost@@N@detail@flyweights@boost@@@std@@@detail@multi_index@boost@@@234@@Z ; boost::multi_index::detail::index_base<boost::flyweights::detail::refcounted_value<boost::flyweights::detail::optimized_key_value<double,ass_synth_priv,ass_synth_priv_key>::rep_type,double>,boost::flyweights::hashed_factory_class<boost::flyweights::detail::refcounted_value<boost::flyweights::detail::optimized_key_value<double,ass_synth_priv,ass_synth_priv_key>::rep_type,double>,double,boost::mpl::na,boost::mpl::na,boost::mpl::na>::index_list,std::allocator<boost::flyweights::detail::refcounted_value<boost::flyweights::detail::optimized_key_value<double,ass_synth_priv,ass_synth_priv_key>::rep_type,double> > >::final_delete_node_
PUBLIC	?from_impl@?$hashed_index_node@U?$index_node_base@V?$refcounted_value@Vrep_type@?$optimized_key_value@NVass_synth_priv@@Uass_synth_priv_key@@@detail@flyweights@boost@@N@detail@flyweights@boost@@V?$allocator@V?$refcounted_value@Vrep_type@?$optimized_key_value@NVass_synth_priv@@Uass_synth_priv_key@@@detail@flyweights@boost@@N@detail@flyweights@boost@@@std@@@detail@multi_index@boost@@@detail@multi_index@boost@@SAPAU1234@PAU?$hashed_index_node_impl@V?$allocator@D@std@@@234@@Z ; boost::multi_index::detail::hashed_index_node<boost::multi_index::detail::index_node_base<boost::flyweights::detail::refcounted_value<boost::flyweights::detail::optimized_key_value<double,ass_synth_priv,ass_synth_priv_key>::rep_type,double>,std::allocator<boost::flyweights::detail::refcounted_value<boost::flyweights::detail::optimized_key_value<double,ass_synth_priv,ass_synth_priv_key>::rep_type,double> > > >::from_impl
PUBLIC	?begin@?$bucket_array@V?$allocator@V?$refcounted_value@Vrep_type@?$optimized_key_value@NVass_synth_priv@@Uass_synth_priv_key@@@detail@flyweights@boost@@N@detail@flyweights@boost@@@std@@@detail@multi_index@boost@@QBEPAU?$hashed_index_node_impl@V?$allocator@D@std@@@234@XZ ; boost::multi_index::detail::bucket_array<std::allocator<boost::flyweights::detail::refcounted_value<boost::flyweights::detail::optimized_key_value<double,ass_synth_priv,ass_synth_priv_key>::rep_type,double> > >::begin
PUBLIC	?data@?$auto_space@U?$hashed_index_node_impl@V?$allocator@D@std@@@detail@multi_index@boost@@V?$allocator@V?$refcounted_value@Vrep_type@?$optimized_key_value@NVass_synth_priv@@Uass_synth_priv_key@@@detail@flyweights@boost@@N@detail@flyweights@boost@@@std@@@detail@multi_index@boost@@QBEPAU?$hashed_index_node_impl@V?$allocator@D@std@@@234@XZ ; boost::multi_index::detail::auto_space<boost::multi_index::detail::hashed_index_node_impl<std::allocator<char> >,std::allocator<boost::flyweights::detail::refcounted_value<boost::flyweights::detail::optimized_key_value<double,ass_synth_priv,ass_synth_priv_key>::rep_type,double> > >::data
PUBLIC	?buckets@?$bucket_array@V?$allocator@V?$refcounted_value@Vrep_type@?$optimized_key_value@NVass_synth_priv@@Uass_synth_priv_key@@@detail@flyweights@boost@@N@detail@flyweights@boost@@@std@@@detail@multi_index@boost@@ABEPAU?$hashed_index_node_impl@V?$allocator@D@std@@@234@XZ ; boost::multi_index::detail::bucket_array<std::allocator<boost::flyweights::detail::refcounted_value<boost::flyweights::detail::optimized_key_value<double,ass_synth_priv,ass_synth_priv_key>::rep_type,double> > >::buckets
PUBLIC	?end@?$bucket_array@V?$allocator@V?$refcounted_value@Vrep_type@?$optimized_key_value@NVass_synth_priv@@Uass_synth_priv_key@@@detail@flyweights@boost@@N@detail@flyweights@boost@@@std@@@detail@multi_index@boost@@QBEPAU?$hashed_index_node_impl@V?$allocator@D@std@@@234@XZ ; boost::multi_index::detail::bucket_array<std::allocator<boost::flyweights::detail::refcounted_value<boost::flyweights::detail::optimized_key_value<double,ass_synth_priv,ass_synth_priv_key>::rep_type,double> > >::end
PUBLIC	?delete_all_nodes_@?$hashed_index@U?$identity@V?$refcounted_value@Vrep_type@?$optimized_key_value@NVass_synth_priv@@Uass_synth_priv_key@@@detail@flyweights@boost@@N@detail@flyweights@boost@@@multi_index@boost@@U?$hash@N@3@U?$equal_to@N@std@@U?$nth_layer@$00V?$refcounted_value@Vrep_type@?$optimized_key_value@NVass_synth_priv@@Uass_synth_priv_key@@@detail@flyweights@boost@@N@detail@flyweights@boost@@Uindex_list@?$hashed_factory_class@V?$refcounted_value@Vrep_type@?$optimized_key_value@NVass_synth_priv@@Uass_synth_priv_key@@@detail@flyweights@boost@@N@detail@flyweights@boost@@NUna@mpl@4@U564@U564@@34@V?$allocator@V?$refcounted_value@Vrep_type@?$optimized_key_value@NVass_synth_priv@@Uass_synth_priv_key@@@detail@flyweights@boost@@N@detail@flyweights@boost@@@std@@@detail@23@U?$vector0@Una@mpl@boost@@@mpl@3@Uhashed_unique_tag@823@@detail@multi_index@boost@@IAEXXZ ; boost::multi_index::detail::hashed_index<boost::multi_index::identity<boost::flyweights::detail::refcounted_value<boost::flyweights::detail::optimized_key_value<double,ass_synth_priv,ass_synth_priv_key>::rep_type,double> >,boost::hash<double>,std::equal_to<double>,boost::multi_index::detail::nth_layer<1,boost::flyweights::detail::refcounted_value<boost::flyweights::detail::optimized_key_value<double,ass_synth_priv,ass_synth_priv_key>::rep_type,double>,boost::flyweights::hashed_factory_class<boost::flyweights::detail::refcounted_value<boost::flyweights::detail::optimized_key_value<double,ass_synth_priv,ass_synth_priv_key>::rep_type,double>,double,boost::mpl::na,boost::mpl::na,boost::mpl::na>::index_list,std::allocator<boost::flyweights::detail::refcounted_value<boost::flyweights::detail::optimized_key_value<double,ass_synth_priv,ass_synth_priv_key>::rep_type,double> > >,boost::mpl::vector0<boost::mpl::na>,boost::multi_index::detail::hashed_unique_tag>::delete_all_nodes_
PUBLIC	?delete_all_nodes_@?$multi_index_container@V?$refcounted_value@Vrep_type@?$optimized_key_value@NVass_synth_priv@@Uass_synth_priv_key@@@detail@flyweights@boost@@N@detail@flyweights@boost@@Uindex_list@?$hashed_factory_class@V?$refcounted_value@Vrep_type@?$optimized_key_value@NVass_synth_priv@@Uass_synth_priv_key@@@detail@flyweights@boost@@N@detail@flyweights@boost@@NUna@mpl@4@U564@U564@@34@V?$allocator@V?$refcounted_value@Vrep_type@?$optimized_key_value@NVass_synth_priv@@Uass_synth_priv_key@@@detail@flyweights@boost@@N@detail@flyweights@boost@@@std@@@multi_index@boost@@IAEXXZ ; boost::multi_index::multi_index_container<boost::flyweights::detail::refcounted_value<boost::flyweights::detail::optimized_key_value<double,ass_synth_priv,ass_synth_priv_key>::rep_type,double>,boost::flyweights::hashed_factory_class<boost::flyweights::detail::refcounted_value<boost::flyweights::detail::optimized_key_value<double,ass_synth_priv,ass_synth_priv_key>::rep_type,double>,double,boost::mpl::na,boost::mpl::na,boost::mpl::na>::index_list,std::allocator<boost::flyweights::detail::refcounted_value<boost::flyweights::detail::optimized_key_value<double,ass_synth_priv,ass_synth_priv_key>::rep_type,double> > >::delete_all_nodes_
PUBLIC	??1?$multi_index_container@V?$refcounted_value@Vrep_type@?$optimized_key_value@NVass_synth_priv@@Uass_synth_priv_key@@@detail@flyweights@boost@@N@detail@flyweights@boost@@Uindex_list@?$hashed_factory_class@V?$refcounted_value@Vrep_type@?$optimized_key_value@NVass_synth_priv@@Uass_synth_priv_key@@@detail@flyweights@boost@@N@detail@flyweights@boost@@NUna@mpl@4@U564@U564@@34@V?$allocator@V?$refcounted_value@Vrep_type@?$optimized_key_value@NVass_synth_priv@@Uass_synth_priv_key@@@detail@flyweights@boost@@N@detail@flyweights@boost@@@std@@@multi_index@boost@@QAE@XZ ; boost::multi_index::multi_index_container<boost::flyweights::detail::refcounted_value<boost::flyweights::detail::optimized_key_value<double,ass_synth_priv,ass_synth_priv_key>::rep_type,double>,boost::flyweights::hashed_factory_class<boost::flyweights::detail::refcounted_value<boost::flyweights::detail::optimized_key_value<double,ass_synth_priv,ass_synth_priv_key>::rep_type,double>,double,boost::mpl::na,boost::mpl::na,boost::mpl::na>::index_list,std::allocator<boost::flyweights::detail::refcounted_value<boost::flyweights::detail::optimized_key_value<double,ass_synth_priv,ass_synth_priv_key>::rep_type,double> > >::~multi_index_container<boost::flyweights::detail::refcounted_value<boost::flyweights::detail::optimized_key_value<double,ass_synth_priv,ass_synth_priv_key>::rep_type,double>,boost::flyweights::hashed_factory_class<boost::flyweights::detail::refcounted_value<boost::flyweights::detail::optimized_key_value<double,ass_synth_priv,ass_synth_priv_key>::rep_type,double>,double,boost::mpl::na,boost::mpl::na,boost::mpl::na>::index_list,std::allocator<boost::flyweights::detail::refcounted_value<boost::flyweights::detail::optimized_key_value<double,ass_synth_priv,ass_synth_priv_key>::rep_type,double> > >
PUBLIC	??1?$hashed_factory_class@V?$refcounted_value@Vrep_type@?$optimized_key_value@NVass_synth_priv@@Uass_synth_priv_key@@@detail@flyweights@boost@@N@detail@flyweights@boost@@NUna@mpl@4@U564@U564@@flyweights@boost@@QAE@XZ ; boost::flyweights::hashed_factory_class<boost::flyweights::detail::refcounted_value<boost::flyweights::detail::optimized_key_value<double,ass_synth_priv,ass_synth_priv_key>::rep_type,double>,double,boost::mpl::na,boost::mpl::na,boost::mpl::na>::~hashed_factory_class<boost::flyweights::detail::refcounted_value<boost::flyweights::detail::optimized_key_value<double,ass_synth_priv,ass_synth_priv_key>::rep_type,double>,double,boost::mpl::na,boost::mpl::na,boost::mpl::na>
PUBLIC	??1holder_arg@?$flyweight_core@U?$key_value@NVass_synth_priv@@Uass_synth_priv_key@@@flyweights@boost@@Una@mpl@3@Urefcounted@23@U?$hashed_factory@Una@mpl@boost@@U123@U123@$0A@@23@Uno_locking@23@Ustatic_holder@23@@detail@flyweights@boost@@QAE@XZ ; boost::flyweights::detail::flyweight_core<boost::flyweights::key_value<double,ass_synth_priv,ass_synth_priv_key>,boost::mpl::na,boost::flyweights::refcounted,boost::flyweights::hashed_factory<boost::mpl::na,boost::mpl::na,boost::mpl::na,0>,boost::flyweights::no_locking,boost::flyweights::static_holder>::holder_arg::~holder_arg
PUBLIC	??__Fc@?1??get@?$static_holder_class@Uholder_arg@?$flyweight_core@U?$key_value@NVass_synth_priv@@Uass_synth_priv_key@@@flyweights@boost@@Una@mpl@3@Urefcounted@23@U?$hashed_factory@Una@mpl@boost@@U123@U123@$0A@@23@Uno_locking@23@Ustatic_holder@23@@detail@flyweights@boost@@@flyweights@boost@@SAAAUholder_arg@?$flyweight_core@U?$key_value@NVass_synth_priv@@Uass_synth_priv_key@@@flyweights@boost@@Una@mpl@3@Urefcounted@23@U?$hashed_factory@Una@mpl@boost@@U123@U123@$0A@@23@Uno_locking@23@Ustatic_holder@23@@detail@23@XZ@YAXXZ ; `boost::flyweights::static_holder_class<boost::flyweights::detail::flyweight_core<boost::flyweights::key_value<double,ass_synth_priv,ass_synth_priv_key>,boost::mpl::na,boost::flyweights::refcounted,boost::flyweights::hashed_factory<boost::mpl::na,boost::mpl::na,boost::mpl::na,0>,boost::flyweights::no_locking,boost::flyweights::static_holder>::holder_arg>::get'::`2'::`dynamic atexit destructor for 'c''
PUBLIC	?get@?$static_holder_class@Uholder_arg@?$flyweight_core@U?$key_value@NVass_synth_priv@@Uass_synth_priv_key@@@flyweights@boost@@Una@mpl@3@Urefcounted@23@U?$hashed_factory@Una@mpl@boost@@U123@U123@$0A@@23@Uno_locking@23@Ustatic_holder@23@@detail@flyweights@boost@@@flyweights@boost@@SAAAUholder_arg@?$flyweight_core@U?$key_value@NVass_synth_priv@@Uass_synth_priv_key@@@flyweights@boost@@Una@mpl@3@Urefcounted@23@U?$hashed_factory@Una@mpl@boost@@U123@U123@$0A@@23@Uno_locking@23@Ustatic_holder@23@@detail@23@XZ ; boost::flyweights::static_holder_class<boost::flyweights::detail::flyweight_core<boost::flyweights::key_value<double,ass_synth_priv,ass_synth_priv_key>,boost::mpl::na,boost::flyweights::refcounted,boost::flyweights::hashed_factory<boost::mpl::na,boost::mpl::na,boost::mpl::na,0>,boost::flyweights::no_locking,boost::flyweights::static_holder>::holder_arg>::get
PUBLIC	?init@?$flyweight_core@U?$key_value@NVass_synth_priv@@Uass_synth_priv_key@@@flyweights@boost@@Una@mpl@3@Urefcounted@23@U?$hashed_factory@Una@mpl@boost@@U123@U123@$0A@@23@Uno_locking@23@Ustatic_holder@23@@detail@flyweights@boost@@SA_NXZ ; boost::flyweights::detail::flyweight_core<boost::flyweights::key_value<double,ass_synth_priv,ass_synth_priv_key>,boost::mpl::na,boost::flyweights::refcounted,boost::flyweights::hashed_factory<boost::mpl::na,boost::mpl::na,boost::mpl::na,0>,boost::flyweights::no_locking,boost::flyweights::static_holder>::init
PUBLIC	?static_factory_ptr@?$flyweight_core@U?$key_value@NVass_synth_priv@@Uass_synth_priv_key@@@flyweights@boost@@Una@mpl@3@Urefcounted@23@U?$hashed_factory@Una@mpl@boost@@U123@U123@$0A@@23@Uno_locking@23@Ustatic_holder@23@@detail@flyweights@boost@@0PAV?$hashed_factory_class@V?$refcounted_value@Vrep_type@?$optimized_key_value@NVass_synth_priv@@Uass_synth_priv_key@@@detail@flyweights@boost@@N@detail@flyweights@boost@@NUna@mpl@4@U564@U564@@34@A ; boost::flyweights::detail::flyweight_core<boost::flyweights::key_value<double,ass_synth_priv,ass_synth_priv_key>,boost::mpl::na,boost::flyweights::refcounted,boost::flyweights::hashed_factory<boost::mpl::na,boost::mpl::na,boost::mpl::na,0>,boost::flyweights::no_locking,boost::flyweights::static_holder>::static_factory_ptr
PUBLIC	?static_mutex_ptr@?$flyweight_core@U?$key_value@NVass_synth_priv@@Uass_synth_priv_key@@@flyweights@boost@@Una@mpl@3@Urefcounted@23@U?$hashed_factory@Una@mpl@boost@@U123@U123@$0A@@23@Uno_locking@23@Ustatic_holder@23@@detail@flyweights@boost@@0PAUmutex_type@no_locking@34@A ; boost::flyweights::detail::flyweight_core<boost::flyweights::key_value<double,ass_synth_priv,ass_synth_priv_key>,boost::mpl::na,boost::flyweights::refcounted,boost::flyweights::hashed_factory<boost::mpl::na,boost::mpl::na,boost::mpl::na,0>,boost::flyweights::no_locking,boost::flyweights::static_holder>::static_mutex_ptr
PUBLIC	??_7ScanLineData@@6B@				; ScanLineData::`vftable'
EXTRN	_ceil:PROC
EXTRN	_ldexp:PROC
EXTRN	_frexp:PROC
EXTRN	__imp__BeginPath@4:PROC
EXTRN	__imp__DebugBreak@0:PROC
EXTRN	__imp__AbortPath@4:PROC
EXTRN	__imp__CloseFigure@4:PROC
EXTRN	__imp__EndPath@4:PROC
EXTRN	__imp__GetPath@16:PROC
EXTRN	??_EScanLineData@@UAEPAXI@Z:PROC		; ScanLineData::`vector deleting destructor'
;	COMDAT ?static_factory_ptr@?$flyweight_core@U?$key_value@NVass_synth_priv@@Uass_synth_priv_key@@@flyweights@boost@@Una@mpl@3@Urefcounted@23@U?$hashed_factory@Una@mpl@boost@@U123@U123@$0A@@23@Uno_locking@23@Ustatic_holder@23@@detail@flyweights@boost@@0PAV?$hashed_factory_class@V?$refcounted_value@Vrep_type@?$optimized_key_value@NVass_synth_priv@@Uass_synth_priv_key@@@detail@flyweights@boost@@N@detail@flyweights@boost@@NUna@mpl@4@U564@U564@@34@A
_BSS	SEGMENT
?static_factory_ptr@?$flyweight_core@U?$key_value@NVass_synth_priv@@Uass_synth_priv_key@@@flyweights@boost@@Una@mpl@3@Urefcounted@23@U?$hashed_factory@Una@mpl@boost@@U123@U123@$0A@@23@Uno_locking@23@Ustatic_holder@23@@detail@flyweights@boost@@0PAV?$hashed_factory_class@V?$refcounted_value@Vrep_type@?$optimized_key_value@NVass_synth_priv@@Uass_synth_priv_key@@@detail@flyweights@boost@@N@detail@flyweights@boost@@NUna@mpl@4@U564@U564@@34@A DD 01H DUP (?) ; boost::flyweights::detail::flyweight_core<boost::flyweights::key_value<double,ass_synth_priv,ass_synth_priv_key>,boost::mpl::na,boost::flyweights::refcounted,boost::flyweights::hashed_factory<boost::mpl::na,boost::mpl::na,boost::mpl::na,0>,boost::flyweights::no_locking,boost::flyweights::static_holder>::static_factory_ptr
_BSS	ENDS
;	COMDAT ?static_mutex_ptr@?$flyweight_core@U?$key_value@NVass_synth_priv@@Uass_synth_priv_key@@@flyweights@boost@@Una@mpl@3@Urefcounted@23@U?$hashed_factory@Una@mpl@boost@@U123@U123@$0A@@23@Uno_locking@23@Ustatic_holder@23@@detail@flyweights@boost@@0PAUmutex_type@no_locking@34@A
_BSS	SEGMENT
?static_mutex_ptr@?$flyweight_core@U?$key_value@NVass_synth_priv@@Uass_synth_priv_key@@@flyweights@boost@@Una@mpl@3@Urefcounted@23@U?$hashed_factory@Una@mpl@boost@@U123@U123@$0A@@23@Uno_locking@23@Ustatic_holder@23@@detail@flyweights@boost@@0PAUmutex_type@no_locking@34@A DD 01H DUP (?) ; boost::flyweights::detail::flyweight_core<boost::flyweights::key_value<double,ass_synth_priv,ass_synth_priv_key>,boost::mpl::na,boost::flyweights::refcounted,boost::flyweights::hashed_factory<boost::mpl::na,boost::mpl::na,boost::mpl::na,0>,boost::flyweights::no_locking,boost::flyweights::static_holder>::static_mutex_ptr
PUBLIC	??_R4?$Array@TSpan@Rasterizer@ssf@@@ssf@@6B@	; ssf::Array<ssf::Rasterizer::Span>::`RTTI Complete Object Locator'
PUBLIC	??_R3?$Array@TSpan@Rasterizer@ssf@@@ssf@@8	; ssf::Array<ssf::Rasterizer::Span>::`RTTI Class Hierarchy Descriptor'
PUBLIC	??_R2?$Array@TSpan@Rasterizer@ssf@@@ssf@@8	; ssf::Array<ssf::Rasterizer::Span>::`RTTI Base Class Array'
PUBLIC	??_R1A@?0A@EA@?$Array@TSpan@Rasterizer@ssf@@@ssf@@8 ; ssf::Array<ssf::Rasterizer::Span>::`RTTI Base Class Descriptor at (0,-1,0,64)'
PUBLIC	??_R0?AV?$Array@TSpan@Rasterizer@ssf@@@ssf@@@8	; ssf::Array<ssf::Rasterizer::Span> `RTTI Type Descriptor'
PUBLIC	??_R4Rasterizer@ssf@@6B@			; ssf::Rasterizer::`RTTI Complete Object Locator'
PUBLIC	??_R3Rasterizer@ssf@@8				; ssf::Rasterizer::`RTTI Class Hierarchy Descriptor'
PUBLIC	??_R2Rasterizer@ssf@@8				; ssf::Rasterizer::`RTTI Base Class Array'
PUBLIC	??_R1A@?0A@EA@Rasterizer@ssf@@8			; ssf::Rasterizer::`RTTI Base Class Descriptor at (0,-1,0,64)'
PUBLIC	??_R0?AVRasterizer@ssf@@@8			; ssf::Rasterizer `RTTI Type Descriptor'
PUBLIC	??0?$Array@TSpan@Rasterizer@ssf@@@ssf@@QAE@XZ	; ssf::Array<ssf::Rasterizer::Span>::Array<ssf::Rasterizer::Span>
PUBLIC	??_G?$Array@TSpan@Rasterizer@ssf@@@ssf@@UAEPAXI@Z ; ssf::Array<ssf::Rasterizer::Span>::`scalar deleting destructor'
PUBLIC	??1?$Array@TSpan@Rasterizer@ssf@@@ssf@@UAE@XZ	; ssf::Array<ssf::Rasterizer::Span>::~Array<ssf::Rasterizer::Span>
PUBLIC	??_GRasterizer@ssf@@UAEPAXI@Z			; ssf::Rasterizer::`scalar deleting destructor'
PUBLIC	?RemoveAll@?$Array@TSpan@Rasterizer@ssf@@@ssf@@QAEXXZ ; ssf::Array<ssf::Rasterizer::Span>::RemoveAll
PUBLIC	??0Span@Rasterizer@ssf@@QAE@XZ			; ssf::Rasterizer::Span::Span
PUBLIC	??0Span@Rasterizer@ssf@@QAE@HHHH@Z		; ssf::Rasterizer::Span::Span
PUBLIC	??0Span@Rasterizer@ssf@@QAE@_K0@Z		; ssf::Rasterizer::Span::Span
PUBLIC	?Add@?$Array@TSpan@Rasterizer@ssf@@@ssf@@QAEXABTSpan@Rasterizer@2@@Z ; ssf::Array<ssf::Rasterizer::Span>::Add
PUBLIC	?Append@?$Array@TSpan@Rasterizer@ssf@@@ssf@@QAEXPBTSpan@Rasterizer@2@II@Z ; ssf::Array<ssf::Rasterizer::Span>::Append
PUBLIC	??$mymax@_K@ssf@@YA_K_K0@Z			; ssf::mymax<unsigned __int64>
PUBLIC	?GetCount@?$Array@TSpan@Rasterizer@ssf@@@ssf@@QBEIXZ ; ssf::Array<ssf::Rasterizer::Span>::GetCount
PUBLIC	?IsEmpty@?$Array@TSpan@Rasterizer@ssf@@@ssf@@QBE_NXZ ; ssf::Array<ssf::Rasterizer::Span>::IsEmpty
PUBLIC	?GetData@?$Array@TSpan@Rasterizer@ssf@@@ssf@@QAEPATSpan@Rasterizer@2@XZ ; ssf::Array<ssf::Rasterizer::Span>::GetData
PUBLIC	?SetCount@?$Array@TSpan@Rasterizer@ssf@@@ssf@@QAEXII@Z ; ssf::Array<ssf::Rasterizer::Span>::SetCount
PUBLIC	?Swap@?$Array@TSpan@Rasterizer@ssf@@@ssf@@QAEXAAV12@@Z ; ssf::Array<ssf::Rasterizer::Span>::Swap
PUBLIC	?Move@?$Array@TSpan@Rasterizer@ssf@@@ssf@@QAEXAAV12@@Z ; ssf::Array<ssf::Rasterizer::Span>::Move
PUBLIC	??_7Rasterizer@ssf@@6B@				; ssf::Rasterizer::`vftable'
PUBLIC	??_7?$Array@TSpan@Rasterizer@ssf@@@ssf@@6B@	; ssf::Array<ssf::Rasterizer::Span>::`vftable'
EXTRN	__aligned_free:PROC
EXTRN	??_E?$Array@TSpan@Rasterizer@ssf@@@ssf@@UAEPAXI@Z:PROC ; ssf::Array<ssf::Rasterizer::Span>::`vector deleting destructor'
EXTRN	??_ERasterizer@ssf@@UAEPAXI@Z:PROC		; ssf::Rasterizer::`vector deleting destructor'
EXTRN	__aligned_malloc:PROC
EXTRN	__aligned_realloc:PROC
;	COMDAT ??_7ScanLineData@@6B@
CONST	SEGMENT
??_7ScanLineData@@6B@ DD FLAT:??_R4ScanLineData@@6B@	; ScanLineData::`vftable'
	DD	FLAT:??_EScanLineData@@UAEPAXI@Z
CONST	ENDS
;	COMDAT ??_R4ScanLineData@@6B@
rdata$r	SEGMENT
??_R4ScanLineData@@6B@ DD 00H				; ScanLineData::`RTTI Complete Object Locator'
	DD	00H
	DD	00H
	DD	FLAT:??_R0?AVScanLineData@@@8
	DD	FLAT:??_R3ScanLineData@@8
rdata$r	ENDS
;	COMDAT ??_R3ScanLineData@@8
rdata$r	SEGMENT
??_R3ScanLineData@@8 DD 00H				; ScanLineData::`RTTI Class Hierarchy Descriptor'
	DD	00H
	DD	01H
	DD	FLAT:??_R2ScanLineData@@8
rdata$r	ENDS
;	COMDAT ??_R2ScanLineData@@8
rdata$r	SEGMENT
??_R2ScanLineData@@8 DD FLAT:??_R1A@?0A@EA@ScanLineData@@8 ; ScanLineData::`RTTI Base Class Array'
rdata$r	ENDS
;	COMDAT ??_R1A@?0A@EA@ScanLineData@@8
rdata$r	SEGMENT
??_R1A@?0A@EA@ScanLineData@@8 DD FLAT:??_R0?AVScanLineData@@@8 ; ScanLineData::`RTTI Base Class Descriptor at (0,-1,0,64)'
	DD	00H
	DD	00H
	DD	0ffffffffH
	DD	00H
	DD	040H
	DD	FLAT:??_R3ScanLineData@@8
rdata$r	ENDS
;	COMDAT ??_R0?AVScanLineData@@@8
_DATA	SEGMENT
??_R0?AVScanLineData@@@8 DD FLAT:??_7type_info@@6B@	; ScanLineData `RTTI Type Descriptor'
	DD	00H
	DB	'.?AVScanLineData@@', 00H
;	COMDAT ??_7?$Array@TSpan@Rasterizer@ssf@@@ssf@@6B@
CONST	SEGMENT
??_7?$Array@TSpan@Rasterizer@ssf@@@ssf@@6B@ DD FLAT:??_R4?$Array@TSpan@Rasterizer@ssf@@@ssf@@6B@ ; ssf::Array<ssf::Rasterizer::Span>::`vftable'
	DD	FLAT:??_E?$Array@TSpan@Rasterizer@ssf@@@ssf@@UAEPAXI@Z
CONST	ENDS
;	COMDAT ??_R4?$Array@TSpan@Rasterizer@ssf@@@ssf@@6B@
rdata$r	SEGMENT
??_R4?$Array@TSpan@Rasterizer@ssf@@@ssf@@6B@ DD 00H	; ssf::Array<ssf::Rasterizer::Span>::`RTTI Complete Object Locator'
	DD	00H
	DD	00H
	DD	FLAT:??_R0?AV?$Array@TSpan@Rasterizer@ssf@@@ssf@@@8
	DD	FLAT:??_R3?$Array@TSpan@Rasterizer@ssf@@@ssf@@8
rdata$r	ENDS
;	COMDAT ??_R3?$Array@TSpan@Rasterizer@ssf@@@ssf@@8
rdata$r	SEGMENT
??_R3?$Array@TSpan@Rasterizer@ssf@@@ssf@@8 DD 00H	; ssf::Array<ssf::Rasterizer::Span>::`RTTI Class Hierarchy Descriptor'
	DD	00H
	DD	01H
	DD	FLAT:??_R2?$Array@TSpan@Rasterizer@ssf@@@ssf@@8
rdata$r	ENDS
;	COMDAT ??_R2?$Array@TSpan@Rasterizer@ssf@@@ssf@@8
rdata$r	SEGMENT
??_R2?$Array@TSpan@Rasterizer@ssf@@@ssf@@8 DD FLAT:??_R1A@?0A@EA@?$Array@TSpan@Rasterizer@ssf@@@ssf@@8 ; ssf::Array<ssf::Rasterizer::Span>::`RTTI Base Class Array'
rdata$r	ENDS
;	COMDAT ??_R1A@?0A@EA@?$Array@TSpan@Rasterizer@ssf@@@ssf@@8
rdata$r	SEGMENT
??_R1A@?0A@EA@?$Array@TSpan@Rasterizer@ssf@@@ssf@@8 DD FLAT:??_R0?AV?$Array@TSpan@Rasterizer@ssf@@@ssf@@@8 ; ssf::Array<ssf::Rasterizer::Span>::`RTTI Base Class Descriptor at (0,-1,0,64)'
	DD	00H
	DD	00H
	DD	0ffffffffH
	DD	00H
	DD	040H
	DD	FLAT:??_R3?$Array@TSpan@Rasterizer@ssf@@@ssf@@8
rdata$r	ENDS
;	COMDAT ??_R0?AV?$Array@TSpan@Rasterizer@ssf@@@ssf@@@8
_DATA	SEGMENT
??_R0?AV?$Array@TSpan@Rasterizer@ssf@@@ssf@@@8 DD FLAT:??_7type_info@@6B@ ; ssf::Array<ssf::Rasterizer::Span> `RTTI Type Descriptor'
	DD	00H
	DB	'.?AV?$Array@TSpan@Rasterizer@ssf@@@ssf@@', 00H
_DATA	ENDS
;	COMDAT ??_7Rasterizer@ssf@@6B@
CONST	SEGMENT
??_7Rasterizer@ssf@@6B@ DD FLAT:??_R4Rasterizer@ssf@@6B@ ; ssf::Rasterizer::`vftable'
	DD	FLAT:??_ERasterizer@ssf@@UAEPAXI@Z
CONST	ENDS
;	COMDAT ??_R4Rasterizer@ssf@@6B@
rdata$r	SEGMENT
??_R4Rasterizer@ssf@@6B@ DD 00H				; ssf::Rasterizer::`RTTI Complete Object Locator'
	DD	00H
	DD	00H
	DD	FLAT:??_R0?AVRasterizer@ssf@@@8
	DD	FLAT:??_R3Rasterizer@ssf@@8
rdata$r	ENDS
;	COMDAT ??_R3Rasterizer@ssf@@8
rdata$r	SEGMENT
??_R3Rasterizer@ssf@@8 DD 00H				; ssf::Rasterizer::`RTTI Class Hierarchy Descriptor'
	DD	00H
	DD	01H
	DD	FLAT:??_R2Rasterizer@ssf@@8
rdata$r	ENDS
;	COMDAT ??_R2Rasterizer@ssf@@8
rdata$r	SEGMENT
??_R2Rasterizer@ssf@@8 DD FLAT:??_R1A@?0A@EA@Rasterizer@ssf@@8 ; ssf::Rasterizer::`RTTI Base Class Array'
rdata$r	ENDS
;	COMDAT ??_R1A@?0A@EA@Rasterizer@ssf@@8
rdata$r	SEGMENT
??_R1A@?0A@EA@Rasterizer@ssf@@8 DD FLAT:??_R0?AVRasterizer@ssf@@@8 ; ssf::Rasterizer::`RTTI Base Class Descriptor at (0,-1,0,64)'
	DD	00H
	DD	00H
	DD	0ffffffffH
	DD	00H
	DD	040H
	DD	FLAT:??_R3Rasterizer@ssf@@8
rdata$r	ENDS
;	COMDAT ??_R0?AVRasterizer@ssf@@@8
_DATA	SEGMENT
??_R0?AVRasterizer@ssf@@@8 DD FLAT:??_7type_info@@6B@	; ssf::Rasterizer `RTTI Type Descriptor'
	DD	00H
	DB	'.?AVRasterizer@ssf@@', 00H
; Function compile flags: /Ogtp
; File e:\github\codesandnotes\xy-vsfilter\src\subtitles\libssf\rasterizer.cpp
_DATA	ENDS
;	COMDAT ??$mymax@_K@ssf@@YA_K_K0@Z
_TEXT	SEGMENT
_a$ = 8							; size = 8
_b$ = 16						; size = 8
??$mymax@_K@ssf@@YA_K_K0@Z PROC				; ssf::mymax<unsigned __int64>, COMDAT

; 37   : 	template<class T> T mymax(T a, T b) {return a > b ? a : b;}

	push	ebp
	mov	ebp, esp
	mov	ecx, DWORD PTR _a$[ebp+4]
	mov	edx, DWORD PTR _b$[ebp+4]
	push	esi
	mov	esi, DWORD PTR _b$[ebp]
	cmp	ecx, edx
	jb	SHORT $LN3@mymax
	mov	eax, DWORD PTR _a$[ebp]
	ja	SHORT $LN5@mymax
	cmp	eax, esi
	jbe	SHORT $LN3@mymax
$LN5@mymax:
	mov	edx, ecx
	pop	esi
	pop	ebp
	ret	0
$LN3@mymax:
	mov	eax, esi
	pop	esi
	pop	ebp
	ret	0
??$mymax@_K@ssf@@YA_K_K0@Z ENDP				; ssf::mymax<unsigned __int64>
; Function compile flags: /Ogtp
; File e:\github\codesandnotes\xy-vsfilter\src\subtitles\libssf\array.h
_TEXT	ENDS
;	COMDAT ?Swap@?$Array@TSpan@Rasterizer@ssf@@@ssf@@QAEXAAV12@@Z
_TEXT	SEGMENT
?Swap@?$Array@TSpan@Rasterizer@ssf@@@ssf@@QAEXAAV12@@Z PROC ; ssf::Array<ssf::Rasterizer::Span>::Swap, COMDAT
; _this$ = ecx
; _v$ = eax

; 102  : 			T* pData = m_pData; m_pData = v.m_pData; v.m_pData = pData;

	mov	edx, DWORD PTR [ecx+4]
	push	esi
	mov	esi, DWORD PTR [eax+4]
	mov	DWORD PTR [ecx+4], esi

; 103  : 			size_t nSize = m_nSize; m_nSize = v.m_nSize; v.m_nSize = nSize;

	mov	esi, DWORD PTR [eax+8]
	mov	DWORD PTR [eax+4], edx
	mov	edx, DWORD PTR [ecx+8]
	mov	DWORD PTR [ecx+8], esi

; 104  : 			size_t nMaxSize = m_nMaxSize; m_nMaxSize = v.m_nMaxSize; v.m_nMaxSize = nMaxSize;

	mov	esi, DWORD PTR [eax+12]
	mov	DWORD PTR [eax+8], edx
	mov	edx, DWORD PTR [ecx+12]
	mov	DWORD PTR [ecx+12], esi

; 105  : 			size_t nGrowBy = m_nGrowBy; m_nGrowBy = v.m_nGrowBy; v.m_nGrowBy = nGrowBy;

	mov	esi, DWORD PTR [eax+16]
	mov	DWORD PTR [eax+12], edx
	mov	edx, DWORD PTR [ecx+16]
	mov	DWORD PTR [ecx+16], esi
	mov	DWORD PTR [eax+16], edx
	pop	esi

; 106  : 		}

	ret	0
?Swap@?$Array@TSpan@Rasterizer@ssf@@@ssf@@QAEXAAV12@@Z ENDP ; ssf::Array<ssf::Rasterizer::Span>::Swap
; Function compile flags: /Ogtp
_TEXT	ENDS
;	COMDAT ?GetData@?$Array@TSpan@Rasterizer@ssf@@@ssf@@QAEPATSpan@Rasterizer@2@XZ
_TEXT	SEGMENT
?GetData@?$Array@TSpan@Rasterizer@ssf@@@ssf@@QAEPATSpan@Rasterizer@2@XZ PROC ; ssf::Array<ssf::Rasterizer::Span>::GetData, COMDAT
; _this$ = eax

; 63   : 		T* GetData() {return m_pData;}

	mov	eax, DWORD PTR [eax+4]
	ret	0
?GetData@?$Array@TSpan@Rasterizer@ssf@@@ssf@@QAEPATSpan@Rasterizer@2@XZ ENDP ; ssf::Array<ssf::Rasterizer::Span>::GetData
; Function compile flags: /Ogtp
_TEXT	ENDS
;	COMDAT ?IsEmpty@?$Array@TSpan@Rasterizer@ssf@@@ssf@@QBE_NXZ
_TEXT	SEGMENT
?IsEmpty@?$Array@TSpan@Rasterizer@ssf@@@ssf@@QBE_NXZ PROC ; ssf::Array<ssf::Rasterizer::Span>::IsEmpty, COMDAT
; _this$ = ecx

; 61   : 		bool IsEmpty() const {return m_nSize == 0;}

	xor	eax, eax
	cmp	DWORD PTR [ecx+8], eax
	sete	al
	ret	0
?IsEmpty@?$Array@TSpan@Rasterizer@ssf@@@ssf@@QBE_NXZ ENDP ; ssf::Array<ssf::Rasterizer::Span>::IsEmpty
; Function compile flags: /Ogtp
_TEXT	ENDS
;	COMDAT ?RemoveAll@?$Array@TSpan@Rasterizer@ssf@@@ssf@@QAEXXZ
_TEXT	SEGMENT
?RemoveAll@?$Array@TSpan@Rasterizer@ssf@@@ssf@@QAEXXZ PROC ; ssf::Array<ssf::Rasterizer::Span>::RemoveAll, COMDAT
; _this$ = eax

; 60   : 		void RemoveAll() {m_nSize = 0;}

	mov	DWORD PTR [eax+8], 0
	ret	0
?RemoveAll@?$Array@TSpan@Rasterizer@ssf@@@ssf@@QAEXXZ ENDP ; ssf::Array<ssf::Rasterizer::Span>::RemoveAll
; Function compile flags: /Ogtp
_TEXT	ENDS
;	COMDAT ?GetCount@?$Array@TSpan@Rasterizer@ssf@@@ssf@@QBEIXZ
_TEXT	SEGMENT
?GetCount@?$Array@TSpan@Rasterizer@ssf@@@ssf@@QBEIXZ PROC ; ssf::Array<ssf::Rasterizer::Span>::GetCount, COMDAT
; _this$ = eax

; 58   : 		size_t GetCount() const {return m_nSize;}

	mov	eax, DWORD PTR [eax+8]
	ret	0
?GetCount@?$Array@TSpan@Rasterizer@ssf@@@ssf@@QBEIXZ ENDP ; ssf::Array<ssf::Rasterizer::Span>::GetCount
; Function compile flags: /Ogtp
_TEXT	ENDS
;	COMDAT ?SetCount@?$Array@TSpan@Rasterizer@ssf@@@ssf@@QAEXII@Z
_TEXT	SEGMENT
?SetCount@?$Array@TSpan@Rasterizer@ssf@@@ssf@@QAEXII@Z PROC ; ssf::Array<ssf::Rasterizer::Span>::SetCount, COMDAT
; _this$ = esi
; _nSize$ = edi
; _nGrowBy$ = eax

; 43   : 			if(nGrowBy > 0)

	test	eax, eax
	je	SHORT $LN2@SetCount

; 44   : 			{
; 45   : 				m_nGrowBy = nGrowBy;

	mov	DWORD PTR [esi+16], eax
$LN2@SetCount:

; 46   : 			}
; 47   : 
; 48   : 			if(nSize > m_nMaxSize)

	cmp	edi, DWORD PTR [esi+12]
	jbe	SHORT $LN9@SetCount

; 49   : 			{
; 50   : 				m_nMaxSize = nSize + max(m_nGrowBy, m_nSize);

	mov	eax, DWORD PTR [esi+16]
	mov	ecx, DWORD PTR [esi+8]
	cmp	eax, ecx
	ja	SHORT $LN6@SetCount
	mov	eax, ecx
$LN6@SetCount:

; 51   : 				size_t nBytes = m_nMaxSize * sizeof(T);
; 52   : 				m_pData = m_pData ? (T*)_aligned_realloc(m_pData, nBytes, 16) : (T*)_aligned_malloc(nBytes, 16);

	mov	ecx, DWORD PTR [esi+4]
	add	eax, edi
	mov	DWORD PTR [esi+12], eax
	shl	eax, 4
	push	16					; 00000010H
	push	eax
	test	ecx, ecx
	je	SHORT $LN7@SetCount
	push	ecx
	call	__aligned_realloc
	add	esp, 12					; 0000000cH
	mov	DWORD PTR [esi+4], eax

; 53   : 			}
; 54   : 
; 55   : 			m_nSize = nSize;

	mov	DWORD PTR [esi+8], edi

; 56   : 		}

	ret	0
$LN7@SetCount:

; 51   : 				size_t nBytes = m_nMaxSize * sizeof(T);
; 52   : 				m_pData = m_pData ? (T*)_aligned_realloc(m_pData, nBytes, 16) : (T*)_aligned_malloc(nBytes, 16);

	call	__aligned_malloc
	add	esp, 8
	mov	DWORD PTR [esi+4], eax
$LN9@SetCount:

; 53   : 			}
; 54   : 
; 55   : 			m_nSize = nSize;

	mov	DWORD PTR [esi+8], edi

; 56   : 		}

	ret	0
?SetCount@?$Array@TSpan@Rasterizer@ssf@@@ssf@@QAEXII@Z ENDP ; ssf::Array<ssf::Rasterizer::Span>::SetCount
; Function compile flags: /Ogtp
_TEXT	ENDS
;	COMDAT ??1?$Array@TSpan@Rasterizer@ssf@@@ssf@@UAE@XZ
_TEXT	SEGMENT
??1?$Array@TSpan@Rasterizer@ssf@@@ssf@@UAE@XZ PROC	; ssf::Array<ssf::Rasterizer::Span>::~Array<ssf::Rasterizer::Span>, COMDAT
; _this$ = ecx

; 39   : 		virtual ~Array() {if(m_pData) _aligned_free(m_pData);}

	mov	DWORD PTR [ecx], OFFSET ??_7?$Array@TSpan@Rasterizer@ssf@@@ssf@@6B@
	mov	ecx, DWORD PTR [ecx+4]
	test	ecx, ecx
	je	SHORT $LN1@Array
	push	ecx
	call	__aligned_free
	pop	ecx
$LN1@Array:
	ret	0
??1?$Array@TSpan@Rasterizer@ssf@@@ssf@@UAE@XZ ENDP	; ssf::Array<ssf::Rasterizer::Span>::~Array<ssf::Rasterizer::Span>
; Function compile flags: /Ogtp
_TEXT	ENDS
;	COMDAT ??0?$Array@TSpan@Rasterizer@ssf@@@ssf@@QAE@XZ
_TEXT	SEGMENT
??0?$Array@TSpan@Rasterizer@ssf@@@ssf@@QAE@XZ PROC	; ssf::Array<ssf::Rasterizer::Span>::Array<ssf::Rasterizer::Span>, COMDAT
; _this$ = eax

; 38   : 		Array() {m_pData = NULL; m_nSize = m_nMaxSize = 0; m_nGrowBy = 4096;}

	xor	ecx, ecx
	mov	DWORD PTR [eax], OFFSET ??_7?$Array@TSpan@Rasterizer@ssf@@@ssf@@6B@
	mov	DWORD PTR [eax+4], ecx
	mov	DWORD PTR [eax+12], ecx
	mov	DWORD PTR [eax+8], ecx
	mov	DWORD PTR [eax+16], 4096		; 00001000H
	ret	0
??0?$Array@TSpan@Rasterizer@ssf@@@ssf@@QAE@XZ ENDP	; ssf::Array<ssf::Rasterizer::Span>::Array<ssf::Rasterizer::Span>
; Function compile flags: /Ogtp
; File e:\github\codesandnotes\xy-vsfilter\src\subtitles\libssf\rasterizer.cpp
_TEXT	ENDS
;	COMDAT ?pixmix_sse2@ssf@@YAXPAKKK@Z
_TEXT	SEGMENT
_alpha$ = 8						; size = 4
?pixmix_sse2@ssf@@YAXPAKKK@Z PROC			; ssf::pixmix_sse2, COMDAT
; _dst$ = edx
; _color$ = ecx

; 620  : 	{

	push	ebp
	mov	ebp, esp

; 621  : 		alpha = ((alpha * (color>>24)) >> 6) & 0xff;

	mov	eax, ecx
	shr	eax, 24					; 00000018H
	imul	eax, DWORD PTR _alpha$[ebp]

; 622  : 		color &= 0xffffff;

	and	ecx, 16777215				; 00ffffffH
	shr	eax, 6

; 623  : 
; 624  : 		__m128i zero = _mm_setzero_si128();
; 625  : 		__m128i a = _mm_set1_epi32((alpha << 16) | (0xff - alpha));
; 626  : 		__m128i d = _mm_unpacklo_epi8(_mm_cvtsi32_si128(*dst), zero);
; 627  : 		__m128i s = _mm_unpacklo_epi8(_mm_cvtsi32_si128(color), zero);

	movd	xmm2, ecx
	and	eax, 255				; 000000ffH
	mov	ecx, 255				; 000000ffH
	sub	ecx, eax
	push	esi
	mov	esi, DWORD PTR [edx]
	pxor	xmm1, xmm1
	shl	eax, 16					; 00000010H
	movd	xmm0, esi
	punpcklbw xmm0, xmm1
	punpcklbw xmm2, xmm1
	or	ecx, eax

; 628  : 		__m128i r = _mm_unpacklo_epi16(d, s);

	punpcklwd xmm0, xmm2
	movd	xmm1, ecx
	pshufd	xmm1, xmm1, 0

; 629  : 
; 630  : 		r = _mm_madd_epi16(r, a);

	pmaddwd	xmm0, xmm1

; 631  : 		r = _mm_srli_epi32(r, 8);

	psrld	xmm0, 8

; 632  : 		r = _mm_packs_epi32(r, r);

	packssdw xmm0, xmm0

; 633  : 		r = _mm_packus_epi16(r, r);

	packuswb xmm0, xmm0

; 634  : 
; 635  : 		*dst = (DWORD)_mm_cvtsi128_si32(r);

	movd	eax, xmm0
	mov	DWORD PTR [edx], eax

; 636  : 	}

	pop	esi
	pop	ebp
	ret	0
?pixmix_sse2@ssf@@YAXPAKKK@Z ENDP			; ssf::pixmix_sse2
; Function compile flags: /Ogtp
_TEXT	ENDS
;	COMDAT ?pixmix_c@ssf@@YAXPAKKK@Z
_TEXT	SEGMENT
_dst$ = 8						; size = 4
_ia$ = 12						; size = 4
_alpha$ = 12						; size = 4
?pixmix_c@ssf@@YAXPAKKK@Z PROC				; ssf::pixmix_c, COMDAT
; _color$ = edx

; 611  : 	{

	push	ebp
	mov	ebp, esp

; 612  : 		int a = ((alpha * (color>>24)) >> 6) & 0xff;
; 613  : 		int ia = 0xff - a;
; 614  : 
; 615  : 		*dst = ((((*dst & 0x00ff00ff)*ia + (color & 0x00ff00ff)*a) & 0xff00ff00) >> 8)
; 616  : 			| ((((*dst>>8) & 0x00ff00ff)*ia + ((color>>8) & 0x000000ff)*a) & 0xff00ff00);

	mov	ecx, DWORD PTR _dst$[ebp]
	mov	ecx, DWORD PTR [ecx]
	mov	eax, edx
	push	ebx
	shr	eax, 24					; 00000018H
	imul	eax, DWORD PTR _alpha$[ebp]
	push	esi
	push	edi
	mov	edi, ecx
	shr	edi, 8
	mov	ebx, edx
	shr	ebx, 8
	and	ebx, 255				; 000000ffH
	shr	eax, 6
	and	eax, 255				; 000000ffH
	and	edi, -65281				; ffff00ffH
	imul	ebx, eax
	mov	esi, 255				; 000000ffH
	sub	esi, eax
	imul	edi, esi
	add	edi, ebx
	mov	ebx, ecx
	and	ebx, 16711935				; 00ff00ffH
	imul	ebx, esi
	mov	DWORD PTR _ia$[ebp], esi
	mov	esi, edx
	and	esi, 16711935				; 00ff00ffH
	imul	esi, eax
	shr	ecx, 8
	shr	edx, 8
	and	ecx, 16711935				; 00ff00ffH
	imul	ecx, DWORD PTR _ia$[ebp]
	and	edx, 255				; 000000ffH
	imul	edx, eax
	add	ebx, esi
	shr	ebx, 8
	xor	edi, ebx
	and	edi, 16711935				; 00ff00ffH
	add	ecx, edx
	mov	edx, DWORD PTR _dst$[ebp]
	xor	edi, ecx
	mov	DWORD PTR [edx], edi
	pop	edi
	pop	esi
	pop	ebx

; 617  : 	}

	pop	ebp
	ret	0
?pixmix_c@ssf@@YAXPAKKK@Z ENDP				; ssf::pixmix_c
_TEXT	ENDS
PUBLIC	__real@0000000000000000
PUBLIC	__real@00000000
PUBLIC	?Blur@Rasterizer@ssf@@QAEXMH@Z			; ssf::Rasterizer::Blur
EXTRN	__fltused:DWORD
;	COMDAT __real@0000000000000000
CONST	SEGMENT
__real@0000000000000000 DQ 00000000000000000r	; 0
CONST	ENDS
;	COMDAT __real@00000000
CONST	SEGMENT
__real@00000000 DD 000000000r			; 0
; Function compile flags: /Ogtp
CONST	ENDS
;	COMDAT ?Blur@Rasterizer@ssf@@QAEXMH@Z
_TEXT	SEGMENT
_yq$172582 = -28					; size = 4
_q0$ = -24						; size = 4
tv905 = -20						; size = 4
tv304 = -16						; size = 4
tv684 = -12						; size = 4
tv259 = -12						; size = 4
_pass$172560 = -8					; size = 4
tv327 = -4						; size = 4
_this$ = 8						; size = 4
_q$172567 = 12						; size = 4
_n$ = 12						; size = 4
_plane$ = 16						; size = 4
?Blur@Rasterizer@ssf@@QAEXMH@Z PROC			; ssf::Rasterizer::Blur, COMDAT

; 558  : 	{

	push	ebp
	mov	ebp, esp

; 559  : 		if(n <= 0 || !mOverlayWidth || !mOverlayHeight || !mpOverlayBuffer)

	fldz
	sub	esp, 28					; 0000001cH
	fcomp	DWORD PTR _n$[ebp]
	fnstsw	ax
	test	ah, 1
	je	$LN16@Blur
	push	esi
	push	edi
	mov	edi, DWORD PTR _this$[ebp]
	mov	esi, DWORD PTR [edi+116]
	test	esi, esi
	je	$LN32@Blur
	push	ebx
	mov	ebx, DWORD PTR [edi+120]
	mov	DWORD PTR tv327[ebp], ebx
	test	ebx, ebx
	je	$LN34@Blur
	cmp	DWORD PTR [edi+112], 0
	je	$LN34@Blur

; 560  : 			return;
; 561  : 
; 562  : 		int w = mOverlayWidth;
; 563  : 		int h = mOverlayHeight;
; 564  : 		int pitch = w*4;
; 565  : 		BYTE* q0 = new BYTE[w*h];

	mov	eax, ebx
	imul	eax, esi
	push	eax
	call	??_U@YAPAXI@Z				; operator new[]
	mov	edx, eax

; 566  : 
; 567  : 		for(int pass = 0, limit = (int)(n + 0.5); pass < n; pass++)

	fld	DWORD PTR _n$[ebp]
	add	esp, 4
	fcom	QWORD PTR __real@0000000000000000
	mov	DWORD PTR _q0$[ebp], edx
	mov	DWORD PTR _pass$172560[ebp], 0
	fnstsw	ax
	test	ah, 65					; 00000041H
	jne	$LN62@Blur
	jmp	SHORT $LN15@Blur
$LN31@Blur:
	mov	edi, DWORD PTR _this$[ebp]
$LN15@Blur:

; 568  : 		{
; 569  : 			BYTE* p = mpOverlayBuffer + plane;

	mov	edi, DWORD PTR [edi+112]
	add	edi, DWORD PTR _plane$[ebp]

; 570  : 			BYTE* q = q0;

	mov	DWORD PTR _q$172567[ebp], edx

; 571  : 
; 572  : 			for(int y = 0; y < h; y++, p += pitch, q += w)

	test	ebx, ebx
	jle	SHORT $LN10@Blur

; 568  : 		{
; 569  : 			BYTE* p = mpOverlayBuffer + plane;

	mov	DWORD PTR tv259[ebp], ebx
$LN12@Blur:

; 573  : 			{
; 574  : 				q[0] = (2*p[0] + p[4]) >> 2;

	movzx	eax, BYTE PTR [edi+4]
	movzx	ecx, BYTE PTR [edi]
	lea	ecx, DWORD PTR [eax+ecx*2]
	sar	ecx, 2
	mov	BYTE PTR [edx], cl

; 575  : 				int x = 0;
; 576  : 				for(x = 1; x < w-1; x++)

	mov	eax, 1
	lea	ecx, DWORD PTR [esi-1]
	cmp	ecx, eax
	jle	SHORT $LN7@Blur

; 571  : 
; 572  : 			for(int y = 0; y < h; y++, p += pitch, q += w)

	lea	ecx, DWORD PTR [edi+8]
$LN9@Blur:

; 577  : 					q[x] = (p[(x-1)*4] + 2*p[x*4] + p[(x+1)*4]) >> 2;

	movzx	edx, BYTE PTR [ecx-4]
	movzx	ebx, BYTE PTR [ecx-8]
	lea	ebx, DWORD PTR [ebx+edx*2]
	movzx	edx, BYTE PTR [ecx]
	add	ebx, edx
	mov	edx, DWORD PTR _q$172567[ebp]
	sar	ebx, 2
	mov	BYTE PTR [eax+edx], bl
	inc	eax
	lea	ebx, DWORD PTR [esi-1]
	add	ecx, 4
	cmp	eax, ebx
	jl	SHORT $LN9@Blur
$LN7@Blur:

; 578  : 				q[x] = (p[(x-1)*4] + 2*p[x*4]) >> 2;

	movzx	ecx, BYTE PTR [edi+eax*4]
	movzx	ebx, BYTE PTR [edi+eax*4-4]
	lea	ecx, DWORD PTR [ebx+ecx*2]
	sar	ecx, 2
	mov	BYTE PTR [eax+edx], cl
	lea	eax, DWORD PTR [esi*4]
	add	edx, esi
	add	edi, eax
	dec	DWORD PTR tv259[ebp]
	mov	DWORD PTR _q$172567[ebp], edx
	jne	SHORT $LN12@Blur

; 571  : 
; 572  : 			for(int y = 0; y < h; y++, p += pitch, q += w)

	mov	ebx, DWORD PTR tv327[ebp]
	mov	edx, DWORD PTR _q0$[ebp]
$LN10@Blur:

; 579  : 			}
; 580  : 
; 581  : 			p = mpOverlayBuffer + plane;

	mov	eax, DWORD PTR _this$[ebp]
	mov	ecx, DWORD PTR [eax+112]
	add	ecx, DWORD PTR _plane$[ebp]

; 582  : 			q = q0;

	mov	DWORD PTR _q$172567[ebp], edx

; 583  : 
; 584  : 			for(int x = 0; x < w; x++, p += 4, q++)

	test	esi, esi
	jle	$LN14@Blur

; 579  : 			}
; 580  : 
; 581  : 			p = mpOverlayBuffer + plane;

	mov	DWORD PTR tv905[ebp], esi
$LN6@Blur:

; 585  : 			{
; 586  : 				p[0] = (2*q[0] + q[w]) >> 2;

	movzx	edi, BYTE PTR [edx+esi]
	movzx	eax, BYTE PTR [edx]
	lea	eax, DWORD PTR [edi+eax*2]
	sar	eax, 2

; 587  : 				int y = 0, yp, yq;
; 588  : 				for(y = 1, yp = y*pitch, yq = y*w; y < h-1; y++, yp += pitch, yq += w)

	dec	ebx
	mov	BYTE PTR [ecx], al
	lea	edi, DWORD PTR [esi*4]
	mov	eax, esi
	cmp	ebx, 1
	jle	SHORT $LN1@Blur

; 585  : 			{
; 586  : 				p[0] = (2*q[0] + q[w]) >> 2;

	dec	ebx
	mov	DWORD PTR tv304[ebp], ebx

; 587  : 				int y = 0, yp, yq;
; 588  : 				for(y = 1, yp = y*pitch, yq = y*w; y < h-1; y++, yp += pitch, yq += w)

	inc	ebx
	imul	ebx, esi
	lea	eax, DWORD PTR [edx+esi]
	mov	DWORD PTR tv684[ebp], edx
	mov	DWORD PTR _yq$172582[ebp], ebx
$LN3@Blur:

; 589  : 					p[yp] = (q[yq-w] + 2*q[yq] + q[yq+w]) >> 2;

	movzx	edx, BYTE PTR [edx]
	movzx	ebx, BYTE PTR [eax]
	lea	edx, DWORD PTR [edx+ebx*2]
	movzx	ebx, BYTE PTR [eax+esi]
	add	edx, ebx
	sar	edx, 2
	mov	BYTE PTR [edi+ecx], dl
	lea	edx, DWORD PTR [esi*4]
	add	edi, edx
	mov	edx, DWORD PTR tv684[ebp]
	add	edx, esi
	add	eax, esi
	dec	DWORD PTR tv304[ebp]
	mov	DWORD PTR tv684[ebp], edx
	jne	SHORT $LN3@Blur

; 587  : 				int y = 0, yp, yq;
; 588  : 				for(y = 1, yp = y*pitch, yq = y*w; y < h-1; y++, yp += pitch, yq += w)

	mov	edx, DWORD PTR _q$172567[ebp]
	mov	eax, DWORD PTR _yq$172582[ebp]
$LN1@Blur:

; 590  : 				p[yp] = (q[yq-w] + 2*q[yq]) >> 2;

	mov	ebx, eax
	movzx	eax, BYTE PTR [eax+edx]
	sub	ebx, esi
	movzx	ebx, BYTE PTR [ebx+edx]
	lea	eax, DWORD PTR [ebx+eax*2]
	mov	ebx, DWORD PTR tv327[ebp]
	sar	eax, 2
	mov	BYTE PTR [edi+ecx], al
	inc	edx
	add	ecx, 4
	dec	DWORD PTR tv905[ebp]
	mov	DWORD PTR _q$172567[ebp], edx
	jne	$LN6@Blur

; 583  : 
; 584  : 			for(int x = 0; x < w; x++, p += 4, q++)

	mov	edx, DWORD PTR _q0$[ebp]
$LN14@Blur:

; 566  : 
; 567  : 		for(int pass = 0, limit = (int)(n + 0.5); pass < n; pass++)

	inc	DWORD PTR _pass$172560[ebp]
	fild	DWORD PTR _pass$172560[ebp]
	fcomp	ST(1)
	fnstsw	ax
	test	ah, 5
	jnp	$LN31@Blur
$LN62@Blur:

; 591  : 			}
; 592  : 		}
; 593  : 
; 594  : 		delete [] q0;

	push	edx
	fstp	ST(0)
	call	??_V@YAXPAX@Z				; operator delete[]
	add	esp, 4
$LN34@Blur:
	pop	ebx
$LN32@Blur:
	pop	edi
	pop	esi
$LN16@Blur:

; 595  : 	}

	mov	esp, ebp
	pop	ebp
	ret	12					; 0000000cH
?Blur@Rasterizer@ssf@@QAEXMH@Z ENDP			; ssf::Rasterizer::Blur
_TEXT	ENDS
PUBLIC	?_ReallocEdgeBuffer@Rasterizer@ssf@@AAEXH@Z	; ssf::Rasterizer::_ReallocEdgeBuffer
; Function compile flags: /Ogtp
;	COMDAT ?_ReallocEdgeBuffer@Rasterizer@ssf@@AAEXH@Z
_TEXT	SEGMENT
?_ReallocEdgeBuffer@Rasterizer@ssf@@AAEXH@Z PROC	; ssf::Rasterizer::_ReallocEdgeBuffer, COMDAT
; _this$ = esi
; _edges$ = eax

; 61   : 		mEdgeHeapSize = edges;
; 62   : 		mpEdgeBuffer = (Edge*)realloc(mpEdgeBuffer, sizeof(Edge)*edges);

	mov	ecx, DWORD PTR [esi+96]
	mov	DWORD PTR [esi+100], eax
	add	eax, eax
	add	eax, eax
	add	eax, eax
	push	eax
	push	ecx
	call	_realloc
	add	esp, 8
	mov	DWORD PTR [esi+96], eax

; 63   : 	}

	ret	0
?_ReallocEdgeBuffer@Rasterizer@ssf@@AAEXH@Z ENDP	; ssf::Rasterizer::_ReallocEdgeBuffer
_TEXT	ENDS
PUBLIC	?_TrashOverlay@Rasterizer@ssf@@AAEXXZ		; ssf::Rasterizer::_TrashOverlay
; Function compile flags: /Ogtp
;	COMDAT ?_TrashOverlay@Rasterizer@ssf@@AAEXXZ
_TEXT	SEGMENT
?_TrashOverlay@Rasterizer@ssf@@AAEXXZ PROC		; ssf::Rasterizer::_TrashOverlay, COMDAT
; _this$ = esi

; 55   : 		if(mpOverlayBuffer) delete [] mpOverlayBuffer;

	mov	eax, DWORD PTR [esi+112]
	test	eax, eax
	je	SHORT $LN4@TrashOverl
	push	eax
	call	??_V@YAXPAX@Z				; operator delete[]
	add	esp, 4
$LN4@TrashOverl:

; 56   : 		mpOverlayBuffer = NULL;

	mov	DWORD PTR [esi+112], 0

; 57   : 	}

	ret	0
?_TrashOverlay@Rasterizer@ssf@@AAEXXZ ENDP		; ssf::Rasterizer::_TrashOverlay
_TEXT	ENDS
PUBLIC	??1Rasterizer@ssf@@UAE@XZ			; ssf::Rasterizer::~Rasterizer
; Function compile flags: /Ogtp
;	COMDAT ??1Rasterizer@ssf@@UAE@XZ
_TEXT	SEGMENT
??1Rasterizer@ssf@@UAE@XZ PROC				; ssf::Rasterizer::~Rasterizer, COMDAT
; _this$ = ecx

; 49   : 	{

	push	esi
	mov	esi, ecx

; 50   : 		_TrashOverlay();

	mov	eax, DWORD PTR [esi+112]
	mov	DWORD PTR [esi], OFFSET ??_7Rasterizer@ssf@@6B@
	test	eax, eax
	je	SHORT $LN3@Rasterizer
	push	eax
	call	??_V@YAXPAX@Z				; operator delete[]
	add	esp, 4
$LN3@Rasterizer:
	mov	DWORD PTR [esi+112], 0

; 51   : 	}

	mov	eax, DWORD PTR [esi+76]
	mov	DWORD PTR [esi+72], OFFSET ??_7?$Array@TSpan@Rasterizer@ssf@@@ssf@@6B@
	test	eax, eax
	je	SHORT $LN6@Rasterizer
	push	eax
	call	__aligned_free
	add	esp, 4
$LN6@Rasterizer:
	mov	eax, DWORD PTR [esi+56]
	mov	DWORD PTR [esi+52], OFFSET ??_7?$Array@TSpan@Rasterizer@ssf@@@ssf@@6B@
	test	eax, eax
	je	SHORT $LN9@Rasterizer
	push	eax
	call	__aligned_free
	add	esp, 4
$LN9@Rasterizer:
	mov	DWORD PTR [esi+32], OFFSET ??_7?$Array@TSpan@Rasterizer@ssf@@@ssf@@6B@
	mov	esi, DWORD PTR [esi+36]
	test	esi, esi
	je	SHORT $LN12@Rasterizer
	push	esi
	call	__aligned_free
	add	esp, 4
$LN12@Rasterizer:
	pop	esi
	ret	0
??1Rasterizer@ssf@@UAE@XZ ENDP				; ssf::Rasterizer::~Rasterizer
; Function compile flags: /Ogtp
_TEXT	ENDS
;	COMDAT ??_GRasterizer@ssf@@UAEPAXI@Z
_TEXT	SEGMENT
___flags$ = 8						; size = 4
??_GRasterizer@ssf@@UAEPAXI@Z PROC			; ssf::Rasterizer::`scalar deleting destructor', COMDAT
; _this$ = ecx
	push	ebp
	mov	ebp, esp
	push	esi
	mov	esi, ecx
	call	??1Rasterizer@ssf@@UAE@XZ		; ssf::Rasterizer::~Rasterizer
	test	BYTE PTR ___flags$[ebp], 1
	je	SHORT $LN4@scalar
	push	esi
	call	??3@YAXPAX@Z				; operator delete
	add	esp, 4
$LN4@scalar:
	mov	eax, esi
	pop	esi
	pop	ebp
	ret	4
??_GRasterizer@ssf@@UAEPAXI@Z ENDP			; ssf::Rasterizer::`scalar deleting destructor'
; Function compile flags: /Ogtp
; File e:\github\codesandnotes\xy-vsfilter\src\subtitles\libssf\rasterizer.h
_TEXT	ENDS
;	COMDAT ??0Span@Rasterizer@ssf@@QAE@_K0@Z
_TEXT	SEGMENT
__first$ = 8						; size = 8
__second$ = 16						; size = 8
??0Span@Rasterizer@ssf@@QAE@_K0@Z PROC			; ssf::Rasterizer::Span::Span, COMDAT
; _this$ = eax

; 46   : 			union Span(unsigned __int64 _first, unsigned __int64 _second) {first = _first; second = _second;}

	push	ebp
	mov	ebp, esp
	mov	ecx, DWORD PTR __first$[ebp]
	mov	edx, DWORD PTR __first$[ebp+4]
	mov	DWORD PTR [eax], ecx
	mov	ecx, DWORD PTR __second$[ebp]
	mov	DWORD PTR [eax+4], edx
	mov	edx, DWORD PTR __second$[ebp+4]
	mov	DWORD PTR [eax+8], ecx
	mov	DWORD PTR [eax+12], edx
	pop	ebp
	ret	16					; 00000010H
??0Span@Rasterizer@ssf@@QAE@_K0@Z ENDP			; ssf::Rasterizer::Span::Span
; Function compile flags: /Ogtp
_TEXT	ENDS
;	COMDAT ??0Span@Rasterizer@ssf@@QAE@HHHH@Z
_TEXT	SEGMENT
__y1$ = 8						; size = 4
__x2$ = 12						; size = 4
__y2$ = 16						; size = 4
??0Span@Rasterizer@ssf@@QAE@HHHH@Z PROC			; ssf::Rasterizer::Span::Span, COMDAT
; _this$ = eax
; __x1$ = ecx

; 45   : 			union Span(int _x1, int _y1, int _x2, int _y2) {x1 = _x1; y1 = _y1; x2 = _x2; y2 = _y2;}

	push	ebp
	mov	ebp, esp
	mov	edx, DWORD PTR __y1$[ebp]
	mov	DWORD PTR [eax], ecx
	mov	ecx, DWORD PTR __x2$[ebp]
	mov	DWORD PTR [eax+4], edx
	mov	edx, DWORD PTR __y2$[ebp]
	mov	DWORD PTR [eax+8], ecx
	mov	DWORD PTR [eax+12], edx
	pop	ebp
	ret	12					; 0000000cH
??0Span@Rasterizer@ssf@@QAE@HHHH@Z ENDP			; ssf::Rasterizer::Span::Span
; Function compile flags: /Ogtp
_TEXT	ENDS
;	COMDAT ??0Span@Rasterizer@ssf@@QAE@XZ
_TEXT	SEGMENT
??0Span@Rasterizer@ssf@@QAE@XZ PROC			; ssf::Rasterizer::Span::Span, COMDAT
; _this$ = eax

; 44   : 			union Span() {}

	ret	0
??0Span@Rasterizer@ssf@@QAE@XZ ENDP			; ssf::Rasterizer::Span::Span
; Function compile flags: /Ogtp
; File d:\program files (x86)\microsoft visual studio 10.0\vc\atlmfc\include\atltypes.inl
;	COMDAT ??9CPoint@@QBEHUtagPOINT@@@Z
_TEXT	SEGMENT
_point$ = 8						; size = 8
??9CPoint@@QBEHUtagPOINT@@@Z PROC			; CPoint::operator!=, COMDAT
; _this$ = eax

; 188  : {

	push	ebp
	mov	ebp, esp

; 189  : 	return (x != point.x || y != point.y);

	mov	ecx, DWORD PTR [eax]
	cmp	ecx, DWORD PTR _point$[ebp]
	jne	SHORT $LN3@operator
	mov	edx, DWORD PTR [eax+4]
	cmp	edx, DWORD PTR _point$[ebp+4]
	jne	SHORT $LN3@operator
	xor	eax, eax

; 190  : }

	pop	ebp
	ret	8
$LN3@operator:

; 189  : 	return (x != point.x || y != point.y);

	mov	eax, 1

; 190  : }

	pop	ebp
	ret	8
??9CPoint@@QBEHUtagPOINT@@@Z ENDP			; CPoint::operator!=
; Function compile flags: /Ogtp
_TEXT	ENDS
;	COMDAT ??0CPoint@@QAE@UtagPOINT@@@Z
_TEXT	SEGMENT
_initPt$ = 8						; size = 8
??0CPoint@@QAE@UtagPOINT@@@Z PROC			; CPoint::CPoint, COMDAT
; _this$ = ecx

; 139  : {

	push	ebp
	mov	ebp, esp

; 140  : 	*(POINT*)this = initPt;

	mov	edx, DWORD PTR _initPt$[ebp+4]
	mov	eax, ecx
	mov	ecx, DWORD PTR _initPt$[ebp]
	mov	DWORD PTR [eax], ecx
	mov	DWORD PTR [eax+4], edx

; 141  : }

	pop	ebp
	ret	8
??0CPoint@@QAE@UtagPOINT@@@Z ENDP			; CPoint::CPoint
_TEXT	ENDS
EXTRN	__CIsqrt:PROC
; Function compile flags: /Ogtp
